Archive member included because of file (symbol)

../critical_library/libcritical_library.a(fingerprint.o)
                              obj/default/hello_ucosii_0.o (fprint_set_block_size)
../critical_library/libcritical_library.a(context_switch.o)
                              obj/default/hello_ucosii_0.o (context_switch)
../critical_library/libcritical_library.a(gp.o)
                              obj/default/hello_ucosii_0.o (set_gp)
/CMC/tools/altera/13.1/nios2eds/bin/gnu/H-i686-pc-linux-gnu/bin/../lib/gcc/nios2-elf/4.7.3/../../../../../H-i686-pc-linux-gnu/nios2-elf/lib/mno-hw-mul/libc.a(lib_a-puts.o)
                              obj/default/hello_ucosii_0.o (puts)
/CMC/tools/altera/13.1/nios2eds/bin/gnu/H-i686-pc-linux-gnu/bin/../lib/gcc/nios2-elf/4.7.3/../../../../../H-i686-pc-linux-gnu/nios2-elf/lib/mno-hw-mul/libc.a(lib_a-strlen.o)
                              /CMC/tools/altera/13.1/nios2eds/bin/gnu/H-i686-pc-linux-gnu/bin/../lib/gcc/nios2-elf/4.7.3/../../../../../H-i686-pc-linux-gnu/nios2-elf/lib/mno-hw-mul/libc.a(lib_a-puts.o) (strlen)
/CMC/tools/altera/13.1/nios2eds/bin/gnu/H-i686-pc-linux-gnu/bin/../lib/gcc/nios2-elf/4.7.3/../../../../../H-i686-pc-linux-gnu/nios2-elf/lib/mno-hw-mul/libc.a(lib_a-fvwrite.o)
                              /CMC/tools/altera/13.1/nios2eds/bin/gnu/H-i686-pc-linux-gnu/bin/../lib/gcc/nios2-elf/4.7.3/../../../../../H-i686-pc-linux-gnu/nios2-elf/lib/mno-hw-mul/libc.a(lib_a-puts.o) (__sfvwrite_r)
/CMC/tools/altera/13.1/nios2eds/bin/gnu/H-i686-pc-linux-gnu/bin/../lib/gcc/nios2-elf/4.7.3/../../../../../H-i686-pc-linux-gnu/nios2-elf/lib/mno-hw-mul/libc.a(lib_a-impure.o)
                              /CMC/tools/altera/13.1/nios2eds/bin/gnu/H-i686-pc-linux-gnu/bin/../lib/gcc/nios2-elf/4.7.3/../../../../../H-i686-pc-linux-gnu/nios2-elf/lib/mno-hw-mul/libc.a(lib_a-puts.o) (_impure_ptr)
/CMC/tools/altera/13.1/nios2eds/bin/gnu/H-i686-pc-linux-gnu/bin/../lib/gcc/nios2-elf/4.7.3/../../../../../H-i686-pc-linux-gnu/nios2-elf/lib/mno-hw-mul/libc.a(lib_a-mallocr.o)
                              /CMC/tools/altera/13.1/nios2eds/bin/gnu/H-i686-pc-linux-gnu/bin/../lib/gcc/nios2-elf/4.7.3/../../../../../H-i686-pc-linux-gnu/nios2-elf/lib/mno-hw-mul/libc.a(lib_a-fvwrite.o) (_malloc_r)
/CMC/tools/altera/13.1/nios2eds/bin/gnu/H-i686-pc-linux-gnu/bin/../lib/gcc/nios2-elf/4.7.3/../../../../../H-i686-pc-linux-gnu/nios2-elf/lib/mno-hw-mul/libc.a(lib_a-memchr.o)
                              /CMC/tools/altera/13.1/nios2eds/bin/gnu/H-i686-pc-linux-gnu/bin/../lib/gcc/nios2-elf/4.7.3/../../../../../H-i686-pc-linux-gnu/nios2-elf/lib/mno-hw-mul/libc.a(lib_a-fvwrite.o) (memchr)
/CMC/tools/altera/13.1/nios2eds/bin/gnu/H-i686-pc-linux-gnu/bin/../lib/gcc/nios2-elf/4.7.3/../../../../../H-i686-pc-linux-gnu/nios2-elf/lib/mno-hw-mul/libc.a(lib_a-memcpy.o)
                              /CMC/tools/altera/13.1/nios2eds/bin/gnu/H-i686-pc-linux-gnu/bin/../lib/gcc/nios2-elf/4.7.3/../../../../../H-i686-pc-linux-gnu/nios2-elf/lib/mno-hw-mul/libc.a(lib_a-fvwrite.o) (memcpy)
/CMC/tools/altera/13.1/nios2eds/bin/gnu/H-i686-pc-linux-gnu/bin/../lib/gcc/nios2-elf/4.7.3/../../../../../H-i686-pc-linux-gnu/nios2-elf/lib/mno-hw-mul/libc.a(lib_a-memmove.o)
                              /CMC/tools/altera/13.1/nios2eds/bin/gnu/H-i686-pc-linux-gnu/bin/../lib/gcc/nios2-elf/4.7.3/../../../../../H-i686-pc-linux-gnu/nios2-elf/lib/mno-hw-mul/libc.a(lib_a-fvwrite.o) (memmove)
/CMC/tools/altera/13.1/nios2eds/bin/gnu/H-i686-pc-linux-gnu/bin/../lib/gcc/nios2-elf/4.7.3/../../../../../H-i686-pc-linux-gnu/nios2-elf/lib/mno-hw-mul/libc.a(lib_a-reallocr.o)
                              /CMC/tools/altera/13.1/nios2eds/bin/gnu/H-i686-pc-linux-gnu/bin/../lib/gcc/nios2-elf/4.7.3/../../../../../H-i686-pc-linux-gnu/nios2-elf/lib/mno-hw-mul/libc.a(lib_a-fvwrite.o) (_realloc_r)
/CMC/tools/altera/13.1/nios2eds/bin/gnu/H-i686-pc-linux-gnu/bin/../lib/gcc/nios2-elf/4.7.3/../../../../../H-i686-pc-linux-gnu/nios2-elf/lib/mno-hw-mul/libc.a(lib_a-sbrkr.o)
                              /CMC/tools/altera/13.1/nios2eds/bin/gnu/H-i686-pc-linux-gnu/bin/../lib/gcc/nios2-elf/4.7.3/../../../../../H-i686-pc-linux-gnu/nios2-elf/lib/mno-hw-mul/libc.a(lib_a-mallocr.o) (_sbrk_r)
/CMC/tools/altera/13.1/nios2eds/bin/gnu/H-i686-pc-linux-gnu/bin/../lib/gcc/nios2-elf/4.7.3/../../../../../H-i686-pc-linux-gnu/nios2-elf/lib/mno-hw-mul/libc.a(lib_a-wsetup.o)
                              /CMC/tools/altera/13.1/nios2eds/bin/gnu/H-i686-pc-linux-gnu/bin/../lib/gcc/nios2-elf/4.7.3/../../../../../H-i686-pc-linux-gnu/nios2-elf/lib/mno-hw-mul/libc.a(lib_a-fvwrite.o) (__swsetup_r)
/CMC/tools/altera/13.1/nios2eds/bin/gnu/H-i686-pc-linux-gnu/bin/../lib/gcc/nios2-elf/4.7.3/../../../../../H-i686-pc-linux-gnu/nios2-elf/lib/mno-hw-mul/libc.a(lib_a-fflush.o)
                              /CMC/tools/altera/13.1/nios2eds/bin/gnu/H-i686-pc-linux-gnu/bin/../lib/gcc/nios2-elf/4.7.3/../../../../../H-i686-pc-linux-gnu/nios2-elf/lib/mno-hw-mul/libc.a(lib_a-fvwrite.o) (_fflush_r)
/CMC/tools/altera/13.1/nios2eds/bin/gnu/H-i686-pc-linux-gnu/bin/../lib/gcc/nios2-elf/4.7.3/../../../../../H-i686-pc-linux-gnu/nios2-elf/lib/mno-hw-mul/libc.a(lib_a-findfp.o)
                              /CMC/tools/altera/13.1/nios2eds/bin/gnu/H-i686-pc-linux-gnu/bin/../lib/gcc/nios2-elf/4.7.3/../../../../../H-i686-pc-linux-gnu/nios2-elf/lib/mno-hw-mul/libc.a(lib_a-wsetup.o) (__sinit)
/CMC/tools/altera/13.1/nios2eds/bin/gnu/H-i686-pc-linux-gnu/bin/../lib/gcc/nios2-elf/4.7.3/../../../../../H-i686-pc-linux-gnu/nios2-elf/lib/mno-hw-mul/libc.a(lib_a-freer.o)
                              /CMC/tools/altera/13.1/nios2eds/bin/gnu/H-i686-pc-linux-gnu/bin/../lib/gcc/nios2-elf/4.7.3/../../../../../H-i686-pc-linux-gnu/nios2-elf/lib/mno-hw-mul/libc.a(lib_a-fvwrite.o) (_free_r)
/CMC/tools/altera/13.1/nios2eds/bin/gnu/H-i686-pc-linux-gnu/bin/../lib/gcc/nios2-elf/4.7.3/../../../../../H-i686-pc-linux-gnu/nios2-elf/lib/mno-hw-mul/libc.a(lib_a-fwalk.o)
                              /CMC/tools/altera/13.1/nios2eds/bin/gnu/H-i686-pc-linux-gnu/bin/../lib/gcc/nios2-elf/4.7.3/../../../../../H-i686-pc-linux-gnu/nios2-elf/lib/mno-hw-mul/libc.a(lib_a-findfp.o) (_fwalk)
/CMC/tools/altera/13.1/nios2eds/bin/gnu/H-i686-pc-linux-gnu/bin/../lib/gcc/nios2-elf/4.7.3/../../../../../H-i686-pc-linux-gnu/nios2-elf/lib/mno-hw-mul/libc.a(lib_a-int_errno.o)
                              /CMC/tools/altera/13.1/nios2eds/bin/gnu/H-i686-pc-linux-gnu/bin/../lib/gcc/nios2-elf/4.7.3/../../../../../H-i686-pc-linux-gnu/nios2-elf/lib/mno-hw-mul/libc.a(lib_a-sbrkr.o) (errno)
/CMC/tools/altera/13.1/nios2eds/bin/gnu/H-i686-pc-linux-gnu/bin/../lib/gcc/nios2-elf/4.7.3/../../../../../H-i686-pc-linux-gnu/nios2-elf/lib/mno-hw-mul/libc.a(lib_a-makebuf.o)
                              /CMC/tools/altera/13.1/nios2eds/bin/gnu/H-i686-pc-linux-gnu/bin/../lib/gcc/nios2-elf/4.7.3/../../../../../H-i686-pc-linux-gnu/nios2-elf/lib/mno-hw-mul/libc.a(lib_a-wsetup.o) (__smakebuf_r)
/CMC/tools/altera/13.1/nios2eds/bin/gnu/H-i686-pc-linux-gnu/bin/../lib/gcc/nios2-elf/4.7.3/../../../../../H-i686-pc-linux-gnu/nios2-elf/lib/mno-hw-mul/libc.a(lib_a-memset.o)
                              /CMC/tools/altera/13.1/nios2eds/bin/gnu/H-i686-pc-linux-gnu/bin/../lib/gcc/nios2-elf/4.7.3/../../../../../H-i686-pc-linux-gnu/nios2-elf/lib/mno-hw-mul/libc.a(lib_a-findfp.o) (memset)
/CMC/tools/altera/13.1/nios2eds/bin/gnu/H-i686-pc-linux-gnu/bin/../lib/gcc/nios2-elf/4.7.3/../../../../../H-i686-pc-linux-gnu/nios2-elf/lib/mno-hw-mul/libc.a(lib_a-stdio.o)
                              /CMC/tools/altera/13.1/nios2eds/bin/gnu/H-i686-pc-linux-gnu/bin/../lib/gcc/nios2-elf/4.7.3/../../../../../H-i686-pc-linux-gnu/nios2-elf/lib/mno-hw-mul/libc.a(lib_a-findfp.o) (__sread)
/CMC/tools/altera/13.1/nios2eds/bin/gnu/H-i686-pc-linux-gnu/bin/../lib/gcc/nios2-elf/4.7.3/../../../../../H-i686-pc-linux-gnu/nios2-elf/lib/mno-hw-mul/libc.a(lib_a-writer.o)
                              /CMC/tools/altera/13.1/nios2eds/bin/gnu/H-i686-pc-linux-gnu/bin/../lib/gcc/nios2-elf/4.7.3/../../../../../H-i686-pc-linux-gnu/nios2-elf/lib/mno-hw-mul/libc.a(lib_a-stdio.o) (_write_r)
/CMC/tools/altera/13.1/nios2eds/bin/gnu/H-i686-pc-linux-gnu/bin/../lib/gcc/nios2-elf/4.7.3/../../../../../H-i686-pc-linux-gnu/nios2-elf/lib/mno-hw-mul/libc.a(lib_a-closer.o)
                              /CMC/tools/altera/13.1/nios2eds/bin/gnu/H-i686-pc-linux-gnu/bin/../lib/gcc/nios2-elf/4.7.3/../../../../../H-i686-pc-linux-gnu/nios2-elf/lib/mno-hw-mul/libc.a(lib_a-stdio.o) (_close_r)
/CMC/tools/altera/13.1/nios2eds/bin/gnu/H-i686-pc-linux-gnu/bin/../lib/gcc/nios2-elf/4.7.3/../../../../../H-i686-pc-linux-gnu/nios2-elf/lib/mno-hw-mul/libc.a(lib_a-fclose.o)
                              /CMC/tools/altera/13.1/nios2eds/bin/gnu/H-i686-pc-linux-gnu/bin/../lib/gcc/nios2-elf/4.7.3/../../../../../H-i686-pc-linux-gnu/nios2-elf/lib/mno-hw-mul/libc.a(lib_a-findfp.o) (fclose)
/CMC/tools/altera/13.1/nios2eds/bin/gnu/H-i686-pc-linux-gnu/bin/../lib/gcc/nios2-elf/4.7.3/../../../../../H-i686-pc-linux-gnu/nios2-elf/lib/mno-hw-mul/libc.a(lib_a-fstatr.o)
                              /CMC/tools/altera/13.1/nios2eds/bin/gnu/H-i686-pc-linux-gnu/bin/../lib/gcc/nios2-elf/4.7.3/../../../../../H-i686-pc-linux-gnu/nios2-elf/lib/mno-hw-mul/libc.a(lib_a-makebuf.o) (_fstat_r)
/CMC/tools/altera/13.1/nios2eds/bin/gnu/H-i686-pc-linux-gnu/bin/../lib/gcc/nios2-elf/4.7.3/../../../../../H-i686-pc-linux-gnu/nios2-elf/lib/mno-hw-mul/libc.a(lib_a-isattyr.o)
                              /CMC/tools/altera/13.1/nios2eds/bin/gnu/H-i686-pc-linux-gnu/bin/../lib/gcc/nios2-elf/4.7.3/../../../../../H-i686-pc-linux-gnu/nios2-elf/lib/mno-hw-mul/libc.a(lib_a-makebuf.o) (_isatty_r)
/CMC/tools/altera/13.1/nios2eds/bin/gnu/H-i686-pc-linux-gnu/bin/../lib/gcc/nios2-elf/4.7.3/../../../../../H-i686-pc-linux-gnu/nios2-elf/lib/mno-hw-mul/libc.a(lib_a-lseekr.o)
                              /CMC/tools/altera/13.1/nios2eds/bin/gnu/H-i686-pc-linux-gnu/bin/../lib/gcc/nios2-elf/4.7.3/../../../../../H-i686-pc-linux-gnu/nios2-elf/lib/mno-hw-mul/libc.a(lib_a-stdio.o) (_lseek_r)
/CMC/tools/altera/13.1/nios2eds/bin/gnu/H-i686-pc-linux-gnu/bin/../lib/gcc/nios2-elf/4.7.3/../../../../../H-i686-pc-linux-gnu/nios2-elf/lib/mno-hw-mul/libc.a(lib_a-readr.o)
                              /CMC/tools/altera/13.1/nios2eds/bin/gnu/H-i686-pc-linux-gnu/bin/../lib/gcc/nios2-elf/4.7.3/../../../../../H-i686-pc-linux-gnu/nios2-elf/lib/mno-hw-mul/libc.a(lib_a-stdio.o) (_read_r)
/CMC/tools/altera/13.1/nios2eds/bin/gnu/H-i686-pc-linux-gnu/bin/../lib/gcc/nios2-elf/4.7.3/mno-hw-mul/libgcc.a(lib2-mul.o)
                              /CMC/tools/altera/13.1/nios2eds/bin/gnu/H-i686-pc-linux-gnu/bin/../lib/gcc/nios2-elf/4.7.3/../../../../../H-i686-pc-linux-gnu/nios2-elf/lib/mno-hw-mul/libc.a(lib_a-memcpy.o) (__mulsi3)
../ucos0_bsp//libucosii_bsp.a(alt_close.o)
                              /CMC/tools/altera/13.1/nios2eds/bin/gnu/H-i686-pc-linux-gnu/bin/../lib/gcc/nios2-elf/4.7.3/../../../../../H-i686-pc-linux-gnu/nios2-elf/lib/mno-hw-mul/libc.a(lib_a-closer.o) (close)
../ucos0_bsp//libucosii_bsp.a(alt_dev.o)
                              ../ucos0_bsp//libucosii_bsp.a(alt_close.o) (alt_fd_list)
../ucos0_bsp//libucosii_bsp.a(alt_errno.o)
                              ../ucos0_bsp//libucosii_bsp.a(alt_close.o) (alt_errno)
../ucos0_bsp//libucosii_bsp.a(alt_fstat.o)
                              /CMC/tools/altera/13.1/nios2eds/bin/gnu/H-i686-pc-linux-gnu/bin/../lib/gcc/nios2-elf/4.7.3/../../../../../H-i686-pc-linux-gnu/nios2-elf/lib/mno-hw-mul/libc.a(lib_a-fstatr.o) (fstat)
../ucos0_bsp//libucosii_bsp.a(alt_iic.o)
                              obj/default/hello_ucosii_0.o (alt_ic_isr_register)
../ucos0_bsp//libucosii_bsp.a(alt_iic_isr_register.o)
                              ../ucos0_bsp//libucosii_bsp.a(alt_iic.o) (alt_iic_isr_register)
../ucos0_bsp//libucosii_bsp.a(alt_irq_entry.o)
                              ../ucos0_bsp//libucosii_bsp.a(alt_iic_isr_register.o) (alt_irq_entry)
../ucos0_bsp//libucosii_bsp.a(alt_irq_handler.o)
                              ../ucos0_bsp//libucosii_bsp.a(alt_iic_isr_register.o) (alt_irq)
../ucos0_bsp//libucosii_bsp.a(alt_irq_vars.o)
                              ../ucos0_bsp//libucosii_bsp.a(alt_iic.o) (alt_irq_active)
../ucos0_bsp//libucosii_bsp.a(alt_isatty.o)
                              /CMC/tools/altera/13.1/nios2eds/bin/gnu/H-i686-pc-linux-gnu/bin/../lib/gcc/nios2-elf/4.7.3/../../../../../H-i686-pc-linux-gnu/nios2-elf/lib/mno-hw-mul/libc.a(lib_a-isattyr.o) (isatty)
../ucos0_bsp//libucosii_bsp.a(alt_load.o)
                              ../ucos0_bsp//obj/HAL/src/crt0.o (alt_load)
../ucos0_bsp//libucosii_bsp.a(alt_lseek.o)
                              /CMC/tools/altera/13.1/nios2eds/bin/gnu/H-i686-pc-linux-gnu/bin/../lib/gcc/nios2-elf/4.7.3/../../../../../H-i686-pc-linux-gnu/nios2-elf/lib/mno-hw-mul/libc.a(lib_a-lseekr.o) (lseek)
../ucos0_bsp//libucosii_bsp.a(alt_main.o)
                              ../ucos0_bsp//obj/HAL/src/crt0.o (alt_main)
../ucos0_bsp//libucosii_bsp.a(alt_read.o)
                              /CMC/tools/altera/13.1/nios2eds/bin/gnu/H-i686-pc-linux-gnu/bin/../lib/gcc/nios2-elf/4.7.3/../../../../../H-i686-pc-linux-gnu/nios2-elf/lib/mno-hw-mul/libc.a(lib_a-readr.o) (read)
../ucos0_bsp//libucosii_bsp.a(alt_release_fd.o)
                              ../ucos0_bsp//libucosii_bsp.a(alt_close.o) (alt_release_fd)
../ucos0_bsp//libucosii_bsp.a(alt_sbrk.o)
                              /CMC/tools/altera/13.1/nios2eds/bin/gnu/H-i686-pc-linux-gnu/bin/../lib/gcc/nios2-elf/4.7.3/../../../../../H-i686-pc-linux-gnu/nios2-elf/lib/mno-hw-mul/libc.a(lib_a-sbrkr.o) (sbrk)
../ucos0_bsp//libucosii_bsp.a(alt_write.o)
                              /CMC/tools/altera/13.1/nios2eds/bin/gnu/H-i686-pc-linux-gnu/bin/../lib/gcc/nios2-elf/4.7.3/../../../../../H-i686-pc-linux-gnu/nios2-elf/lib/mno-hw-mul/libc.a(lib_a-writer.o) (write)
../ucos0_bsp//libucosii_bsp.a(alt_env_lock.o)
                              ../ucos0_bsp//libucosii_bsp.a(alt_main.o) (alt_envsem)
../ucos0_bsp//libucosii_bsp.a(alt_malloc_lock.o)
                              ../ucos0_bsp//libucosii_bsp.a(alt_main.o) (alt_heapsem)
../ucos0_bsp//libucosii_bsp.a(os_core.o)
                              ../ucos0_bsp//libucosii_bsp.a(alt_malloc_lock.o) (OSRunning)
../ucos0_bsp//libucosii_bsp.a(os_dbg.o)
                              ../ucos0_bsp//libucosii_bsp.a(os_core.o) (OSDebugInit)
../ucos0_bsp//libucosii_bsp.a(os_flag.o)
                              ../ucos0_bsp//libucosii_bsp.a(os_core.o) (OS_FlagInit)
../ucos0_bsp//libucosii_bsp.a(os_mem.o)
                              ../ucos0_bsp//libucosii_bsp.a(os_core.o) (OS_MemInit)
../ucos0_bsp//libucosii_bsp.a(os_q.o)
                              ../ucos0_bsp//libucosii_bsp.a(os_core.o) (OS_QInit)
../ucos0_bsp//libucosii_bsp.a(os_sem.o)
                              obj/default/hello_ucosii_0.o (OSSemCreate)
../ucos0_bsp//libucosii_bsp.a(os_task.o)
                              obj/default/hello_ucosii_0.o (OSTaskCreateExt)
../ucos0_bsp//libucosii_bsp.a(os_time.o)
                              ../ucos0_bsp//libucosii_bsp.a(os_core.o) (OSTimeDly)
../ucos0_bsp//libucosii_bsp.a(alt_sys_init.o)
                              ../ucos0_bsp//libucosii_bsp.a(alt_main.o) (alt_irq_init)
../ucos0_bsp//libucosii_bsp.a(altera_avalon_jtag_uart_fd.o)
                              ../ucos0_bsp//libucosii_bsp.a(alt_sys_init.o) (altera_avalon_jtag_uart_read_fd)
../ucos0_bsp//libucosii_bsp.a(altera_avalon_jtag_uart_init.o)
                              ../ucos0_bsp//libucosii_bsp.a(alt_sys_init.o) (altera_avalon_jtag_uart_init)
../ucos0_bsp//libucosii_bsp.a(altera_avalon_jtag_uart_ioctl.o)
                              ../ucos0_bsp//libucosii_bsp.a(altera_avalon_jtag_uart_fd.o) (altera_avalon_jtag_uart_ioctl)
../ucos0_bsp//libucosii_bsp.a(altera_avalon_jtag_uart_read.o)
                              ../ucos0_bsp//libucosii_bsp.a(altera_avalon_jtag_uart_fd.o) (altera_avalon_jtag_uart_read)
../ucos0_bsp//libucosii_bsp.a(altera_avalon_jtag_uart_write.o)
                              ../ucos0_bsp//libucosii_bsp.a(altera_avalon_jtag_uart_fd.o) (altera_avalon_jtag_uart_write)
../ucos0_bsp//libucosii_bsp.a(altera_avalon_mutex.o)
                              ../ucos0_bsp//libucosii_bsp.a(alt_sys_init.o) (alt_mutex_list)
../ucos0_bsp//libucosii_bsp.a(altera_avalon_timer_sc.o)
                              ../ucos0_bsp//libucosii_bsp.a(alt_sys_init.o) (alt_avalon_timer_sc_init)
../ucos0_bsp//libucosii_bsp.a(altera_avalon_timer_ts.o)
                              obj/default/hello_ucosii_0.o (alt_timestamp_start)
../ucos0_bsp//libucosii_bsp.a(altera_avalon_timer_vars.o)
                              ../ucos0_bsp//libucosii_bsp.a(alt_sys_init.o) (altera_avalon_timer_ts_base)
../ucos0_bsp//libucosii_bsp.a(alt_alarm_start.o)
                              ../ucos0_bsp//libucosii_bsp.a(altera_avalon_jtag_uart_init.o) (alt_alarm_start)
../ucos0_bsp//libucosii_bsp.a(alt_dcache_flush_all.o)
                              ../ucos0_bsp//libucosii_bsp.a(alt_load.o) (alt_dcache_flush_all)
../ucos0_bsp//libucosii_bsp.a(alt_dev_llist_insert.o)
                              ../ucos0_bsp//libucosii_bsp.a(alt_sys_init.o) (alt_dev_llist_insert)
../ucos0_bsp//libucosii_bsp.a(alt_do_ctors.o)
                              ../ucos0_bsp//libucosii_bsp.a(alt_main.o) (_do_ctors)
../ucos0_bsp//libucosii_bsp.a(alt_do_dtors.o)
                              ../ucos0_bsp//libucosii_bsp.a(alt_main.o) (_do_dtors)
../ucos0_bsp//libucosii_bsp.a(alt_exception_entry.o)
                              ../ucos0_bsp//libucosii_bsp.a(alt_irq_entry.o) (alt_exception)
../ucos0_bsp//libucosii_bsp.a(alt_find_dev.o)
                              ../ucos0_bsp//libucosii_bsp.a(altera_avalon_mutex.o) (alt_find_dev)
../ucos0_bsp//libucosii_bsp.a(alt_icache_flush_all.o)
                              ../ucos0_bsp//libucosii_bsp.a(alt_load.o) (alt_icache_flush_all)
../ucos0_bsp//libucosii_bsp.a(alt_io_redirect.o)
                              ../ucos0_bsp//libucosii_bsp.a(alt_main.o) (alt_io_redirect)
../ucos0_bsp//libucosii_bsp.a(alt_open.o)
                              ../ucos0_bsp//libucosii_bsp.a(alt_io_redirect.o) (open)
../ucos0_bsp//libucosii_bsp.a(alt_tick.o)
                              ../ucos0_bsp//libucosii_bsp.a(altera_avalon_jtag_uart_init.o) (_alt_tick_rate)
../ucos0_bsp//libucosii_bsp.a(altera_nios2_qsys_irq.o)
                              ../ucos0_bsp//libucosii_bsp.a(alt_sys_init.o) (altera_nios2_qsys_irq_init)
../ucos0_bsp//libucosii_bsp.a(os_cpu_a.o)
                              ../ucos0_bsp//libucosii_bsp.a(os_core.o) (OSIntCtxSw)
../ucos0_bsp//libucosii_bsp.a(os_cpu_c.o)
                              ../ucos0_bsp//libucosii_bsp.a(os_task.o) (OSTaskStkInit)
../ucos0_bsp//libucosii_bsp.a(alt_find_file.o)
                              ../ucos0_bsp//libucosii_bsp.a(alt_open.o) (alt_find_file)
../ucos0_bsp//libucosii_bsp.a(alt_get_fd.o)
                              ../ucos0_bsp//libucosii_bsp.a(alt_open.o) (alt_get_fd)
../ucos0_bsp//libucosii_bsp.a(alt_icache_flush.o)
                              ../ucos0_bsp//libucosii_bsp.a(alt_icache_flush_all.o) (alt_icache_flush)
/CMC/tools/altera/13.1/nios2eds/bin/gnu/H-i686-pc-linux-gnu/bin/../lib/gcc/nios2-elf/4.7.3/../../../../../H-i686-pc-linux-gnu/nios2-elf/lib/mno-hw-mul/libc.a(lib_a-atexit.o)
                              ../ucos0_bsp//libucosii_bsp.a(alt_main.o) (atexit)
/CMC/tools/altera/13.1/nios2eds/bin/gnu/H-i686-pc-linux-gnu/bin/../lib/gcc/nios2-elf/4.7.3/../../../../../H-i686-pc-linux-gnu/nios2-elf/lib/mno-hw-mul/libc.a(lib_a-exit.o)
                              ../ucos0_bsp//libucosii_bsp.a(alt_main.o) (exit)
/CMC/tools/altera/13.1/nios2eds/bin/gnu/H-i686-pc-linux-gnu/bin/../lib/gcc/nios2-elf/4.7.3/../../../../../H-i686-pc-linux-gnu/nios2-elf/lib/mno-hw-mul/libc.a(lib_a-memcmp.o)
                              ../ucos0_bsp//libucosii_bsp.a(alt_find_dev.o) (memcmp)
/CMC/tools/altera/13.1/nios2eds/bin/gnu/H-i686-pc-linux-gnu/bin/../lib/gcc/nios2-elf/4.7.3/../../../../../H-i686-pc-linux-gnu/nios2-elf/lib/mno-hw-mul/libc.a(lib_a-__atexit.o)
                              /CMC/tools/altera/13.1/nios2eds/bin/gnu/H-i686-pc-linux-gnu/bin/../lib/gcc/nios2-elf/4.7.3/../../../../../H-i686-pc-linux-gnu/nios2-elf/lib/mno-hw-mul/libc.a(lib_a-atexit.o) (__register_exitproc)
/CMC/tools/altera/13.1/nios2eds/bin/gnu/H-i686-pc-linux-gnu/bin/../lib/gcc/nios2-elf/4.7.3/../../../../../H-i686-pc-linux-gnu/nios2-elf/lib/mno-hw-mul/libc.a(lib_a-__call_atexit.o)
                              /CMC/tools/altera/13.1/nios2eds/bin/gnu/H-i686-pc-linux-gnu/bin/../lib/gcc/nios2-elf/4.7.3/../../../../../H-i686-pc-linux-gnu/nios2-elf/lib/mno-hw-mul/libc.a(lib_a-exit.o) (__call_exitprocs)
/CMC/tools/altera/13.1/nios2eds/bin/gnu/H-i686-pc-linux-gnu/bin/../lib/gcc/nios2-elf/4.7.3/mno-hw-mul/libgcc.a(_fixunsdfsi.o)
                              ../ucos0_bsp//libucosii_bsp.a(os_time.o) (__fixunsdfsi)
/CMC/tools/altera/13.1/nios2eds/bin/gnu/H-i686-pc-linux-gnu/bin/../lib/gcc/nios2-elf/4.7.3/mno-hw-mul/libgcc.a(_addsub_df.o)
                              ../ucos0_bsp//libucosii_bsp.a(os_time.o) (__adddf3)
/CMC/tools/altera/13.1/nios2eds/bin/gnu/H-i686-pc-linux-gnu/bin/../lib/gcc/nios2-elf/4.7.3/mno-hw-mul/libgcc.a(_mul_df.o)
                              ../ucos0_bsp//libucosii_bsp.a(os_time.o) (__muldf3)
/CMC/tools/altera/13.1/nios2eds/bin/gnu/H-i686-pc-linux-gnu/bin/../lib/gcc/nios2-elf/4.7.3/mno-hw-mul/libgcc.a(_div_df.o)
                              ../ucos0_bsp//libucosii_bsp.a(os_time.o) (__divdf3)
/CMC/tools/altera/13.1/nios2eds/bin/gnu/H-i686-pc-linux-gnu/bin/../lib/gcc/nios2-elf/4.7.3/mno-hw-mul/libgcc.a(_ge_df.o)
                              /CMC/tools/altera/13.1/nios2eds/bin/gnu/H-i686-pc-linux-gnu/bin/../lib/gcc/nios2-elf/4.7.3/mno-hw-mul/libgcc.a(_fixunsdfsi.o) (__gedf2)
/CMC/tools/altera/13.1/nios2eds/bin/gnu/H-i686-pc-linux-gnu/bin/../lib/gcc/nios2-elf/4.7.3/mno-hw-mul/libgcc.a(_df_to_si.o)
                              /CMC/tools/altera/13.1/nios2eds/bin/gnu/H-i686-pc-linux-gnu/bin/../lib/gcc/nios2-elf/4.7.3/mno-hw-mul/libgcc.a(_fixunsdfsi.o) (__fixdfsi)
/CMC/tools/altera/13.1/nios2eds/bin/gnu/H-i686-pc-linux-gnu/bin/../lib/gcc/nios2-elf/4.7.3/mno-hw-mul/libgcc.a(_thenan_df.o)
                              /CMC/tools/altera/13.1/nios2eds/bin/gnu/H-i686-pc-linux-gnu/bin/../lib/gcc/nios2-elf/4.7.3/mno-hw-mul/libgcc.a(_addsub_df.o) (__thenan_df)
/CMC/tools/altera/13.1/nios2eds/bin/gnu/H-i686-pc-linux-gnu/bin/../lib/gcc/nios2-elf/4.7.3/mno-hw-mul/libgcc.a(_usi_to_df.o)
                              ../ucos0_bsp//libucosii_bsp.a(os_time.o) (__floatunsidf)
/CMC/tools/altera/13.1/nios2eds/bin/gnu/H-i686-pc-linux-gnu/bin/../lib/gcc/nios2-elf/4.7.3/mno-hw-mul/libgcc.a(lib2-divmod.o)
                              ../ucos0_bsp//libucosii_bsp.a(os_core.o) (__udivsi3)
/CMC/tools/altera/13.1/nios2eds/bin/gnu/H-i686-pc-linux-gnu/bin/../lib/gcc/nios2-elf/4.7.3/mno-hw-mul/libgcc.a(_muldi3.o)
                              /CMC/tools/altera/13.1/nios2eds/bin/gnu/H-i686-pc-linux-gnu/bin/../lib/gcc/nios2-elf/4.7.3/mno-hw-mul/libgcc.a(_mul_df.o) (__muldi3)
/CMC/tools/altera/13.1/nios2eds/bin/gnu/H-i686-pc-linux-gnu/bin/../lib/gcc/nios2-elf/4.7.3/mno-hw-mul/libgcc.a(_clzsi2.o)
                              /CMC/tools/altera/13.1/nios2eds/bin/gnu/H-i686-pc-linux-gnu/bin/../lib/gcc/nios2-elf/4.7.3/mno-hw-mul/libgcc.a(_usi_to_df.o) (__clzsi2)
/CMC/tools/altera/13.1/nios2eds/bin/gnu/H-i686-pc-linux-gnu/bin/../lib/gcc/nios2-elf/4.7.3/mno-hw-mul/libgcc.a(_pack_df.o)
                              /CMC/tools/altera/13.1/nios2eds/bin/gnu/H-i686-pc-linux-gnu/bin/../lib/gcc/nios2-elf/4.7.3/mno-hw-mul/libgcc.a(_addsub_df.o) (__pack_d)
/CMC/tools/altera/13.1/nios2eds/bin/gnu/H-i686-pc-linux-gnu/bin/../lib/gcc/nios2-elf/4.7.3/mno-hw-mul/libgcc.a(_unpack_df.o)
                              /CMC/tools/altera/13.1/nios2eds/bin/gnu/H-i686-pc-linux-gnu/bin/../lib/gcc/nios2-elf/4.7.3/mno-hw-mul/libgcc.a(_addsub_df.o) (__unpack_d)
/CMC/tools/altera/13.1/nios2eds/bin/gnu/H-i686-pc-linux-gnu/bin/../lib/gcc/nios2-elf/4.7.3/mno-hw-mul/libgcc.a(_fpcmp_parts_df.o)
                              /CMC/tools/altera/13.1/nios2eds/bin/gnu/H-i686-pc-linux-gnu/bin/../lib/gcc/nios2-elf/4.7.3/mno-hw-mul/libgcc.a(_ge_df.o) (__fpcmp_parts_d)
/CMC/tools/altera/13.1/nios2eds/bin/gnu/H-i686-pc-linux-gnu/bin/../lib/gcc/nios2-elf/4.7.3/mno-hw-mul/libgcc.a(_lshrdi3.o)
                              /CMC/tools/altera/13.1/nios2eds/bin/gnu/H-i686-pc-linux-gnu/bin/../lib/gcc/nios2-elf/4.7.3/mno-hw-mul/libgcc.a(_pack_df.o) (__lshrdi3)
/CMC/tools/altera/13.1/nios2eds/bin/gnu/H-i686-pc-linux-gnu/bin/../lib/gcc/nios2-elf/4.7.3/mno-hw-mul/libgcc.a(_ashldi3.o)
                              /CMC/tools/altera/13.1/nios2eds/bin/gnu/H-i686-pc-linux-gnu/bin/../lib/gcc/nios2-elf/4.7.3/mno-hw-mul/libgcc.a(_pack_df.o) (__ashldi3)
/CMC/tools/altera/13.1/nios2eds/bin/gnu/H-i686-pc-linux-gnu/bin/../lib/gcc/nios2-elf/4.7.3/mno-hw-mul/libgcc.a(_clz.o)
                              /CMC/tools/altera/13.1/nios2eds/bin/gnu/H-i686-pc-linux-gnu/bin/../lib/gcc/nios2-elf/4.7.3/mno-hw-mul/libgcc.a(_clzsi2.o) (__clz_tab)
../ucos0_bsp//libucosii_bsp.a(alt_exit.o)
                              /CMC/tools/altera/13.1/nios2eds/bin/gnu/H-i686-pc-linux-gnu/bin/../lib/gcc/nios2-elf/4.7.3/../../../../../H-i686-pc-linux-gnu/nios2-elf/lib/mno-hw-mul/libc.a(lib_a-exit.o) (_exit)

Allocating common symbols
Common symbol       size              file

alt_irq             0x100             ../ucos0_bsp//libucosii_bsp.a(alt_irq_handler.o)
preempt_sem_2       0x4               obj/default/hello_ucosii_0.o
OSLockNesting       0x1               ../ucos0_bsp//libucosii_bsp.a(os_core.o)
OSRunning           0x1               ../ucos0_bsp//libucosii_bsp.a(os_core.o)
OSIdleCtr           0x4               ../ucos0_bsp//libucosii_bsp.a(os_core.o)
OSPrioHighRdy       0x1               ../ucos0_bsp//libucosii_bsp.a(os_core.o)
errno               0x4               /CMC/tools/altera/13.1/nios2eds/bin/gnu/H-i686-pc-linux-gnu/bin/../lib/gcc/nios2-elf/4.7.3/../../../../../H-i686-pc-linux-gnu/nios2-elf/lib/mno-hw-mul/libc.a(lib_a-int_errno.o)
mbox                0x4               obj/default/hello_ucosii_0.o
preempt_sem_3       0x4               obj/default/hello_ucosii_0.o
alt_heapsem         0x4               ../ucos0_bsp//libucosii_bsp.a(alt_malloc_lock.o)
OSFlagTbl           0x370             ../ucos0_bsp//libucosii_bsp.a(os_core.o)
OSPrioCur           0x1               ../ucos0_bsp//libucosii_bsp.a(os_core.o)
OSTCBList           0x4               ../ucos0_bsp//libucosii_bsp.a(os_core.o)
alt_fd_list_lock    0x4               ../ucos0_bsp//libucosii_bsp.a(alt_dev.o)
OSMemTbl            0xc30             ../ucos0_bsp//libucosii_bsp.a(os_core.o)
OSTickStepState     0x1               ../ucos0_bsp//libucosii_bsp.a(os_core.o)
OSTaskStatStk       0x800             ../ucos0_bsp//libucosii_bsp.a(os_core.o)
OSCtxSwCtr          0x4               ../ucos0_bsp//libucosii_bsp.a(os_core.o)
OSIdleCtrMax        0x4               ../ucos0_bsp//libucosii_bsp.a(os_core.o)
OSTCBFreeList       0x4               ../ucos0_bsp//libucosii_bsp.a(os_core.o)
mutex               0x4               obj/default/hello_ucosii_0.o
OSCPUUsage          0x1               ../ucos0_bsp//libucosii_bsp.a(os_core.o)
ct                  0x4               obj/default/hello_ucosii_0.o
OSTaskCtr           0x1               ../ucos0_bsp//libucosii_bsp.a(os_core.o)
OSMemFreeList       0x4               ../ucos0_bsp//libucosii_bsp.a(os_core.o)
OSQTbl              0x1e0             ../ucos0_bsp//libucosii_bsp.a(os_core.o)
OSTCBHighRdy        0x4               ../ucos0_bsp//libucosii_bsp.a(os_core.o)
OSQFreeList         0x4               ../ucos0_bsp//libucosii_bsp.a(os_core.o)
OSRdyGrp            0x1               ../ucos0_bsp//libucosii_bsp.a(os_core.o)
err                 0x1               obj/default/hello_ucosii_0.o
_atexit0            0x190             /CMC/tools/altera/13.1/nios2eds/bin/gnu/H-i686-pc-linux-gnu/bin/../lib/gcc/nios2-elf/4.7.3/../../../../../H-i686-pc-linux-gnu/nios2-elf/lib/mno-hw-mul/libc.a(lib_a-atexit.o)
OSRdyTbl            0x3               ../ucos0_bsp//libucosii_bsp.a(os_core.o)
OSEventFreeList     0x4               ../ucos0_bsp//libucosii_bsp.a(os_core.o)
OSIntNesting        0x1               ../ucos0_bsp//libucosii_bsp.a(os_core.o)
OSTCBCur            0x4               ../ucos0_bsp//libucosii_bsp.a(os_core.o)
OSTime              0x4               ../ucos0_bsp//libucosii_bsp.a(os_core.o)
OSTaskIdleStk       0x800             ../ucos0_bsp//libucosii_bsp.a(os_core.o)
OSEventTbl          0xb40             ../ucos0_bsp//libucosii_bsp.a(os_core.o)
OSTCBTbl            0x510             ../ucos0_bsp//libucosii_bsp.a(os_core.o)
OSFlagFreeList      0x4               ../ucos0_bsp//libucosii_bsp.a(os_core.o)
OSStatRdy           0x1               ../ucos0_bsp//libucosii_bsp.a(os_core.o)
preempt_sem         0x4               obj/default/hello_ucosii_0.o
OSTCBPrioTbl        0x54              ../ucos0_bsp//libucosii_bsp.a(os_core.o)
alt_envsem          0x4               ../ucos0_bsp//libucosii_bsp.a(alt_env_lock.o)
OSIdleCtrRun        0x4               ../ucos0_bsp//libucosii_bsp.a(os_core.o)

Memory Configuration

Name             Origin             Length             Attributes
memory_0_onchip_memoryMain_BEFORE_RESET 0x00400000         0x00064000
reset            0x00464000         0x00000020
memory_0_onchip_memoryMain 0x00464020         0x00031fe0
shared_memory    0x02500000         0x00000400
processor0_0_scratchpad 0x04200000         0x00003000
global           0x04203000         0x00001000
*default*        0x00000000         0xffffffff

Linker script and memory map

LOAD ../ucos0_bsp//obj/HAL/src/crt0.o
LOAD obj/default/hello_ucosii_0.o
LOAD obj/default/tlb.o
LOAD ../critical_library/libcritical_library.a
LOAD /CMC/tools/altera/13.1/nios2eds/bin/gnu/H-i686-pc-linux-gnu/bin/../lib/gcc/nios2-elf/4.7.3/../../../../../H-i686-pc-linux-gnu/nios2-elf/lib/mno-hw-mul/libstdc++.a
LOAD /CMC/tools/altera/13.1/nios2eds/bin/gnu/H-i686-pc-linux-gnu/bin/../lib/gcc/nios2-elf/4.7.3/../../../../../H-i686-pc-linux-gnu/nios2-elf/lib/mno-hw-mul/libm.a
LOAD /CMC/tools/altera/13.1/nios2eds/bin/gnu/H-i686-pc-linux-gnu/bin/../lib/gcc/nios2-elf/4.7.3/mno-hw-mul/libgcc.a
START GROUP
LOAD /CMC/tools/altera/13.1/nios2eds/bin/gnu/H-i686-pc-linux-gnu/bin/../lib/gcc/nios2-elf/4.7.3/../../../../../H-i686-pc-linux-gnu/nios2-elf/lib/mno-hw-mul/libc.a
LOAD /CMC/tools/altera/13.1/nios2eds/bin/gnu/H-i686-pc-linux-gnu/bin/../lib/gcc/nios2-elf/4.7.3/mno-hw-mul/libgcc.a
LOAD ../ucos0_bsp//libucosii_bsp.a
END GROUP
LOAD /CMC/tools/altera/13.1/nios2eds/bin/gnu/H-i686-pc-linux-gnu/bin/../lib/gcc/nios2-elf/4.7.3/mno-hw-mul/libgcc.a
                0x00400000                __alt_mem_memory_0_onchip_memoryMain = 0x400000
                0x02500000                __alt_mem_shared_memory = 0x2500000
                0x04200000                __alt_mem_processor0_0_scratchpad = 0x4200000

.entry          0x00464000       0x20
 *(.entry)
 .entry         0x00464000       0x20 ../ucos0_bsp//obj/HAL/src/crt0.o
                0x00464000                __reset

.exceptions     0x00464020      0x1c0
                0x00464020                PROVIDE (__ram_exceptions_start, ABSOLUTE (.))
                0x00464020                . = ALIGN (0x20)
 *(.irq)
 *(.exceptions.entry.label)
 .exceptions.entry.label
                0x00464020        0x0 ../ucos0_bsp//libucosii_bsp.a(alt_irq_entry.o)
                0x00464020                alt_irq_entry
 .exceptions.entry.label
                0x00464020        0x0 ../ucos0_bsp//libucosii_bsp.a(alt_exception_entry.o)
                0x00464020                alt_exception
 *(.exceptions.entry.user)
 *(.exceptions.entry.ecc_fatal)
 *(.exceptions.entry)
 .exceptions.entry
                0x00464020       0x6c ../ucos0_bsp//libucosii_bsp.a(alt_exception_entry.o)
 *(.exceptions.irqtest.user)
 *(.exceptions.irqtest)
 .exceptions.irqtest
                0x0046408c       0x10 ../ucos0_bsp//libucosii_bsp.a(alt_irq_entry.o)
 *(.exceptions.irqhandler.user)
 *(.exceptions.irqhandler)
 .exceptions.irqhandler
                0x0046409c        0x4 ../ucos0_bsp//libucosii_bsp.a(alt_irq_entry.o)
 *(.exceptions.irqreturn.user)
 *(.exceptions.irqreturn)
 .exceptions.irqreturn
                0x004640a0        0x4 ../ucos0_bsp//libucosii_bsp.a(alt_irq_entry.o)
 *(.exceptions.notirq.label)
 .exceptions.notirq.label
                0x004640a4        0x0 ../ucos0_bsp//libucosii_bsp.a(alt_irq_entry.o)
 *(.exceptions.notirq.user)
 *(.exceptions.notirq)
 .exceptions.notirq
                0x004640a4        0x8 ../ucos0_bsp//libucosii_bsp.a(alt_exception_entry.o)
 *(.exceptions.soft.user)
 *(.exceptions.soft)
 *(.exceptions.unknown.user)
 *(.exceptions.unknown)
 .exceptions.unknown
                0x004640ac        0x4 ../ucos0_bsp//libucosii_bsp.a(alt_exception_entry.o)
 *(.exceptions.exit.label)
 .exceptions.exit.label
                0x004640b0        0x0 ../ucos0_bsp//libucosii_bsp.a(alt_irq_entry.o)
 .exceptions.exit.label
                0x004640b0        0x0 ../ucos0_bsp//libucosii_bsp.a(alt_exception_entry.o)
 *(.exceptions.exit.user)
 *(.exceptions.exit)
 .exceptions.exit
                0x004640b0       0x60 ../ucos0_bsp//libucosii_bsp.a(alt_exception_entry.o)
 *(.exceptions)
 .exceptions    0x00464110       0xd0 ../ucos0_bsp//libucosii_bsp.a(alt_irq_handler.o)
                0x00464110                alt_irq_handler
                0x004641e0                PROVIDE (__ram_exceptions_end, ABSOLUTE (.))
                0x00464020                PROVIDE (__flash_exceptions_start, LOADADDR (.exceptions))

.critical       0x04200000     0x1000
                0x04200000                PROVIDE (_alt_partition_critical_start, ABSOLUTE (.))
 *(.critical .critical.*)
 .critical      0x04200000     0x1000 obj/default/hello_ucosii_0.o
                0x04200000                critical_task_stk
                0x04201000                . = ALIGN (0x4)
                0x04201000                PROVIDE (_alt_partition_critical_end, ABSOLUTE (.))

.global         0x04203000        0x0
                0x04203000                PROVIDE (_alt_partition_global_start, ABSOLUTE (.))
 *(.global .global.*)
                0x04203000                . = ALIGN (0x4)
                0x04203000                PROVIDE (_alt_partition_global_end, ABSOLUTE (.))

.text           0x004641e0    0x11de4
                0x004641e0                PROVIDE (stext, ABSOLUTE (.))
 *(.interp)
 *(.hash)
 *(.dynsym)
 *(.dynstr)
 *(.gnu.version)
 *(.gnu.version_d)
 *(.gnu.version_r)
 *(.rel.init)
 *(.rela.init)
 *(.rel.text .rel.text.* .rel.gnu.linkonce.t.*)
 *(.rela.text .rela.text.* .rela.gnu.linkonce.t.*)
 *(.rel.fini)
 *(.rela.fini)
 *(.rel.rodata .rel.rodata.* .rel.gnu.linkonce.r.*)
 *(.rela.rodata .rela.rodata.* .rela.gnu.linkonce.r.*)
 *(.rel.data .rel.data.* .rel.gnu.linkonce.d.*)
 *(.rela.data .rela.data.* .rela.gnu.linkonce.d.*)
 *(.rel.tdata .rel.tdata.* .rel.gnu.linkonce.td.*)
 *(.rela.tdata .rela.tdata.* .rela.gnu.linkonce.td.*)
 *(.rel.tbss .rel.tbss.* .rel.gnu.linkonce.tb.*)
 *(.rela.tbss .rela.tbss.* .rela.gnu.linkonce.tb.*)
 *(.rel.ctors)
 *(.rela.ctors)
 *(.rel.dtors)
 *(.rela.dtors)
 *(.rel.got)
 *(.rela.got)
 *(.rel.sdata .rel.sdata.* .rel.gnu.linkonce.s.*)
 *(.rela.sdata .rela.sdata.* .rela.gnu.linkonce.s.*)
 *(.rel.sbss .rel.sbss.* .rel.gnu.linkonce.sb.*)
 *(.rela.sbss .rela.sbss.* .rela.gnu.linkonce.sb.*)
 *(.rel.sdata2 .rel.sdata2.* .rel.gnu.linkonce.s2.*)
 *(.rela.sdata2 .rela.sdata2.* .rela.gnu.linkonce.s2.*)
 *(.rel.sbss2 .rel.sbss2.* .rel.gnu.linkonce.sb2.*)
 *(.rela.sbss2 .rela.sbss2.* .rela.gnu.linkonce.sb2.*)
 *(.rel.bss .rel.bss.* .rel.gnu.linkonce.b.*)
 *(.rela.bss .rela.bss.* .rela.gnu.linkonce.b.*)
 *(.rel.plt)
 *(.rela.plt)
 *(.rel.dyn)
 *(.init)
 *(.plt)
 *(.text .stub .text.* .gnu.linkonce.t.*)
 .text          0x004641e0       0x3c ../ucos0_bsp//obj/HAL/src/crt0.o
                0x004641e0                _start
 .text          0x0046421c      0x400 obj/default/hello_ucosii_0.o
                0x00464308                preemption_task
                0x0046449c                init_tlb
                0x004644d8                main
 .text          0x0046461c      0x1cc obj/default/tlb.o
                0x0046461c                disable_tlb
                0x00464628                enable_tlb
                0x00464638                reset_tlb
                0x0046469c                tlb_is_on
                0x004646b0                set_enable
                0x004646d8                reset_enable
                0x004646e4                get_enable
                0x004646f0                set_valid
                0x00464718                reset_valid
                0x00464724                get_valid
                0x00464730                set_cputable_entry
                0x00464764                get_cputable_entry
                0x0046478c                set_spmtable_entry
                0x004647c0                get_spmtable_entry
 .text          0x004647e8      0x260 ../critical_library/libcritical_library.a(fingerprint.o)
                0x004647e8                set_task_directory
                0x00464880                enable_fprint_task
                0x004648ac                disable_fprint_task
                0x004648d0                fprint_reset_irq
                0x004648f0                fprint_status
                0x00464940                fprint_set_block_size
                0x00464968                set_core_assignment
                0x004649b4                set_core_assignment_table
 .text          0x00464a48       0x68 ../critical_library/libcritical_library.a(context_switch.o)
                0x00464a48                context_switch
                0x00464a8c                context_restore
 .text          0x00464ab0       0x24 ../critical_library/libcritical_library.a(gp.o)
                0x00464ab0                get_gp
                0x00464abc                set_gp
                0x00464ac8                restore_gp
 .text          0x00464ad4       0x98 /CMC/tools/altera/13.1/nios2eds/bin/gnu/H-i686-pc-linux-gnu/bin/../lib/gcc/nios2-elf/4.7.3/../../../../../H-i686-pc-linux-gnu/nios2-elf/lib/mno-hw-mul/libc.a(lib_a-puts.o)
                0x00464ad4                _puts_r
                0x00464b58                puts
 .text          0x00464b6c       0x8c /CMC/tools/altera/13.1/nios2eds/bin/gnu/H-i686-pc-linux-gnu/bin/../lib/gcc/nios2-elf/4.7.3/../../../../../H-i686-pc-linux-gnu/nios2-elf/lib/mno-hw-mul/libc.a(lib_a-strlen.o)
                0x00464b6c                strlen
 .text          0x00464bf8      0x4e4 /CMC/tools/altera/13.1/nios2eds/bin/gnu/H-i686-pc-linux-gnu/bin/../lib/gcc/nios2-elf/4.7.3/../../../../../H-i686-pc-linux-gnu/nios2-elf/lib/mno-hw-mul/libc.a(lib_a-fvwrite.o)
                0x00464bf8                __sfvwrite_r
 .text          0x004650dc        0x0 /CMC/tools/altera/13.1/nios2eds/bin/gnu/H-i686-pc-linux-gnu/bin/../lib/gcc/nios2-elf/4.7.3/../../../../../H-i686-pc-linux-gnu/nios2-elf/lib/mno-hw-mul/libc.a(lib_a-impure.o)
 .text          0x004650dc      0x784 /CMC/tools/altera/13.1/nios2eds/bin/gnu/H-i686-pc-linux-gnu/bin/../lib/gcc/nios2-elf/4.7.3/../../../../../H-i686-pc-linux-gnu/nios2-elf/lib/mno-hw-mul/libc.a(lib_a-mallocr.o)
                0x004650dc                _malloc_r
 .text          0x00465860       0xf8 /CMC/tools/altera/13.1/nios2eds/bin/gnu/H-i686-pc-linux-gnu/bin/../lib/gcc/nios2-elf/4.7.3/../../../../../H-i686-pc-linux-gnu/nios2-elf/lib/mno-hw-mul/libc.a(lib_a-memchr.o)
                0x00465860                memchr
 .text          0x00465958      0x140 /CMC/tools/altera/13.1/nios2eds/bin/gnu/H-i686-pc-linux-gnu/bin/../lib/gcc/nios2-elf/4.7.3/../../../../../H-i686-pc-linux-gnu/nios2-elf/lib/mno-hw-mul/libc.a(lib_a-memcpy.o)
                0x00465958                memcpy
 .text          0x00465a98      0x18c /CMC/tools/altera/13.1/nios2eds/bin/gnu/H-i686-pc-linux-gnu/bin/../lib/gcc/nios2-elf/4.7.3/../../../../../H-i686-pc-linux-gnu/nios2-elf/lib/mno-hw-mul/libc.a(lib_a-memmove.o)
                0x00465a98                memmove
 .text          0x00465c24      0x5fc /CMC/tools/altera/13.1/nios2eds/bin/gnu/H-i686-pc-linux-gnu/bin/../lib/gcc/nios2-elf/4.7.3/../../../../../H-i686-pc-linux-gnu/nios2-elf/lib/mno-hw-mul/libc.a(lib_a-reallocr.o)
                0x00465c24                _realloc_r
 .text          0x00466220       0x64 /CMC/tools/altera/13.1/nios2eds/bin/gnu/H-i686-pc-linux-gnu/bin/../lib/gcc/nios2-elf/4.7.3/../../../../../H-i686-pc-linux-gnu/nios2-elf/lib/mno-hw-mul/libc.a(lib_a-sbrkr.o)
                0x00466220                _sbrk_r
 .text          0x00466284      0x174 /CMC/tools/altera/13.1/nios2eds/bin/gnu/H-i686-pc-linux-gnu/bin/../lib/gcc/nios2-elf/4.7.3/../../../../../H-i686-pc-linux-gnu/nios2-elf/lib/mno-hw-mul/libc.a(lib_a-wsetup.o)
                0x00466284                __swsetup_r
 .text          0x004663f8      0x218 /CMC/tools/altera/13.1/nios2eds/bin/gnu/H-i686-pc-linux-gnu/bin/../lib/gcc/nios2-elf/4.7.3/../../../../../H-i686-pc-linux-gnu/nios2-elf/lib/mno-hw-mul/libc.a(lib_a-fflush.o)
                0x004663f8                _fflush_r
                0x004665e0                fflush
 .text          0x00466610      0x2ec /CMC/tools/altera/13.1/nios2eds/bin/gnu/H-i686-pc-linux-gnu/bin/../lib/gcc/nios2-elf/4.7.3/../../../../../H-i686-pc-linux-gnu/nios2-elf/lib/mno-hw-mul/libc.a(lib_a-findfp.o)
                0x00466620                _cleanup_r
                0x0046662c                __sfmoreglue
                0x004666a4                _cleanup
                0x004666b4                __sinit
                0x004667c0                __sfp
                0x004668bc                __sfp_lock_acquire
                0x004668c0                __sfp_lock_release
                0x004668c4                __sinit_lock_acquire
                0x004668c8                __sinit_lock_release
                0x004668cc                __fp_lock_all
                0x004668e4                __fp_unlock_all
 .text          0x004668fc      0x40c /CMC/tools/altera/13.1/nios2eds/bin/gnu/H-i686-pc-linux-gnu/bin/../lib/gcc/nios2-elf/4.7.3/../../../../../H-i686-pc-linux-gnu/nios2-elf/lib/mno-hw-mul/libc.a(lib_a-freer.o)
                0x004668fc                _malloc_trim_r
                0x00466a38                _free_r
 .text          0x00466d08      0x160 /CMC/tools/altera/13.1/nios2eds/bin/gnu/H-i686-pc-linux-gnu/bin/../lib/gcc/nios2-elf/4.7.3/../../../../../H-i686-pc-linux-gnu/nios2-elf/lib/mno-hw-mul/libc.a(lib_a-fwalk.o)
                0x00466d08                _fwalk
                0x00466db0                _fwalk_reent
 .text          0x00466e68        0x0 /CMC/tools/altera/13.1/nios2eds/bin/gnu/H-i686-pc-linux-gnu/bin/../lib/gcc/nios2-elf/4.7.3/../../../../../H-i686-pc-linux-gnu/nios2-elf/lib/mno-hw-mul/libc.a(lib_a-int_errno.o)
 .text          0x00466e68      0x1a8 /CMC/tools/altera/13.1/nios2eds/bin/gnu/H-i686-pc-linux-gnu/bin/../lib/gcc/nios2-elf/4.7.3/../../../../../H-i686-pc-linux-gnu/nios2-elf/lib/mno-hw-mul/libc.a(lib_a-makebuf.o)
                0x00466e68                __smakebuf_r
 .text          0x00467010       0xdc /CMC/tools/altera/13.1/nios2eds/bin/gnu/H-i686-pc-linux-gnu/bin/../lib/gcc/nios2-elf/4.7.3/../../../../../H-i686-pc-linux-gnu/nios2-elf/lib/mno-hw-mul/libc.a(lib_a-memset.o)
                0x00467010                memset
 .text          0x004670ec      0x140 /CMC/tools/altera/13.1/nios2eds/bin/gnu/H-i686-pc-linux-gnu/bin/../lib/gcc/nios2-elf/4.7.3/../../../../../H-i686-pc-linux-gnu/nios2-elf/lib/mno-hw-mul/libc.a(lib_a-stdio.o)
                0x004670ec                __sread
                0x00467140                __swrite
                0x004671c8                __sseek
                0x00467224                __sclose
 .text          0x0046722c       0x6c /CMC/tools/altera/13.1/nios2eds/bin/gnu/H-i686-pc-linux-gnu/bin/../lib/gcc/nios2-elf/4.7.3/../../../../../H-i686-pc-linux-gnu/nios2-elf/lib/mno-hw-mul/libc.a(lib_a-writer.o)
                0x0046722c                _write_r
 .text          0x00467298       0x64 /CMC/tools/altera/13.1/nios2eds/bin/gnu/H-i686-pc-linux-gnu/bin/../lib/gcc/nios2-elf/4.7.3/../../../../../H-i686-pc-linux-gnu/nios2-elf/lib/mno-hw-mul/libc.a(lib_a-closer.o)
                0x00467298                _close_r
 .text          0x004672fc      0x150 /CMC/tools/altera/13.1/nios2eds/bin/gnu/H-i686-pc-linux-gnu/bin/../lib/gcc/nios2-elf/4.7.3/../../../../../H-i686-pc-linux-gnu/nios2-elf/lib/mno-hw-mul/libc.a(lib_a-fclose.o)
                0x004672fc                _fclose_r
                0x00467438                fclose
 .text          0x0046744c       0x68 /CMC/tools/altera/13.1/nios2eds/bin/gnu/H-i686-pc-linux-gnu/bin/../lib/gcc/nios2-elf/4.7.3/../../../../../H-i686-pc-linux-gnu/nios2-elf/lib/mno-hw-mul/libc.a(lib_a-fstatr.o)
                0x0046744c                _fstat_r
 .text          0x004674b4       0x64 /CMC/tools/altera/13.1/nios2eds/bin/gnu/H-i686-pc-linux-gnu/bin/../lib/gcc/nios2-elf/4.7.3/../../../../../H-i686-pc-linux-gnu/nios2-elf/lib/mno-hw-mul/libc.a(lib_a-isattyr.o)
                0x004674b4                _isatty_r
 .text          0x00467518       0x6c /CMC/tools/altera/13.1/nios2eds/bin/gnu/H-i686-pc-linux-gnu/bin/../lib/gcc/nios2-elf/4.7.3/../../../../../H-i686-pc-linux-gnu/nios2-elf/lib/mno-hw-mul/libc.a(lib_a-lseekr.o)
                0x00467518                _lseek_r
 .text          0x00467584       0x6c /CMC/tools/altera/13.1/nios2eds/bin/gnu/H-i686-pc-linux-gnu/bin/../lib/gcc/nios2-elf/4.7.3/../../../../../H-i686-pc-linux-gnu/nios2-elf/lib/mno-hw-mul/libc.a(lib_a-readr.o)
                0x00467584                _read_r
 .text          0x004675f0       0x28 /CMC/tools/altera/13.1/nios2eds/bin/gnu/H-i686-pc-linux-gnu/bin/../lib/gcc/nios2-elf/4.7.3/mno-hw-mul/libgcc.a(lib2-mul.o)
                0x004675f0                __mulsi3
 .text          0x00467618      0x11c ../ucos0_bsp//libucosii_bsp.a(alt_close.o)
                0x00467668                close
 .text          0x00467734       0x2c ../ucos0_bsp//libucosii_bsp.a(alt_dev.o)
 .text          0x00467760        0x0 ../ucos0_bsp//libucosii_bsp.a(alt_errno.o)
 .text          0x00467760      0x100 ../ucos0_bsp//libucosii_bsp.a(alt_fstat.o)
                0x004677b0                fstat
 .text          0x00467860      0x230 ../ucos0_bsp//libucosii_bsp.a(alt_iic.o)
                0x00467860                alt_ic_isr_register
                0x004678b0                alt_ic_irq_enable
                0x00467978                alt_ic_irq_disable
                0x00467a44                alt_ic_irq_enabled
 .text          0x00467a90      0x11c ../ucos0_bsp//libucosii_bsp.a(alt_iic_isr_register.o)
                0x00467a90                alt_iic_isr_register
 .text          0x00467bac        0x0 ../ucos0_bsp//libucosii_bsp.a(alt_irq_entry.o)
 .text          0x00467bac        0x0 ../ucos0_bsp//libucosii_bsp.a(alt_irq_handler.o)
 .text          0x00467bac        0x0 ../ucos0_bsp//libucosii_bsp.a(alt_irq_vars.o)
 .text          0x00467bac       0xf4 ../ucos0_bsp//libucosii_bsp.a(alt_isatty.o)
                0x00467bfc                isatty
 .text          0x00467ca0       0xec ../ucos0_bsp//libucosii_bsp.a(alt_load.o)
                0x00467d0c                alt_load
 .text          0x00467d8c      0x124 ../ucos0_bsp//libucosii_bsp.a(alt_lseek.o)
                0x00467ddc                lseek
 .text          0x00467eb0       0xcc ../ucos0_bsp//libucosii_bsp.a(alt_main.o)
                0x00467eb0                alt_main
 .text          0x00467f7c      0x144 ../ucos0_bsp//libucosii_bsp.a(alt_read.o)
                0x00467fcc                read
 .text          0x004680c0       0x80 ../ucos0_bsp//libucosii_bsp.a(alt_release_fd.o)
                0x004680c0                alt_release_fd
 .text          0x00468140      0x108 ../ucos0_bsp//libucosii_bsp.a(alt_sbrk.o)
                0x00468140                sbrk
 .text          0x00468248      0x140 ../ucos0_bsp//libucosii_bsp.a(alt_write.o)
                0x00468298                write
 .text          0x00468388      0x118 ../ucos0_bsp//libucosii_bsp.a(alt_env_lock.o)
                0x00468388                __env_lock
                0x00468440                __env_unlock
 .text          0x004684a0      0x2c4 ../ucos0_bsp//libucosii_bsp.a(alt_malloc_lock.o)
                0x004684a0                __malloc_lock
                0x0046860c                __malloc_unlock
 .text          0x00468764     0x250c ../ucos0_bsp//libucosii_bsp.a(os_core.o)
                0x00468764                OSEventNameGet
                0x004688b0                OSEventNameSet
                0x00468a4c                OSEventPendMulti
                0x00469164                OSInit
                0x004691b8                OSIntEnter
                0x00469260                OSIntExit
                0x0046941c                OSSchedLock
                0x004694d0                OSSchedUnlock
                0x00469658                OSStart
                0x004696c4                OSStatInit
                0x004697c8                OSTimeTick
                0x00469a40                OSVersion
                0x00469a60                OS_Dummy
                0x00469a7c                OS_EventTaskRdy
                0x00469c14                OS_EventTaskWait
                0x00469d1c                OS_EventTaskWaitMulti
                0x00469e64                OS_EventTaskRemove
                0x00469f14                OS_EventTaskRemoveMulti
                0x0046a00c                OS_EventWaitListInit
                0x0046a3d8                OS_MemClr
                0x0046a42c                OS_MemCopy
                0x0046a498                OS_Sched
                0x0046a600                OS_StrCopy
                0x0046a67c                OS_StrLen
                0x0046a6d0                OS_TaskIdle
                0x0046a758                OS_TaskStat
                0x0046a84c                OS_TaskStatStkChk
                0x0046a914                OS_TCBInit
 .text          0x0046ac70      0x18c ../ucos0_bsp//libucosii_bsp.a(os_dbg.o)
                0x0046ac70                OSDebugInit
 .text          0x0046adfc     0x1e0c ../ucos0_bsp//libucosii_bsp.a(os_flag.o)
                0x0046adfc                OSFlagAccept
                0x0046b1e0                OSFlagCreate
                0x0046b360                OSFlagDel
                0x0046b680                OSFlagNameGet
                0x0046b808                OSFlagNameSet
                0x0046b9e0                OSFlagPend
                0x0046c1f0                OSFlagPendGetFlagsRdy
                0x0046c284                OSFlagPost
                0x0046c6c8                OSFlagQuery
                0x0046c978                OS_FlagInit
                0x0046cb68                OS_FlagUnlink
 .text          0x0046cc08      0x91c ../ucos0_bsp//libucosii_bsp.a(os_mem.o)
                0x0046cc08                OSMemCreate
                0x0046ce28                OSMemGet
                0x0046cf70                OSMemNameGet
                0x0046d094                OSMemNameSet
                0x0046d208                OSMemPut
                0x0046d338                OSMemQuery
                0x0046d44c                OS_MemInit
 .text          0x0046d524     0x1644 ../ucos0_bsp//libucosii_bsp.a(os_q.o)
                0x0046d524                OSQAccept
                0x0046d690                OSQCreate
                0x0046d90c                OSQDel
                0x0046dc8c                OSQFlush
                0x0046dd70                OSQPend
                0x0046e0f0                OSQPendAbort
                0x0046e2bc                OSQPost
                0x0046e4a8                OSQPostFront
                0x0046e69c                OSQPostOpt
                0x0046e92c                OSQQuery
                0x0046eabc                OS_QInit
 .text          0x0046eb68      0xde8 ../ucos0_bsp//libucosii_bsp.a(os_sem.o)
                0x0046eb68                OSSemAccept
                0x0046ec44                OSSemCreate
                0x0046ed70                OSSemDel
                0x0046f090                OSSemPend
                0x0046f380                OSSemPendAbort
                0x0046f54c                OSSemPost
                0x0046f6e0                OSSemQuery
                0x0046f824                OSSemSet
 .text          0x0046f950     0x2050 ../ucos0_bsp//libucosii_bsp.a(os_task.o)
                0x0046f950                OSTaskChangePrio
                0x0046ff28                OSTaskCreate
                0x00470194                OSTaskCreateExt
                0x00470438                OSTaskDel
                0x004708c4                OSTaskDelReq
                0x00470acc                OSTaskNameGet
                0x00470cf8                OSTaskNameSet
                0x00470f6c                OSTaskResume
                0x00471268                OSTaskStkChk
                0x004714ec                OSTaskSuspend
                0x00471780                OSTaskQuery
                0x00471930                OS_TaskStkClr
 .text          0x004719a0      0x7a0 ../ucos0_bsp//libucosii_bsp.a(os_time.o)
                0x004719a0                OSTimeDly
                0x00471b14                OSTimeDlyHMSM
                0x00471d58                OSTimeDlyResume
                0x00472020                OSTimeGet
                0x004720b0                OSTimeSet
 .text          0x00472140      0x1f0 ../ucos0_bsp//libucosii_bsp.a(alt_sys_init.o)
                0x0047226c                alt_irq_init
                0x004722a0                alt_sys_init
 .text          0x00472330      0x164 ../ucos0_bsp//libucosii_bsp.a(altera_avalon_jtag_uart_fd.o)
                0x00472330                altera_avalon_jtag_uart_read_fd
                0x00472390                altera_avalon_jtag_uart_write_fd
                0x004723f0                altera_avalon_jtag_uart_close_fd
                0x00472440                altera_avalon_jtag_uart_ioctl_fd
 .text          0x00472494      0x55c ../ucos0_bsp//libucosii_bsp.a(altera_avalon_jtag_uart_init.o)
                0x00472494                altera_avalon_jtag_uart_init
                0x00472988                altera_avalon_jtag_uart_close
 .text          0x004729f0       0xf4 ../ucos0_bsp//libucosii_bsp.a(altera_avalon_jtag_uart_ioctl.o)
                0x004729f0                altera_avalon_jtag_uart_ioctl
 .text          0x00472ae4      0x2f0 ../ucos0_bsp//libucosii_bsp.a(altera_avalon_jtag_uart_read.o)
                0x00472ae4                altera_avalon_jtag_uart_read
 .text          0x00472dd4      0x2fc ../ucos0_bsp//libucosii_bsp.a(altera_avalon_jtag_uart_write.o)
                0x00472dd4                altera_avalon_jtag_uart_write
 .text          0x004730d0      0x354 ../ucos0_bsp//libucosii_bsp.a(altera_avalon_mutex.o)
                0x0047319c                altera_avalon_mutex_open
                0x004731ec                altera_avalon_mutex_close
                0x00473210                altera_avalon_mutex_lock
                0x00473278                altera_avalon_mutex_trylock
                0x004732f8                altera_avalon_mutex_unlock
                0x00473360                altera_avalon_mutex_is_mine
                0x004733d4                altera_avalon_mutex_first_lock
 .text          0x00473424      0x128 ../ucos0_bsp//libucosii_bsp.a(altera_avalon_timer_sc.o)
                0x004734c4                alt_avalon_timer_sc_init
 .text          0x0047354c      0x270 ../ucos0_bsp//libucosii_bsp.a(altera_avalon_timer_ts.o)
                0x0047354c                alt_timestamp_start
                0x004735f4                alt_timestamp
                0x00473794                alt_timestamp_freq
 .text          0x004737bc        0x0 ../ucos0_bsp//libucosii_bsp.a(altera_avalon_timer_vars.o)
 .text          0x004737bc      0x16c ../ucos0_bsp//libucosii_bsp.a(alt_alarm_start.o)
                0x004737bc                alt_alarm_start
 .text          0x00473928       0x1c ../ucos0_bsp//libucosii_bsp.a(alt_dcache_flush_all.o)
                0x00473928                alt_dcache_flush_all
 .text          0x00473944       0xf0 ../ucos0_bsp//libucosii_bsp.a(alt_dev_llist_insert.o)
                0x00473994                alt_dev_llist_insert
 .text          0x00473a34       0x5c ../ucos0_bsp//libucosii_bsp.a(alt_do_ctors.o)
                0x00473a34                _do_ctors
 .text          0x00473a90       0x5c ../ucos0_bsp//libucosii_bsp.a(alt_do_dtors.o)
                0x00473a90                _do_dtors
 .text          0x00473aec        0x0 ../ucos0_bsp//libucosii_bsp.a(alt_exception_entry.o)
 .text          0x00473aec       0x90 ../ucos0_bsp//libucosii_bsp.a(alt_find_dev.o)
                0x00473aec                alt_find_dev
 .text          0x00473b7c       0x30 ../ucos0_bsp//libucosii_bsp.a(alt_icache_flush_all.o)
                0x00473b7c                alt_icache_flush_all
 .text          0x00473bac      0x158 ../ucos0_bsp//libucosii_bsp.a(alt_io_redirect.o)
                0x00473c8c                alt_io_redirect
 .text          0x00473d04      0x298 ../ucos0_bsp//libucosii_bsp.a(alt_open.o)
                0x00473e44                open
 .text          0x00473f9c      0x1c8 ../ucos0_bsp//libucosii_bsp.a(alt_tick.o)
                0x00473f9c                alt_alarm_stop
                0x00474060                alt_tick
 .text          0x00474164       0x20 ../ucos0_bsp//libucosii_bsp.a(altera_nios2_qsys_irq.o)
                0x00474164                altera_nios2_qsys_irq_init
 .text          0x00474184       0xd0 ../ucos0_bsp//libucosii_bsp.a(os_cpu_a.o)
                0x00474184                OSCtxSw
                0x00474184                OSIntCtxSw
                0x00474210                OSStartHighRdy
                0x00474230                OSStartTsk
 .text          0x00474254      0x3fc ../ucos0_bsp//libucosii_bsp.a(os_cpu_c.o)
                0x00474254                OSTaskStkInit
                0x00474548                OSTaskCreateHook
                0x00474568                OSTaskDelHook
                0x00474588                OSTaskSwHook
                0x004745a4                OSTaskStatHook
                0x004745c0                OSTimeTickHook
                0x004745dc                OSInitHookBegin
                0x004745f8                OSInitHookEnd
                0x00474614                OSTaskIdleHook
                0x00474630                OSTCBInitHook
 .text          0x00474650      0x114 ../ucos0_bsp//libucosii_bsp.a(alt_find_file.o)
                0x00474650                alt_find_file
 .text          0x00474764      0x114 ../ucos0_bsp//libucosii_bsp.a(alt_get_fd.o)
                0x00474764                alt_get_fd
 .text          0x00474878       0x8c ../ucos0_bsp//libucosii_bsp.a(alt_icache_flush.o)
                0x00474878                alt_icache_flush
 .text          0x00474904       0x14 /CMC/tools/altera/13.1/nios2eds/bin/gnu/H-i686-pc-linux-gnu/bin/../lib/gcc/nios2-elf/4.7.3/../../../../../H-i686-pc-linux-gnu/nios2-elf/lib/mno-hw-mul/libc.a(lib_a-atexit.o)
                0x00474904                atexit
 .text          0x00474918       0x38 /CMC/tools/altera/13.1/nios2eds/bin/gnu/H-i686-pc-linux-gnu/bin/../lib/gcc/nios2-elf/4.7.3/../../../../../H-i686-pc-linux-gnu/nios2-elf/lib/mno-hw-mul/libc.a(lib_a-exit.o)
                0x00474918                exit
 .text          0x00474950       0x7c /CMC/tools/altera/13.1/nios2eds/bin/gnu/H-i686-pc-linux-gnu/bin/../lib/gcc/nios2-elf/4.7.3/../../../../../H-i686-pc-linux-gnu/nios2-elf/lib/mno-hw-mul/libc.a(lib_a-memcmp.o)
                0x00474950                memcmp
 .text          0x004749cc      0x130 /CMC/tools/altera/13.1/nios2eds/bin/gnu/H-i686-pc-linux-gnu/bin/../lib/gcc/nios2-elf/4.7.3/../../../../../H-i686-pc-linux-gnu/nios2-elf/lib/mno-hw-mul/libc.a(lib_a-__atexit.o)
                0x004749cc                __register_exitproc
 .text          0x00474afc      0x1a0 /CMC/tools/altera/13.1/nios2eds/bin/gnu/H-i686-pc-linux-gnu/bin/../lib/gcc/nios2-elf/4.7.3/../../../../../H-i686-pc-linux-gnu/nios2-elf/lib/mno-hw-mul/libc.a(lib_a-__call_atexit.o)
                0x00474afc                __call_exitprocs
 .text          0x00474c9c       0x84 /CMC/tools/altera/13.1/nios2eds/bin/gnu/H-i686-pc-linux-gnu/bin/../lib/gcc/nios2-elf/4.7.3/mno-hw-mul/libgcc.a(_fixunsdfsi.o)
                0x00474c9c                __fixunsdfsi
 .text          0x00474d20      0x408 /CMC/tools/altera/13.1/nios2eds/bin/gnu/H-i686-pc-linux-gnu/bin/../lib/gcc/nios2-elf/4.7.3/mno-hw-mul/libgcc.a(_addsub_df.o)
                0x00475074                __adddf3
                0x004750c8                __subdf3
 .text          0x00475128      0x2e4 /CMC/tools/altera/13.1/nios2eds/bin/gnu/H-i686-pc-linux-gnu/bin/../lib/gcc/nios2-elf/4.7.3/mno-hw-mul/libgcc.a(_mul_df.o)
                0x00475128                __muldf3
 .text          0x0047540c      0x1b4 /CMC/tools/altera/13.1/nios2eds/bin/gnu/H-i686-pc-linux-gnu/bin/../lib/gcc/nios2-elf/4.7.3/mno-hw-mul/libgcc.a(_div_df.o)
                0x0047540c                __divdf3
 .text          0x004755c0       0x64 /CMC/tools/altera/13.1/nios2eds/bin/gnu/H-i686-pc-linux-gnu/bin/../lib/gcc/nios2-elf/4.7.3/mno-hw-mul/libgcc.a(_ge_df.o)
                0x004755c0                __gedf2
 .text          0x00475624       0xd4 /CMC/tools/altera/13.1/nios2eds/bin/gnu/H-i686-pc-linux-gnu/bin/../lib/gcc/nios2-elf/4.7.3/mno-hw-mul/libgcc.a(_df_to_si.o)
                0x00475624                __fixdfsi
 .text          0x004756f8        0x0 /CMC/tools/altera/13.1/nios2eds/bin/gnu/H-i686-pc-linux-gnu/bin/../lib/gcc/nios2-elf/4.7.3/mno-hw-mul/libgcc.a(_thenan_df.o)
 .text          0x004756f8      0x11c /CMC/tools/altera/13.1/nios2eds/bin/gnu/H-i686-pc-linux-gnu/bin/../lib/gcc/nios2-elf/4.7.3/mno-hw-mul/libgcc.a(_usi_to_df.o)
                0x004756f8                __floatunsidf
 .text          0x00475814      0x130 /CMC/tools/altera/13.1/nios2eds/bin/gnu/H-i686-pc-linux-gnu/bin/../lib/gcc/nios2-elf/4.7.3/mno-hw-mul/libgcc.a(lib2-divmod.o)
                0x00475888                __divsi3
                0x004758d8                __modsi3
                0x00475934                __udivsi3
                0x0047593c                __umodsi3
 .text          0x00475944      0x110 /CMC/tools/altera/13.1/nios2eds/bin/gnu/H-i686-pc-linux-gnu/bin/../lib/gcc/nios2-elf/4.7.3/mno-hw-mul/libgcc.a(_muldi3.o)
                0x00475944                __muldi3
 .text          0x00475a54       0xac /CMC/tools/altera/13.1/nios2eds/bin/gnu/H-i686-pc-linux-gnu/bin/../lib/gcc/nios2-elf/4.7.3/mno-hw-mul/libgcc.a(_clzsi2.o)
                0x00475a54                __clzsi2
 .text          0x00475b00      0x224 /CMC/tools/altera/13.1/nios2eds/bin/gnu/H-i686-pc-linux-gnu/bin/../lib/gcc/nios2-elf/4.7.3/mno-hw-mul/libgcc.a(_pack_df.o)
                0x00475b00                __pack_d
 .text          0x00475d24      0x104 /CMC/tools/altera/13.1/nios2eds/bin/gnu/H-i686-pc-linux-gnu/bin/../lib/gcc/nios2-elf/4.7.3/mno-hw-mul/libgcc.a(_unpack_df.o)
                0x00475d24                __unpack_d
 .text          0x00475e28       0xd0 /CMC/tools/altera/13.1/nios2eds/bin/gnu/H-i686-pc-linux-gnu/bin/../lib/gcc/nios2-elf/4.7.3/mno-hw-mul/libgcc.a(_fpcmp_parts_df.o)
                0x00475e28                __fpcmp_parts_d
 .text          0x00475ef8       0x44 /CMC/tools/altera/13.1/nios2eds/bin/gnu/H-i686-pc-linux-gnu/bin/../lib/gcc/nios2-elf/4.7.3/mno-hw-mul/libgcc.a(_lshrdi3.o)
                0x00475ef8                __lshrdi3
 .text          0x00475f3c       0x44 /CMC/tools/altera/13.1/nios2eds/bin/gnu/H-i686-pc-linux-gnu/bin/../lib/gcc/nios2-elf/4.7.3/mno-hw-mul/libgcc.a(_ashldi3.o)
                0x00475f3c                __ashldi3
 .text          0x00475f80        0x0 /CMC/tools/altera/13.1/nios2eds/bin/gnu/H-i686-pc-linux-gnu/bin/../lib/gcc/nios2-elf/4.7.3/mno-hw-mul/libgcc.a(_clz.o)
 .text          0x00475f80       0x44 ../ucos0_bsp//libucosii_bsp.a(alt_exit.o)
                0x00475f80                _exit
 *(.gnu.warning.*)
 *(.fini)
                0x00475fc4                PROVIDE (__etext, ABSOLUTE (.))
                0x00475fc4                PROVIDE (_etext, ABSOLUTE (.))
                0x00475fc4                PROVIDE (etext, ABSOLUTE (.))
 *(.eh_frame_hdr)
                0x00475fc4                . = ALIGN (0x4)
                0x00475fc4                PROVIDE (__preinit_array_start, ABSOLUTE (.))
 *(.preinit_array)
                0x00475fc4                PROVIDE (__preinit_array_end, ABSOLUTE (.))
                0x00475fc4                PROVIDE (__init_array_start, ABSOLUTE (.))
 *(.init_array)
                0x00475fc4                PROVIDE (__init_array_end, ABSOLUTE (.))
                0x00475fc4                PROVIDE (__fini_array_start, ABSOLUTE (.))
 *(.fini_array)
                0x00475fc4                PROVIDE (__fini_array_end, ABSOLUTE (.))
 *(.eh_frame)
 *(.gcc_except_table .gcc_except_table.*)
 *(.dynamic)
                0x00475fc4                PROVIDE (__CTOR_LIST__, ABSOLUTE (.))
 *(.ctors)
 *(SORT(.ctors.*))
                0x00475fc4                PROVIDE (__CTOR_END__, ABSOLUTE (.))
                0x00475fc4                PROVIDE (__DTOR_LIST__, ABSOLUTE (.))
 *(.dtors)
 *(SORT(.dtors.*))
                0x00475fc4                PROVIDE (__DTOR_END__, ABSOLUTE (.))
 *(.jcr)
                0x00475fc4                . = ALIGN (0x4)

.rodata         0x00475fc4      0x2d8
                0x00475fc4                PROVIDE (__ram_rodata_start, ABSOLUTE (.))
                0x00475fc4                . = ALIGN (0x4)
 *(.rodata .rodata.* .gnu.linkonce.r.*)
 .rodata        0x00475fc4       0x44 obj/default/hello_ucosii_0.o
 .rodata.str1.4
                0x00476008        0x2 /CMC/tools/altera/13.1/nios2eds/bin/gnu/H-i686-pc-linux-gnu/bin/../lib/gcc/nios2-elf/4.7.3/../../../../../H-i686-pc-linux-gnu/nios2-elf/lib/mno-hw-mul/libc.a(lib_a-puts.o)
                                  0x4 (size before relaxing)
 *fill*         0x0047600a        0x2 
 .rodata.str1.4
                0x0047600c        0x4 /CMC/tools/altera/13.1/nios2eds/bin/gnu/H-i686-pc-linux-gnu/bin/../lib/gcc/nios2-elf/4.7.3/../../../../../H-i686-pc-linux-gnu/nios2-elf/lib/mno-hw-mul/libc.a(lib_a-impure.o)
 .rodata        0x00476010        0xc ../ucos0_bsp//libucosii_bsp.a(alt_dev.o)
 .rodata        0x0047601c       0x1c ../ucos0_bsp//libucosii_bsp.a(alt_main.o)
 .rodata        0x00476038      0x120 ../ucos0_bsp//libucosii_bsp.a(os_core.o)
                0x00476038                OSUnMapTbl
 .rodata        0x00476158       0x2c ../ucos0_bsp//libucosii_bsp.a(alt_sys_init.o)
 .rodata        0x00476184        0x4 ../ucos0_bsp//libucosii_bsp.a(os_cpu_c.o)
 .rodata        0x00476188       0x14 /CMC/tools/altera/13.1/nios2eds/bin/gnu/H-i686-pc-linux-gnu/bin/../lib/gcc/nios2-elf/4.7.3/mno-hw-mul/libgcc.a(_thenan_df.o)
                0x00476188                __thenan_df
 .rodata        0x0047619c      0x100 /CMC/tools/altera/13.1/nios2eds/bin/gnu/H-i686-pc-linux-gnu/bin/../lib/gcc/nios2-elf/4.7.3/mno-hw-mul/libgcc.a(_clz.o)
                0x0047619c                __clz_tab
 *(.rodata1)
                0x0047629c                . = ALIGN (0x4)
                0x0047629c                PROVIDE (__ram_rodata_end, ABSOLUTE (.))
                0x00475fc4                PROVIDE (__flash_rodata_start, LOADADDR (.rodata))

.rwdata         0x0047629c     0x1b04 load address 0x00477da0
                0x0047629c                PROVIDE (__ram_rwdata_start, ABSOLUTE (.))
                0x0047629c                . = ALIGN (0x4)
 *(.got.plt)
 *(.got)
 *(.data1)
 *(.data .data.* .gnu.linkonce.d.*)
 .data          0x0047629c        0x0 ../ucos0_bsp//obj/HAL/src/crt0.o
 .data          0x0047629c        0x0 obj/default/hello_ucosii_0.o
 .data          0x0047629c        0x0 obj/default/tlb.o
 .data          0x0047629c        0x0 ../critical_library/libcritical_library.a(fingerprint.o)
 .data          0x0047629c        0x0 ../critical_library/libcritical_library.a(context_switch.o)
 .data          0x0047629c        0x0 ../critical_library/libcritical_library.a(gp.o)
 .data          0x0047629c        0x0 /CMC/tools/altera/13.1/nios2eds/bin/gnu/H-i686-pc-linux-gnu/bin/../lib/gcc/nios2-elf/4.7.3/../../../../../H-i686-pc-linux-gnu/nios2-elf/lib/mno-hw-mul/libc.a(lib_a-puts.o)
 .data          0x0047629c        0x0 /CMC/tools/altera/13.1/nios2eds/bin/gnu/H-i686-pc-linux-gnu/bin/../lib/gcc/nios2-elf/4.7.3/../../../../../H-i686-pc-linux-gnu/nios2-elf/lib/mno-hw-mul/libc.a(lib_a-strlen.o)
 .data          0x0047629c        0x0 /CMC/tools/altera/13.1/nios2eds/bin/gnu/H-i686-pc-linux-gnu/bin/../lib/gcc/nios2-elf/4.7.3/../../../../../H-i686-pc-linux-gnu/nios2-elf/lib/mno-hw-mul/libc.a(lib_a-fvwrite.o)
 .data          0x0047629c      0x400 /CMC/tools/altera/13.1/nios2eds/bin/gnu/H-i686-pc-linux-gnu/bin/../lib/gcc/nios2-elf/4.7.3/../../../../../H-i686-pc-linux-gnu/nios2-elf/lib/mno-hw-mul/libc.a(lib_a-impure.o)
 .data          0x0047669c      0x408 /CMC/tools/altera/13.1/nios2eds/bin/gnu/H-i686-pc-linux-gnu/bin/../lib/gcc/nios2-elf/4.7.3/../../../../../H-i686-pc-linux-gnu/nios2-elf/lib/mno-hw-mul/libc.a(lib_a-mallocr.o)
                0x0047669c                __malloc_av_
 .data          0x00476aa4        0x0 /CMC/tools/altera/13.1/nios2eds/bin/gnu/H-i686-pc-linux-gnu/bin/../lib/gcc/nios2-elf/4.7.3/../../../../../H-i686-pc-linux-gnu/nios2-elf/lib/mno-hw-mul/libc.a(lib_a-memchr.o)
 .data          0x00476aa4        0x0 /CMC/tools/altera/13.1/nios2eds/bin/gnu/H-i686-pc-linux-gnu/bin/../lib/gcc/nios2-elf/4.7.3/../../../../../H-i686-pc-linux-gnu/nios2-elf/lib/mno-hw-mul/libc.a(lib_a-memcpy.o)
 .data          0x00476aa4        0x0 /CMC/tools/altera/13.1/nios2eds/bin/gnu/H-i686-pc-linux-gnu/bin/../lib/gcc/nios2-elf/4.7.3/../../../../../H-i686-pc-linux-gnu/nios2-elf/lib/mno-hw-mul/libc.a(lib_a-memmove.o)
 .data          0x00476aa4        0x0 /CMC/tools/altera/13.1/nios2eds/bin/gnu/H-i686-pc-linux-gnu/bin/../lib/gcc/nios2-elf/4.7.3/../../../../../H-i686-pc-linux-gnu/nios2-elf/lib/mno-hw-mul/libc.a(lib_a-reallocr.o)
 .data          0x00476aa4        0x0 /CMC/tools/altera/13.1/nios2eds/bin/gnu/H-i686-pc-linux-gnu/bin/../lib/gcc/nios2-elf/4.7.3/../../../../../H-i686-pc-linux-gnu/nios2-elf/lib/mno-hw-mul/libc.a(lib_a-sbrkr.o)
 .data          0x00476aa4        0x0 /CMC/tools/altera/13.1/nios2eds/bin/gnu/H-i686-pc-linux-gnu/bin/../lib/gcc/nios2-elf/4.7.3/../../../../../H-i686-pc-linux-gnu/nios2-elf/lib/mno-hw-mul/libc.a(lib_a-wsetup.o)
 .data          0x00476aa4        0x0 /CMC/tools/altera/13.1/nios2eds/bin/gnu/H-i686-pc-linux-gnu/bin/../lib/gcc/nios2-elf/4.7.3/../../../../../H-i686-pc-linux-gnu/nios2-elf/lib/mno-hw-mul/libc.a(lib_a-fflush.o)
 .data          0x00476aa4        0x0 /CMC/tools/altera/13.1/nios2eds/bin/gnu/H-i686-pc-linux-gnu/bin/../lib/gcc/nios2-elf/4.7.3/../../../../../H-i686-pc-linux-gnu/nios2-elf/lib/mno-hw-mul/libc.a(lib_a-findfp.o)
 .data          0x00476aa4        0x0 /CMC/tools/altera/13.1/nios2eds/bin/gnu/H-i686-pc-linux-gnu/bin/../lib/gcc/nios2-elf/4.7.3/../../../../../H-i686-pc-linux-gnu/nios2-elf/lib/mno-hw-mul/libc.a(lib_a-freer.o)
 .data          0x00476aa4        0x0 /CMC/tools/altera/13.1/nios2eds/bin/gnu/H-i686-pc-linux-gnu/bin/../lib/gcc/nios2-elf/4.7.3/../../../../../H-i686-pc-linux-gnu/nios2-elf/lib/mno-hw-mul/libc.a(lib_a-fwalk.o)
 .data          0x00476aa4        0x0 /CMC/tools/altera/13.1/nios2eds/bin/gnu/H-i686-pc-linux-gnu/bin/../lib/gcc/nios2-elf/4.7.3/../../../../../H-i686-pc-linux-gnu/nios2-elf/lib/mno-hw-mul/libc.a(lib_a-int_errno.o)
 .data          0x00476aa4        0x0 /CMC/tools/altera/13.1/nios2eds/bin/gnu/H-i686-pc-linux-gnu/bin/../lib/gcc/nios2-elf/4.7.3/../../../../../H-i686-pc-linux-gnu/nios2-elf/lib/mno-hw-mul/libc.a(lib_a-makebuf.o)
 .data          0x00476aa4        0x0 /CMC/tools/altera/13.1/nios2eds/bin/gnu/H-i686-pc-linux-gnu/bin/../lib/gcc/nios2-elf/4.7.3/../../../../../H-i686-pc-linux-gnu/nios2-elf/lib/mno-hw-mul/libc.a(lib_a-memset.o)
 .data          0x00476aa4        0x0 /CMC/tools/altera/13.1/nios2eds/bin/gnu/H-i686-pc-linux-gnu/bin/../lib/gcc/nios2-elf/4.7.3/../../../../../H-i686-pc-linux-gnu/nios2-elf/lib/mno-hw-mul/libc.a(lib_a-stdio.o)
 .data          0x00476aa4        0x0 /CMC/tools/altera/13.1/nios2eds/bin/gnu/H-i686-pc-linux-gnu/bin/../lib/gcc/nios2-elf/4.7.3/../../../../../H-i686-pc-linux-gnu/nios2-elf/lib/mno-hw-mul/libc.a(lib_a-writer.o)
 .data          0x00476aa4        0x0 /CMC/tools/altera/13.1/nios2eds/bin/gnu/H-i686-pc-linux-gnu/bin/../lib/gcc/nios2-elf/4.7.3/../../../../../H-i686-pc-linux-gnu/nios2-elf/lib/mno-hw-mul/libc.a(lib_a-closer.o)
 .data          0x00476aa4        0x0 /CMC/tools/altera/13.1/nios2eds/bin/gnu/H-i686-pc-linux-gnu/bin/../lib/gcc/nios2-elf/4.7.3/../../../../../H-i686-pc-linux-gnu/nios2-elf/lib/mno-hw-mul/libc.a(lib_a-fclose.o)
 .data          0x00476aa4        0x0 /CMC/tools/altera/13.1/nios2eds/bin/gnu/H-i686-pc-linux-gnu/bin/../lib/gcc/nios2-elf/4.7.3/../../../../../H-i686-pc-linux-gnu/nios2-elf/lib/mno-hw-mul/libc.a(lib_a-fstatr.o)
 .data          0x00476aa4        0x0 /CMC/tools/altera/13.1/nios2eds/bin/gnu/H-i686-pc-linux-gnu/bin/../lib/gcc/nios2-elf/4.7.3/../../../../../H-i686-pc-linux-gnu/nios2-elf/lib/mno-hw-mul/libc.a(lib_a-isattyr.o)
 .data          0x00476aa4        0x0 /CMC/tools/altera/13.1/nios2eds/bin/gnu/H-i686-pc-linux-gnu/bin/../lib/gcc/nios2-elf/4.7.3/../../../../../H-i686-pc-linux-gnu/nios2-elf/lib/mno-hw-mul/libc.a(lib_a-lseekr.o)
 .data          0x00476aa4        0x0 /CMC/tools/altera/13.1/nios2eds/bin/gnu/H-i686-pc-linux-gnu/bin/../lib/gcc/nios2-elf/4.7.3/../../../../../H-i686-pc-linux-gnu/nios2-elf/lib/mno-hw-mul/libc.a(lib_a-readr.o)
 .data          0x00476aa4        0x0 /CMC/tools/altera/13.1/nios2eds/bin/gnu/H-i686-pc-linux-gnu/bin/../lib/gcc/nios2-elf/4.7.3/mno-hw-mul/libgcc.a(lib2-mul.o)
 .data          0x00476aa4        0x0 ../ucos0_bsp//libucosii_bsp.a(alt_close.o)
 .data          0x00476aa4      0x1a8 ../ucos0_bsp//libucosii_bsp.a(alt_dev.o)
                0x00476aa4                alt_dev_null
                0x00476acc                alt_fd_list
 .data          0x00476c4c        0x0 ../ucos0_bsp//libucosii_bsp.a(alt_errno.o)
 .data          0x00476c4c        0x0 ../ucos0_bsp//libucosii_bsp.a(alt_fstat.o)
 .data          0x00476c4c        0x0 ../ucos0_bsp//libucosii_bsp.a(alt_iic.o)
 .data          0x00476c4c        0x0 ../ucos0_bsp//libucosii_bsp.a(alt_iic_isr_register.o)
 .data          0x00476c4c        0x0 ../ucos0_bsp//libucosii_bsp.a(alt_irq_entry.o)
 .data          0x00476c4c        0x0 ../ucos0_bsp//libucosii_bsp.a(alt_irq_handler.o)
 .data          0x00476c4c        0x0 ../ucos0_bsp//libucosii_bsp.a(alt_irq_vars.o)
 .data          0x00476c4c        0x0 ../ucos0_bsp//libucosii_bsp.a(alt_isatty.o)
 .data          0x00476c4c        0x0 ../ucos0_bsp//libucosii_bsp.a(alt_load.o)
 .data          0x00476c4c        0x0 ../ucos0_bsp//libucosii_bsp.a(alt_lseek.o)
 .data          0x00476c4c        0x0 ../ucos0_bsp//libucosii_bsp.a(alt_main.o)
 .data          0x00476c4c        0x0 ../ucos0_bsp//libucosii_bsp.a(alt_read.o)
 .data          0x00476c4c        0x0 ../ucos0_bsp//libucosii_bsp.a(alt_release_fd.o)
 .data          0x00476c4c        0x0 ../ucos0_bsp//libucosii_bsp.a(alt_sbrk.o)
 .data          0x00476c4c        0x0 ../ucos0_bsp//libucosii_bsp.a(alt_write.o)
 .data          0x00476c4c        0x0 ../ucos0_bsp//libucosii_bsp.a(alt_env_lock.o)
 .data          0x00476c4c        0x0 ../ucos0_bsp//libucosii_bsp.a(alt_malloc_lock.o)
 .data          0x00476c4c        0x0 ../ucos0_bsp//libucosii_bsp.a(os_core.o)
 .data          0x00476c4c        0x0 ../ucos0_bsp//libucosii_bsp.a(os_dbg.o)
 .data          0x00476c4c        0x0 ../ucos0_bsp//libucosii_bsp.a(os_flag.o)
 .data          0x00476c4c        0x0 ../ucos0_bsp//libucosii_bsp.a(os_mem.o)
 .data          0x00476c4c        0x0 ../ucos0_bsp//libucosii_bsp.a(os_q.o)
 .data          0x00476c4c        0x0 ../ucos0_bsp//libucosii_bsp.a(os_sem.o)
 .data          0x00476c4c        0x0 ../ucos0_bsp//libucosii_bsp.a(os_task.o)
 .data          0x00476c4c        0x0 ../ucos0_bsp//libucosii_bsp.a(os_time.o)
 .data          0x00476c4c     0x1080 ../ucos0_bsp//libucosii_bsp.a(alt_sys_init.o)
 .data          0x00477ccc        0x0 ../ucos0_bsp//libucosii_bsp.a(altera_avalon_jtag_uart_fd.o)
 .data          0x00477ccc        0x0 ../ucos0_bsp//libucosii_bsp.a(altera_avalon_jtag_uart_init.o)
 .data          0x00477ccc        0x0 ../ucos0_bsp//libucosii_bsp.a(altera_avalon_jtag_uart_ioctl.o)
 .data          0x00477ccc        0x0 ../ucos0_bsp//libucosii_bsp.a(altera_avalon_jtag_uart_read.o)
 .data          0x00477ccc        0x0 ../ucos0_bsp//libucosii_bsp.a(altera_avalon_jtag_uart_write.o)
 .data          0x00477ccc        0x0 ../ucos0_bsp//libucosii_bsp.a(altera_avalon_mutex.o)
 .data          0x00477ccc        0x0 ../ucos0_bsp//libucosii_bsp.a(altera_avalon_timer_sc.o)
 .data          0x00477ccc        0x0 ../ucos0_bsp//libucosii_bsp.a(altera_avalon_timer_ts.o)
 .data          0x00477ccc        0x0 ../ucos0_bsp//libucosii_bsp.a(altera_avalon_timer_vars.o)
 .data          0x00477ccc        0x0 ../ucos0_bsp//libucosii_bsp.a(alt_alarm_start.o)
 .data          0x00477ccc        0x0 ../ucos0_bsp//libucosii_bsp.a(alt_dcache_flush_all.o)
 .data          0x00477ccc        0x0 ../ucos0_bsp//libucosii_bsp.a(alt_dev_llist_insert.o)
 .data          0x00477ccc        0x0 ../ucos0_bsp//libucosii_bsp.a(alt_do_ctors.o)
 .data          0x00477ccc        0x0 ../ucos0_bsp//libucosii_bsp.a(alt_do_dtors.o)
 .data          0x00477ccc        0x0 ../ucos0_bsp//libucosii_bsp.a(alt_exception_entry.o)
 .data          0x00477ccc        0x0 ../ucos0_bsp//libucosii_bsp.a(alt_find_dev.o)
 .data          0x00477ccc        0x0 ../ucos0_bsp//libucosii_bsp.a(alt_icache_flush_all.o)
 .data          0x00477ccc        0x0 ../ucos0_bsp//libucosii_bsp.a(alt_io_redirect.o)
 .data          0x00477ccc        0x0 ../ucos0_bsp//libucosii_bsp.a(alt_open.o)
 .data          0x00477ccc        0x0 ../ucos0_bsp//libucosii_bsp.a(alt_tick.o)
 .data          0x00477ccc        0x0 ../ucos0_bsp//libucosii_bsp.a(altera_nios2_qsys_irq.o)
 .data          0x00477ccc        0x0 ../ucos0_bsp//libucosii_bsp.a(os_cpu_a.o)
 .data          0x00477ccc        0x0 ../ucos0_bsp//libucosii_bsp.a(os_cpu_c.o)
 .data          0x00477ccc        0x0 ../ucos0_bsp//libucosii_bsp.a(alt_find_file.o)
 .data          0x00477ccc        0x0 ../ucos0_bsp//libucosii_bsp.a(alt_get_fd.o)
 .data          0x00477ccc        0x0 ../ucos0_bsp//libucosii_bsp.a(alt_icache_flush.o)
 .data          0x00477ccc        0x0 /CMC/tools/altera/13.1/nios2eds/bin/gnu/H-i686-pc-linux-gnu/bin/../lib/gcc/nios2-elf/4.7.3/../../../../../H-i686-pc-linux-gnu/nios2-elf/lib/mno-hw-mul/libc.a(lib_a-atexit.o)
 .data          0x00477ccc        0x0 /CMC/tools/altera/13.1/nios2eds/bin/gnu/H-i686-pc-linux-gnu/bin/../lib/gcc/nios2-elf/4.7.3/../../../../../H-i686-pc-linux-gnu/nios2-elf/lib/mno-hw-mul/libc.a(lib_a-exit.o)
 .data          0x00477ccc        0x0 /CMC/tools/altera/13.1/nios2eds/bin/gnu/H-i686-pc-linux-gnu/bin/../lib/gcc/nios2-elf/4.7.3/../../../../../H-i686-pc-linux-gnu/nios2-elf/lib/mno-hw-mul/libc.a(lib_a-memcmp.o)
 .data          0x00477ccc        0x0 /CMC/tools/altera/13.1/nios2eds/bin/gnu/H-i686-pc-linux-gnu/bin/../lib/gcc/nios2-elf/4.7.3/../../../../../H-i686-pc-linux-gnu/nios2-elf/lib/mno-hw-mul/libc.a(lib_a-__atexit.o)
 .data          0x00477ccc        0x0 /CMC/tools/altera/13.1/nios2eds/bin/gnu/H-i686-pc-linux-gnu/bin/../lib/gcc/nios2-elf/4.7.3/../../../../../H-i686-pc-linux-gnu/nios2-elf/lib/mno-hw-mul/libc.a(lib_a-__call_atexit.o)
 .data          0x00477ccc        0x0 /CMC/tools/altera/13.1/nios2eds/bin/gnu/H-i686-pc-linux-gnu/bin/../lib/gcc/nios2-elf/4.7.3/mno-hw-mul/libgcc.a(_fixunsdfsi.o)
 .data          0x00477ccc        0x0 /CMC/tools/altera/13.1/nios2eds/bin/gnu/H-i686-pc-linux-gnu/bin/../lib/gcc/nios2-elf/4.7.3/mno-hw-mul/libgcc.a(_addsub_df.o)
 .data          0x00477ccc        0x0 /CMC/tools/altera/13.1/nios2eds/bin/gnu/H-i686-pc-linux-gnu/bin/../lib/gcc/nios2-elf/4.7.3/mno-hw-mul/libgcc.a(_mul_df.o)
 .data          0x00477ccc        0x0 /CMC/tools/altera/13.1/nios2eds/bin/gnu/H-i686-pc-linux-gnu/bin/../lib/gcc/nios2-elf/4.7.3/mno-hw-mul/libgcc.a(_div_df.o)
 .data          0x00477ccc        0x0 /CMC/tools/altera/13.1/nios2eds/bin/gnu/H-i686-pc-linux-gnu/bin/../lib/gcc/nios2-elf/4.7.3/mno-hw-mul/libgcc.a(_ge_df.o)
 .data          0x00477ccc        0x0 /CMC/tools/altera/13.1/nios2eds/bin/gnu/H-i686-pc-linux-gnu/bin/../lib/gcc/nios2-elf/4.7.3/mno-hw-mul/libgcc.a(_df_to_si.o)
 .data          0x00477ccc        0x0 /CMC/tools/altera/13.1/nios2eds/bin/gnu/H-i686-pc-linux-gnu/bin/../lib/gcc/nios2-elf/4.7.3/mno-hw-mul/libgcc.a(_thenan_df.o)
 .data          0x00477ccc        0x0 /CMC/tools/altera/13.1/nios2eds/bin/gnu/H-i686-pc-linux-gnu/bin/../lib/gcc/nios2-elf/4.7.3/mno-hw-mul/libgcc.a(_usi_to_df.o)
 .data          0x00477ccc        0x0 /CMC/tools/altera/13.1/nios2eds/bin/gnu/H-i686-pc-linux-gnu/bin/../lib/gcc/nios2-elf/4.7.3/mno-hw-mul/libgcc.a(lib2-divmod.o)
 .data          0x00477ccc        0x0 /CMC/tools/altera/13.1/nios2eds/bin/gnu/H-i686-pc-linux-gnu/bin/../lib/gcc/nios2-elf/4.7.3/mno-hw-mul/libgcc.a(_muldi3.o)
 .data          0x00477ccc        0x0 /CMC/tools/altera/13.1/nios2eds/bin/gnu/H-i686-pc-linux-gnu/bin/../lib/gcc/nios2-elf/4.7.3/mno-hw-mul/libgcc.a(_clzsi2.o)
 .data          0x00477ccc        0x0 /CMC/tools/altera/13.1/nios2eds/bin/gnu/H-i686-pc-linux-gnu/bin/../lib/gcc/nios2-elf/4.7.3/mno-hw-mul/libgcc.a(_pack_df.o)
 .data          0x00477ccc        0x0 /CMC/tools/altera/13.1/nios2eds/bin/gnu/H-i686-pc-linux-gnu/bin/../lib/gcc/nios2-elf/4.7.3/mno-hw-mul/libgcc.a(_unpack_df.o)
 .data          0x00477ccc        0x0 /CMC/tools/altera/13.1/nios2eds/bin/gnu/H-i686-pc-linux-gnu/bin/../lib/gcc/nios2-elf/4.7.3/mno-hw-mul/libgcc.a(_fpcmp_parts_df.o)
 .data          0x00477ccc        0x0 /CMC/tools/altera/13.1/nios2eds/bin/gnu/H-i686-pc-linux-gnu/bin/../lib/gcc/nios2-elf/4.7.3/mno-hw-mul/libgcc.a(_lshrdi3.o)
 .data          0x00477ccc        0x0 /CMC/tools/altera/13.1/nios2eds/bin/gnu/H-i686-pc-linux-gnu/bin/../lib/gcc/nios2-elf/4.7.3/mno-hw-mul/libgcc.a(_ashldi3.o)
 .data          0x00477ccc        0x0 /CMC/tools/altera/13.1/nios2eds/bin/gnu/H-i686-pc-linux-gnu/bin/../lib/gcc/nios2-elf/4.7.3/mno-hw-mul/libgcc.a(_clz.o)
 .data          0x00477ccc        0x0 ../ucos0_bsp//libucosii_bsp.a(alt_exit.o)
                0x0047fccc                _gp = ABSOLUTE ((. + 0x8000))
                0x0047fccc                PROVIDE (gp, _gp)
 *(.rwdata .rwdata.*)
 *(.sdata .sdata.* .gnu.linkonce.s.*)
 .sdata         0x00477ccc        0x4 obj/default/hello_ucosii_0.o
                0x00477ccc                isr_0_ptr
 .sdata         0x00477cd0       0x14 obj/default/tlb.o
                0x00477cd0                LINE_ENABLE_REG
                0x00477cd4                LINE_VALID_REG
                0x00477cd8                VIRT_ADDR_TABLE
                0x00477cdc                PHYS_ADDR_TABLE
                0x00477ce0                TLB_ACTIVATE_REG
 .sdata         0x00477ce4        0x8 /CMC/tools/altera/13.1/nios2eds/bin/gnu/H-i686-pc-linux-gnu/bin/../lib/gcc/nios2-elf/4.7.3/../../../../../H-i686-pc-linux-gnu/nios2-elf/lib/mno-hw-mul/libc.a(lib_a-impure.o)
                0x00477ce4                _global_impure_ptr
                0x00477ce8                _impure_ptr
 .sdata         0x00477cec        0x8 /CMC/tools/altera/13.1/nios2eds/bin/gnu/H-i686-pc-linux-gnu/bin/../lib/gcc/nios2-elf/4.7.3/../../../../../H-i686-pc-linux-gnu/nios2-elf/lib/mno-hw-mul/libc.a(lib_a-mallocr.o)
                0x00477cec                __malloc_sbrk_base
                0x00477cf0                __malloc_trim_threshold
 .sdata         0x00477cf4       0x14 ../ucos0_bsp//libucosii_bsp.a(alt_dev.o)
                0x00477cf4                alt_fs_list
                0x00477cfc                alt_dev_list
                0x00477d04                alt_max_fd
 .sdata         0x00477d08        0x4 ../ucos0_bsp//libucosii_bsp.a(alt_errno.o)
                0x00477d08                alt_errno
 .sdata         0x00477d0c        0x4 ../ucos0_bsp//libucosii_bsp.a(alt_irq_vars.o)
                0x00477d0c                alt_priority_mask
 .sdata         0x00477d10        0x4 ../ucos0_bsp//libucosii_bsp.a(alt_sbrk.o)
 .sdata         0x00477d14        0x4 ../ucos0_bsp//libucosii_bsp.a(alt_env_lock.o)
 .sdata         0x00477d18        0x4 ../ucos0_bsp//libucosii_bsp.a(alt_malloc_lock.o)
 .sdata         0x00477d1c       0x74 ../ucos0_bsp//libucosii_bsp.a(os_dbg.o)
                0x00477d1c                OSDebugEn
                0x00477d20                OSEndiannessTest
                0x00477d24                OSEventEn
                0x00477d26                OSEventMax
                0x00477d28                OSEventNameSize
                0x00477d2a                OSEventSize
                0x00477d2c                OSEventTblSize
                0x00477d2e                OSEventMultiEn
                0x00477d30                OSFlagEn
                0x00477d32                OSFlagGrpSize
                0x00477d34                OSFlagNodeSize
                0x00477d36                OSFlagWidth
                0x00477d38                OSFlagMax
                0x00477d3a                OSFlagNameSize
                0x00477d3c                OSLowestPrio
                0x00477d3e                OSMboxEn
                0x00477d40                OSMemEn
                0x00477d42                OSMemMax
                0x00477d44                OSMemNameSize
                0x00477d46                OSMemSize
                0x00477d48                OSMemTblSize
                0x00477d4a                OSMutexEn
                0x00477d4c                OSPtrSize
                0x00477d4e                OSQEn
                0x00477d50                OSQMax
                0x00477d52                OSQSize
                0x00477d54                OSRdyTblSize
                0x00477d56                OSSemEn
                0x00477d58                OSStkWidth
                0x00477d5a                OSTaskCreateEn
                0x00477d5c                OSTaskCreateExtEn
                0x00477d5e                OSTaskDelEn
                0x00477d60                OSTaskIdleStkSize
                0x00477d62                OSTaskProfileEn
                0x00477d64                OSTaskMax
                0x00477d66                OSTaskNameSize
                0x00477d68                OSTaskStatEn
                0x00477d6a                OSTaskStatStkSize
                0x00477d6c                OSTaskStatStkChkEn
                0x00477d6e                OSTaskSwHookEn
                0x00477d70                OSTCBPrioTblMax
                0x00477d72                OSTCBSize
                0x00477d74                OSTicksPerSec
                0x00477d76                OSTimeTickHookEn
                0x00477d78                OSVersionNbr
                0x00477d7a                OSTmrEn
                0x00477d7c                OSTmrCfgMax
                0x00477d7e                OSTmrCfgNameSize
                0x00477d80                OSTmrCfgWheelSize
                0x00477d82                OSTmrCfgTicksPerSec
                0x00477d84                OSTmrSize
                0x00477d86                OSTmrTblSize
                0x00477d88                OSTmrWheelSize
                0x00477d8a                OSTmrWheelTblSize
                0x00477d8c                OSDataSize
 .sdata         0x00477d90        0x8 ../ucos0_bsp//libucosii_bsp.a(altera_avalon_mutex.o)
                0x00477d90                alt_mutex_list
 .sdata         0x00477d98        0x8 ../ucos0_bsp//libucosii_bsp.a(alt_tick.o)
                0x00477d98                alt_alarm_list
 *(.sdata2 .sdata2.* .gnu.linkonce.s2.*)
                0x00477da0                . = ALIGN (0x4)
                0x00477da0                _edata = ABSOLUTE (.)
                0x00477da0                PROVIDE (edata, ABSOLUTE (.))
                0x00477da0                PROVIDE (__ram_rwdata_end, ABSOLUTE (.))
                0x00477da0                PROVIDE (__flash_rwdata_start, LOADADDR (.rwdata))

.bss            0x004798a4     0x3590
                0x004798a4                __bss_start = ABSOLUTE (.)
                0x004798a4                PROVIDE (__sbss_start, ABSOLUTE (.))
                0x004798a4                PROVIDE (___sbss_start, ABSOLUTE (.))
 *(.dynsbss)
 *(.sbss .sbss.* .gnu.linkonce.sb.*)
 .sbss          0x004798a4        0x4 obj/default/hello_ucosii_0.o
                0x004798a4                count
 .sbss          0x004798a8       0x1c obj/default/hello_ucosii_0.o
                0x004798a8                preempt_sem_2
                0x004798ac                mbox
                0x004798b0                preempt_sem_3
                0x004798b4                mutex
                0x004798b8                ct
                0x004798bc                err
                0x004798c0                preempt_sem
 .sbss          0x004798c4        0xc /CMC/tools/altera/13.1/nios2eds/bin/gnu/H-i686-pc-linux-gnu/bin/../lib/gcc/nios2-elf/4.7.3/../../../../../H-i686-pc-linux-gnu/nios2-elf/lib/mno-hw-mul/libc.a(lib_a-mallocr.o)
                0x004798c4                __malloc_max_total_mem
                0x004798c8                __malloc_max_sbrked_mem
                0x004798cc                __malloc_top_pad
 .sbss          0x004798d0        0x4 /CMC/tools/altera/13.1/nios2eds/bin/gnu/H-i686-pc-linux-gnu/bin/../lib/gcc/nios2-elf/4.7.3/../../../../../H-i686-pc-linux-gnu/nios2-elf/lib/mno-hw-mul/libc.a(lib_a-int_errno.o)
                0x004798d0                errno
 .sbss          0x004798d4        0x4 ../ucos0_bsp//libucosii_bsp.a(alt_dev.o)
                0x004798d4                alt_fd_list_lock
 .sbss          0x004798d8        0x4 ../ucos0_bsp//libucosii_bsp.a(alt_irq_vars.o)
                0x004798d8                alt_irq_active
 .sbss          0x004798dc        0xc ../ucos0_bsp//libucosii_bsp.a(alt_main.o)
                0x004798dc                alt_argc
                0x004798e0                alt_argv
                0x004798e4                alt_envp
 .sbss          0x004798e8        0x8 ../ucos0_bsp//libucosii_bsp.a(alt_env_lock.o)
                0x004798ec                alt_envsem
 .sbss          0x004798f0        0x8 ../ucos0_bsp//libucosii_bsp.a(alt_malloc_lock.o)
                0x004798f4                alt_heapsem
 .sbss          0x004798f8       0x50 ../ucos0_bsp//libucosii_bsp.a(os_core.o)
                0x004798f8                OSLockNesting
                0x004798f9                OSRunning
                0x004798fc                OSIdleCtr
                0x00479900                OSPrioHighRdy
                0x00479901                OSPrioCur
                0x00479904                OSTCBList
                0x00479908                OSTickStepState
                0x0047990c                OSCtxSwCtr
                0x00479910                OSIdleCtrMax
                0x00479914                OSTCBFreeList
                0x00479918                OSCPUUsage
                0x00479919                OSTaskCtr
                0x0047991c                OSMemFreeList
                0x00479920                OSTCBHighRdy
                0x00479924                OSQFreeList
                0x00479928                OSRdyGrp
                0x00479929                OSRdyTbl
                0x0047992c                OSEventFreeList
                0x00479930                OSIntNesting
                0x00479934                OSTCBCur
                0x00479938                OSTime
                0x0047993c                OSFlagFreeList
                0x00479940                OSStatRdy
                0x00479944                OSIdleCtrRun
 .sbss          0x00479948        0x8 ../ucos0_bsp//libucosii_bsp.a(altera_avalon_timer_vars.o)
                0x00479948                altera_avalon_timer_ts_base
                0x0047994c                altera_avalon_timer_ts_freq
 .sbss          0x00479950        0x8 ../ucos0_bsp//libucosii_bsp.a(alt_tick.o)
                0x00479950                _alt_tick_rate
                0x00479954                _alt_nticks
 *(.sbss2 .sbss2.* .gnu.linkonce.sb2.*)
 *(.scommon)
                0x00479958                PROVIDE (__sbss_end, ABSOLUTE (.))
                0x00479958                PROVIDE (___sbss_end, ABSOLUTE (.))
 *(.dynbss)
 *(.bss .bss.* .gnu.linkonce.b.*)
 .bss           0x00479958        0x0 ../ucos0_bsp//obj/HAL/src/crt0.o
 .bss           0x00479958        0x0 obj/default/hello_ucosii_0.o
 .bss           0x00479958        0x0 obj/default/tlb.o
 .bss           0x00479958        0x0 ../critical_library/libcritical_library.a(fingerprint.o)
 .bss           0x00479958        0x0 ../critical_library/libcritical_library.a(context_switch.o)
 .bss           0x00479958        0x0 ../critical_library/libcritical_library.a(gp.o)
 .bss           0x00479958        0x0 /CMC/tools/altera/13.1/nios2eds/bin/gnu/H-i686-pc-linux-gnu/bin/../lib/gcc/nios2-elf/4.7.3/../../../../../H-i686-pc-linux-gnu/nios2-elf/lib/mno-hw-mul/libc.a(lib_a-puts.o)
 .bss           0x00479958        0x0 /CMC/tools/altera/13.1/nios2eds/bin/gnu/H-i686-pc-linux-gnu/bin/../lib/gcc/nios2-elf/4.7.3/../../../../../H-i686-pc-linux-gnu/nios2-elf/lib/mno-hw-mul/libc.a(lib_a-strlen.o)
 .bss           0x00479958        0x0 /CMC/tools/altera/13.1/nios2eds/bin/gnu/H-i686-pc-linux-gnu/bin/../lib/gcc/nios2-elf/4.7.3/../../../../../H-i686-pc-linux-gnu/nios2-elf/lib/mno-hw-mul/libc.a(lib_a-fvwrite.o)
 .bss           0x00479958        0x0 /CMC/tools/altera/13.1/nios2eds/bin/gnu/H-i686-pc-linux-gnu/bin/../lib/gcc/nios2-elf/4.7.3/../../../../../H-i686-pc-linux-gnu/nios2-elf/lib/mno-hw-mul/libc.a(lib_a-impure.o)
 .bss           0x00479958       0x28 /CMC/tools/altera/13.1/nios2eds/bin/gnu/H-i686-pc-linux-gnu/bin/../lib/gcc/nios2-elf/4.7.3/../../../../../H-i686-pc-linux-gnu/nios2-elf/lib/mno-hw-mul/libc.a(lib_a-mallocr.o)
                0x00479958                __malloc_current_mallinfo
 .bss           0x00479980        0x0 /CMC/tools/altera/13.1/nios2eds/bin/gnu/H-i686-pc-linux-gnu/bin/../lib/gcc/nios2-elf/4.7.3/../../../../../H-i686-pc-linux-gnu/nios2-elf/lib/mno-hw-mul/libc.a(lib_a-memchr.o)
 .bss           0x00479980        0x0 /CMC/tools/altera/13.1/nios2eds/bin/gnu/H-i686-pc-linux-gnu/bin/../lib/gcc/nios2-elf/4.7.3/../../../../../H-i686-pc-linux-gnu/nios2-elf/lib/mno-hw-mul/libc.a(lib_a-memcpy.o)
 .bss           0x00479980        0x0 /CMC/tools/altera/13.1/nios2eds/bin/gnu/H-i686-pc-linux-gnu/bin/../lib/gcc/nios2-elf/4.7.3/../../../../../H-i686-pc-linux-gnu/nios2-elf/lib/mno-hw-mul/libc.a(lib_a-memmove.o)
 .bss           0x00479980        0x0 /CMC/tools/altera/13.1/nios2eds/bin/gnu/H-i686-pc-linux-gnu/bin/../lib/gcc/nios2-elf/4.7.3/../../../../../H-i686-pc-linux-gnu/nios2-elf/lib/mno-hw-mul/libc.a(lib_a-reallocr.o)
 .bss           0x00479980        0x0 /CMC/tools/altera/13.1/nios2eds/bin/gnu/H-i686-pc-linux-gnu/bin/../lib/gcc/nios2-elf/4.7.3/../../../../../H-i686-pc-linux-gnu/nios2-elf/lib/mno-hw-mul/libc.a(lib_a-sbrkr.o)
 .bss           0x00479980        0x0 /CMC/tools/altera/13.1/nios2eds/bin/gnu/H-i686-pc-linux-gnu/bin/../lib/gcc/nios2-elf/4.7.3/../../../../../H-i686-pc-linux-gnu/nios2-elf/lib/mno-hw-mul/libc.a(lib_a-wsetup.o)
 .bss           0x00479980        0x0 /CMC/tools/altera/13.1/nios2eds/bin/gnu/H-i686-pc-linux-gnu/bin/../lib/gcc/nios2-elf/4.7.3/../../../../../H-i686-pc-linux-gnu/nios2-elf/lib/mno-hw-mul/libc.a(lib_a-fflush.o)
 .bss           0x00479980        0x0 /CMC/tools/altera/13.1/nios2eds/bin/gnu/H-i686-pc-linux-gnu/bin/../lib/gcc/nios2-elf/4.7.3/../../../../../H-i686-pc-linux-gnu/nios2-elf/lib/mno-hw-mul/libc.a(lib_a-findfp.o)
 .bss           0x00479980        0x0 /CMC/tools/altera/13.1/nios2eds/bin/gnu/H-i686-pc-linux-gnu/bin/../lib/gcc/nios2-elf/4.7.3/../../../../../H-i686-pc-linux-gnu/nios2-elf/lib/mno-hw-mul/libc.a(lib_a-freer.o)
 .bss           0x00479980        0x0 /CMC/tools/altera/13.1/nios2eds/bin/gnu/H-i686-pc-linux-gnu/bin/../lib/gcc/nios2-elf/4.7.3/../../../../../H-i686-pc-linux-gnu/nios2-elf/lib/mno-hw-mul/libc.a(lib_a-fwalk.o)
 .bss           0x00479980        0x0 /CMC/tools/altera/13.1/nios2eds/bin/gnu/H-i686-pc-linux-gnu/bin/../lib/gcc/nios2-elf/4.7.3/../../../../../H-i686-pc-linux-gnu/nios2-elf/lib/mno-hw-mul/libc.a(lib_a-int_errno.o)
 .bss           0x00479980        0x0 /CMC/tools/altera/13.1/nios2eds/bin/gnu/H-i686-pc-linux-gnu/bin/../lib/gcc/nios2-elf/4.7.3/../../../../../H-i686-pc-linux-gnu/nios2-elf/lib/mno-hw-mul/libc.a(lib_a-makebuf.o)
 .bss           0x00479980        0x0 /CMC/tools/altera/13.1/nios2eds/bin/gnu/H-i686-pc-linux-gnu/bin/../lib/gcc/nios2-elf/4.7.3/../../../../../H-i686-pc-linux-gnu/nios2-elf/lib/mno-hw-mul/libc.a(lib_a-memset.o)
 .bss           0x00479980        0x0 /CMC/tools/altera/13.1/nios2eds/bin/gnu/H-i686-pc-linux-gnu/bin/../lib/gcc/nios2-elf/4.7.3/../../../../../H-i686-pc-linux-gnu/nios2-elf/lib/mno-hw-mul/libc.a(lib_a-stdio.o)
 .bss           0x00479980        0x0 /CMC/tools/altera/13.1/nios2eds/bin/gnu/H-i686-pc-linux-gnu/bin/../lib/gcc/nios2-elf/4.7.3/../../../../../H-i686-pc-linux-gnu/nios2-elf/lib/mno-hw-mul/libc.a(lib_a-writer.o)
 .bss           0x00479980        0x0 /CMC/tools/altera/13.1/nios2eds/bin/gnu/H-i686-pc-linux-gnu/bin/../lib/gcc/nios2-elf/4.7.3/../../../../../H-i686-pc-linux-gnu/nios2-elf/lib/mno-hw-mul/libc.a(lib_a-closer.o)
 .bss           0x00479980        0x0 /CMC/tools/altera/13.1/nios2eds/bin/gnu/H-i686-pc-linux-gnu/bin/../lib/gcc/nios2-elf/4.7.3/../../../../../H-i686-pc-linux-gnu/nios2-elf/lib/mno-hw-mul/libc.a(lib_a-fclose.o)
 .bss           0x00479980        0x0 /CMC/tools/altera/13.1/nios2eds/bin/gnu/H-i686-pc-linux-gnu/bin/../lib/gcc/nios2-elf/4.7.3/../../../../../H-i686-pc-linux-gnu/nios2-elf/lib/mno-hw-mul/libc.a(lib_a-fstatr.o)
 .bss           0x00479980        0x0 /CMC/tools/altera/13.1/nios2eds/bin/gnu/H-i686-pc-linux-gnu/bin/../lib/gcc/nios2-elf/4.7.3/../../../../../H-i686-pc-linux-gnu/nios2-elf/lib/mno-hw-mul/libc.a(lib_a-isattyr.o)
 .bss           0x00479980        0x0 /CMC/tools/altera/13.1/nios2eds/bin/gnu/H-i686-pc-linux-gnu/bin/../lib/gcc/nios2-elf/4.7.3/../../../../../H-i686-pc-linux-gnu/nios2-elf/lib/mno-hw-mul/libc.a(lib_a-lseekr.o)
 .bss           0x00479980        0x0 /CMC/tools/altera/13.1/nios2eds/bin/gnu/H-i686-pc-linux-gnu/bin/../lib/gcc/nios2-elf/4.7.3/../../../../../H-i686-pc-linux-gnu/nios2-elf/lib/mno-hw-mul/libc.a(lib_a-readr.o)
 .bss           0x00479980        0x0 /CMC/tools/altera/13.1/nios2eds/bin/gnu/H-i686-pc-linux-gnu/bin/../lib/gcc/nios2-elf/4.7.3/mno-hw-mul/libgcc.a(lib2-mul.o)
 .bss           0x00479980        0x0 ../ucos0_bsp//libucosii_bsp.a(alt_close.o)
 .bss           0x00479980        0x0 ../ucos0_bsp//libucosii_bsp.a(alt_dev.o)
 .bss           0x00479980        0x0 ../ucos0_bsp//libucosii_bsp.a(alt_errno.o)
 .bss           0x00479980        0x0 ../ucos0_bsp//libucosii_bsp.a(alt_fstat.o)
 .bss           0x00479980        0x0 ../ucos0_bsp//libucosii_bsp.a(alt_iic.o)
 .bss           0x00479980        0x0 ../ucos0_bsp//libucosii_bsp.a(alt_iic_isr_register.o)
 .bss           0x00479980        0x0 ../ucos0_bsp//libucosii_bsp.a(alt_irq_entry.o)
 .bss           0x00479980        0x0 ../ucos0_bsp//libucosii_bsp.a(alt_irq_handler.o)
 .bss           0x00479980        0x0 ../ucos0_bsp//libucosii_bsp.a(alt_irq_vars.o)
 .bss           0x00479980        0x0 ../ucos0_bsp//libucosii_bsp.a(alt_isatty.o)
 .bss           0x00479980        0x0 ../ucos0_bsp//libucosii_bsp.a(alt_load.o)
 .bss           0x00479980        0x0 ../ucos0_bsp//libucosii_bsp.a(alt_lseek.o)
 .bss           0x00479980        0x0 ../ucos0_bsp//libucosii_bsp.a(alt_main.o)
 .bss           0x00479980        0x0 ../ucos0_bsp//libucosii_bsp.a(alt_read.o)
 .bss           0x00479980        0x0 ../ucos0_bsp//libucosii_bsp.a(alt_release_fd.o)
 .bss           0x00479980        0x0 ../ucos0_bsp//libucosii_bsp.a(alt_sbrk.o)
 .bss           0x00479980        0x0 ../ucos0_bsp//libucosii_bsp.a(alt_write.o)
 .bss           0x00479980        0x0 ../ucos0_bsp//libucosii_bsp.a(alt_env_lock.o)
 .bss           0x00479980        0x0 ../ucos0_bsp//libucosii_bsp.a(alt_malloc_lock.o)
 .bss           0x00479980        0x0 ../ucos0_bsp//libucosii_bsp.a(os_core.o)
 .bss           0x00479980        0x0 ../ucos0_bsp//libucosii_bsp.a(os_dbg.o)
 .bss           0x00479980        0x0 ../ucos0_bsp//libucosii_bsp.a(os_flag.o)
 .bss           0x00479980        0x0 ../ucos0_bsp//libucosii_bsp.a(os_mem.o)
 .bss           0x00479980        0x0 ../ucos0_bsp//libucosii_bsp.a(os_q.o)
 .bss           0x00479980        0x0 ../ucos0_bsp//libucosii_bsp.a(os_sem.o)
 .bss           0x00479980        0x0 ../ucos0_bsp//libucosii_bsp.a(os_task.o)
 .bss           0x00479980        0x0 ../ucos0_bsp//libucosii_bsp.a(os_time.o)
 .bss           0x00479980        0x0 ../ucos0_bsp//libucosii_bsp.a(alt_sys_init.o)
 .bss           0x00479980        0x0 ../ucos0_bsp//libucosii_bsp.a(altera_avalon_jtag_uart_fd.o)
 .bss           0x00479980        0x0 ../ucos0_bsp//libucosii_bsp.a(altera_avalon_jtag_uart_init.o)
 .bss           0x00479980        0x0 ../ucos0_bsp//libucosii_bsp.a(altera_avalon_jtag_uart_ioctl.o)
 .bss           0x00479980        0x0 ../ucos0_bsp//libucosii_bsp.a(altera_avalon_jtag_uart_read.o)
 .bss           0x00479980        0x0 ../ucos0_bsp//libucosii_bsp.a(altera_avalon_jtag_uart_write.o)
 .bss           0x00479980        0x0 ../ucos0_bsp//libucosii_bsp.a(altera_avalon_mutex.o)
 .bss           0x00479980        0x0 ../ucos0_bsp//libucosii_bsp.a(altera_avalon_timer_sc.o)
 .bss           0x00479980        0x0 ../ucos0_bsp//libucosii_bsp.a(altera_avalon_timer_ts.o)
 .bss           0x00479980        0x0 ../ucos0_bsp//libucosii_bsp.a(altera_avalon_timer_vars.o)
 .bss           0x00479980        0x0 ../ucos0_bsp//libucosii_bsp.a(alt_alarm_start.o)
 .bss           0x00479980        0x0 ../ucos0_bsp//libucosii_bsp.a(alt_dcache_flush_all.o)
 .bss           0x00479980        0x0 ../ucos0_bsp//libucosii_bsp.a(alt_dev_llist_insert.o)
 .bss           0x00479980        0x0 ../ucos0_bsp//libucosii_bsp.a(alt_do_ctors.o)
 .bss           0x00479980        0x0 ../ucos0_bsp//libucosii_bsp.a(alt_do_dtors.o)
 .bss           0x00479980        0x0 ../ucos0_bsp//libucosii_bsp.a(alt_exception_entry.o)
 .bss           0x00479980        0x0 ../ucos0_bsp//libucosii_bsp.a(alt_find_dev.o)
 .bss           0x00479980        0x0 ../ucos0_bsp//libucosii_bsp.a(alt_icache_flush_all.o)
 .bss           0x00479980        0x0 ../ucos0_bsp//libucosii_bsp.a(alt_io_redirect.o)
 .bss           0x00479980        0x0 ../ucos0_bsp//libucosii_bsp.a(alt_open.o)
 .bss           0x00479980        0x0 ../ucos0_bsp//libucosii_bsp.a(alt_tick.o)
 .bss           0x00479980        0x0 ../ucos0_bsp//libucosii_bsp.a(altera_nios2_qsys_irq.o)
 .bss           0x00479980        0x0 ../ucos0_bsp//libucosii_bsp.a(os_cpu_a.o)
 .bss           0x00479980        0x0 ../ucos0_bsp//libucosii_bsp.a(os_cpu_c.o)
 .bss           0x00479980        0x0 ../ucos0_bsp//libucosii_bsp.a(alt_find_file.o)
 .bss           0x00479980        0x0 ../ucos0_bsp//libucosii_bsp.a(alt_get_fd.o)
 .bss           0x00479980        0x0 ../ucos0_bsp//libucosii_bsp.a(alt_icache_flush.o)
 .bss           0x00479980        0x0 /CMC/tools/altera/13.1/nios2eds/bin/gnu/H-i686-pc-linux-gnu/bin/../lib/gcc/nios2-elf/4.7.3/../../../../../H-i686-pc-linux-gnu/nios2-elf/lib/mno-hw-mul/libc.a(lib_a-atexit.o)
 .bss           0x00479980        0x0 /CMC/tools/altera/13.1/nios2eds/bin/gnu/H-i686-pc-linux-gnu/bin/../lib/gcc/nios2-elf/4.7.3/../../../../../H-i686-pc-linux-gnu/nios2-elf/lib/mno-hw-mul/libc.a(lib_a-exit.o)
 .bss           0x00479980        0x0 /CMC/tools/altera/13.1/nios2eds/bin/gnu/H-i686-pc-linux-gnu/bin/../lib/gcc/nios2-elf/4.7.3/../../../../../H-i686-pc-linux-gnu/nios2-elf/lib/mno-hw-mul/libc.a(lib_a-memcmp.o)
 .bss           0x00479980        0x0 /CMC/tools/altera/13.1/nios2eds/bin/gnu/H-i686-pc-linux-gnu/bin/../lib/gcc/nios2-elf/4.7.3/../../../../../H-i686-pc-linux-gnu/nios2-elf/lib/mno-hw-mul/libc.a(lib_a-__atexit.o)
 .bss           0x00479980        0x0 /CMC/tools/altera/13.1/nios2eds/bin/gnu/H-i686-pc-linux-gnu/bin/../lib/gcc/nios2-elf/4.7.3/../../../../../H-i686-pc-linux-gnu/nios2-elf/lib/mno-hw-mul/libc.a(lib_a-__call_atexit.o)
 .bss           0x00479980        0x0 /CMC/tools/altera/13.1/nios2eds/bin/gnu/H-i686-pc-linux-gnu/bin/../lib/gcc/nios2-elf/4.7.3/mno-hw-mul/libgcc.a(_fixunsdfsi.o)
 .bss           0x00479980        0x0 /CMC/tools/altera/13.1/nios2eds/bin/gnu/H-i686-pc-linux-gnu/bin/../lib/gcc/nios2-elf/4.7.3/mno-hw-mul/libgcc.a(_addsub_df.o)
 .bss           0x00479980        0x0 /CMC/tools/altera/13.1/nios2eds/bin/gnu/H-i686-pc-linux-gnu/bin/../lib/gcc/nios2-elf/4.7.3/mno-hw-mul/libgcc.a(_mul_df.o)
 .bss           0x00479980        0x0 /CMC/tools/altera/13.1/nios2eds/bin/gnu/H-i686-pc-linux-gnu/bin/../lib/gcc/nios2-elf/4.7.3/mno-hw-mul/libgcc.a(_div_df.o)
 .bss           0x00479980        0x0 /CMC/tools/altera/13.1/nios2eds/bin/gnu/H-i686-pc-linux-gnu/bin/../lib/gcc/nios2-elf/4.7.3/mno-hw-mul/libgcc.a(_ge_df.o)
 .bss           0x00479980        0x0 /CMC/tools/altera/13.1/nios2eds/bin/gnu/H-i686-pc-linux-gnu/bin/../lib/gcc/nios2-elf/4.7.3/mno-hw-mul/libgcc.a(_df_to_si.o)
 .bss           0x00479980        0x0 /CMC/tools/altera/13.1/nios2eds/bin/gnu/H-i686-pc-linux-gnu/bin/../lib/gcc/nios2-elf/4.7.3/mno-hw-mul/libgcc.a(_thenan_df.o)
 .bss           0x00479980        0x0 /CMC/tools/altera/13.1/nios2eds/bin/gnu/H-i686-pc-linux-gnu/bin/../lib/gcc/nios2-elf/4.7.3/mno-hw-mul/libgcc.a(_usi_to_df.o)
 .bss           0x00479980        0x0 /CMC/tools/altera/13.1/nios2eds/bin/gnu/H-i686-pc-linux-gnu/bin/../lib/gcc/nios2-elf/4.7.3/mno-hw-mul/libgcc.a(lib2-divmod.o)
 .bss           0x00479980        0x0 /CMC/tools/altera/13.1/nios2eds/bin/gnu/H-i686-pc-linux-gnu/bin/../lib/gcc/nios2-elf/4.7.3/mno-hw-mul/libgcc.a(_muldi3.o)
 .bss           0x00479980        0x0 /CMC/tools/altera/13.1/nios2eds/bin/gnu/H-i686-pc-linux-gnu/bin/../lib/gcc/nios2-elf/4.7.3/mno-hw-mul/libgcc.a(_clzsi2.o)
 .bss           0x00479980        0x0 /CMC/tools/altera/13.1/nios2eds/bin/gnu/H-i686-pc-linux-gnu/bin/../lib/gcc/nios2-elf/4.7.3/mno-hw-mul/libgcc.a(_pack_df.o)
 .bss           0x00479980        0x0 /CMC/tools/altera/13.1/nios2eds/bin/gnu/H-i686-pc-linux-gnu/bin/../lib/gcc/nios2-elf/4.7.3/mno-hw-mul/libgcc.a(_unpack_df.o)
 .bss           0x00479980        0x0 /CMC/tools/altera/13.1/nios2eds/bin/gnu/H-i686-pc-linux-gnu/bin/../lib/gcc/nios2-elf/4.7.3/mno-hw-mul/libgcc.a(_fpcmp_parts_df.o)
 .bss           0x00479980        0x0 /CMC/tools/altera/13.1/nios2eds/bin/gnu/H-i686-pc-linux-gnu/bin/../lib/gcc/nios2-elf/4.7.3/mno-hw-mul/libgcc.a(_lshrdi3.o)
 .bss           0x00479980        0x0 /CMC/tools/altera/13.1/nios2eds/bin/gnu/H-i686-pc-linux-gnu/bin/../lib/gcc/nios2-elf/4.7.3/mno-hw-mul/libgcc.a(_ashldi3.o)
 .bss           0x00479980        0x0 /CMC/tools/altera/13.1/nios2eds/bin/gnu/H-i686-pc-linux-gnu/bin/../lib/gcc/nios2-elf/4.7.3/mno-hw-mul/libgcc.a(_clz.o)
 .bss           0x00479980        0x0 ../ucos0_bsp//libucosii_bsp.a(alt_exit.o)
 *(COMMON)
 COMMON         0x00479980      0x100 ../ucos0_bsp//libucosii_bsp.a(alt_irq_handler.o)
                0x00479980                alt_irq
 COMMON         0x00479a80     0x3224 ../ucos0_bsp//libucosii_bsp.a(os_core.o)
                0x00479a80                OSFlagTbl
                0x00479df0                OSMemTbl
                0x0047aa20                OSTaskStatStk
                0x0047b220                OSQTbl
                0x0047b400                OSTaskIdleStk
                0x0047bc00                OSEventTbl
                0x0047c740                OSTCBTbl
                0x0047cc50                OSTCBPrioTbl
 COMMON         0x0047cca4      0x190 /CMC/tools/altera/13.1/nios2eds/bin/gnu/H-i686-pc-linux-gnu/bin/../lib/gcc/nios2-elf/4.7.3/../../../../../H-i686-pc-linux-gnu/nios2-elf/lib/mno-hw-mul/libc.a(lib_a-atexit.o)
                0x0047cca4                _atexit0
                0x0047ce34                . = ALIGN (0x4)
                0x0047ce34                __bss_end = ABSOLUTE (.)

.memory_0_onchip_memoryMain
                0x0047ce34        0x0
                0x0047ce34                PROVIDE (_alt_partition_memory_0_onchip_memoryMain_start, ABSOLUTE (.))
 *(.memory_0_onchip_memoryMain .memory_0_onchip_memoryMain. memory_0_onchip_memoryMain.*)
                0x0047ce34                . = ALIGN (0x4)
                0x0047ce34                PROVIDE (_alt_partition_memory_0_onchip_memoryMain_end, ABSOLUTE (.))
                0x0047ce34                _end = ABSOLUTE (.)
                0x0047ce34                end = ABSOLUTE (.)
                0x0047ce34                __alt_stack_base = ABSOLUTE (.)
                0x0047ce34                PROVIDE (_alt_partition_memory_0_onchip_memoryMain_load_addr, LOADADDR (.memory_0_onchip_memoryMain))

.shared_memory  0x02500000        0x0 load address 0x0047ce34
                0x02500000                PROVIDE (_alt_partition_shared_memory_start, ABSOLUTE (.))
 *(.shared_memory .shared_memory. shared_memory.*)
                0x02500000                . = ALIGN (0x4)
                0x02500000                PROVIDE (_alt_partition_shared_memory_end, ABSOLUTE (.))
                0x0047ce34                PROVIDE (_alt_partition_shared_memory_load_addr, LOADADDR (.shared_memory))

.processor0_0_scratchpad
                0x04201000        0x0 load address 0x0047ce34
                0x04201000                PROVIDE (_alt_partition_processor0_0_scratchpad_start, ABSOLUTE (.))
 *(.processor0_0_scratchpad .processor0_0_scratchpad. processor0_0_scratchpad.*)
                0x04201000                . = ALIGN (0x4)
                0x04201000                PROVIDE (_alt_partition_processor0_0_scratchpad_end, ABSOLUTE (.))
                0x0047ce34                PROVIDE (_alt_partition_processor0_0_scratchpad_load_addr, LOADADDR (.processor0_0_scratchpad))

.stab
 *(.stab)

.stabstr
 *(.stabstr)

.stab.excl
 *(.stab.excl)

.stab.exclstr
 *(.stab.exclstr)

.stab.index
 *(.stab.index)

.stab.indexstr
 *(.stab.indexstr)

.comment        0x00000000       0x23
 *(.comment)
 .comment       0x00000000       0x23 obj/default/hello_ucosii_0.o
                                 0x24 (size before relaxing)
 .comment       0x00000000       0x24 obj/default/tlb.o
 .comment       0x00000000       0x24 ../critical_library/libcritical_library.a(fingerprint.o)
 .comment       0x00000000       0x24 /CMC/tools/altera/13.1/nios2eds/bin/gnu/H-i686-pc-linux-gnu/bin/../lib/gcc/nios2-elf/4.7.3/../../../../../H-i686-pc-linux-gnu/nios2-elf/lib/mno-hw-mul/libc.a(lib_a-puts.o)
 .comment       0x00000000       0x24 /CMC/tools/altera/13.1/nios2eds/bin/gnu/H-i686-pc-linux-gnu/bin/../lib/gcc/nios2-elf/4.7.3/../../../../../H-i686-pc-linux-gnu/nios2-elf/lib/mno-hw-mul/libc.a(lib_a-strlen.o)
 .comment       0x00000000       0x24 /CMC/tools/altera/13.1/nios2eds/bin/gnu/H-i686-pc-linux-gnu/bin/../lib/gcc/nios2-elf/4.7.3/../../../../../H-i686-pc-linux-gnu/nios2-elf/lib/mno-hw-mul/libc.a(lib_a-fvwrite.o)
 .comment       0x00000000       0x24 /CMC/tools/altera/13.1/nios2eds/bin/gnu/H-i686-pc-linux-gnu/bin/../lib/gcc/nios2-elf/4.7.3/../../../../../H-i686-pc-linux-gnu/nios2-elf/lib/mno-hw-mul/libc.a(lib_a-impure.o)
 .comment       0x00000000       0x24 /CMC/tools/altera/13.1/nios2eds/bin/gnu/H-i686-pc-linux-gnu/bin/../lib/gcc/nios2-elf/4.7.3/../../../../../H-i686-pc-linux-gnu/nios2-elf/lib/mno-hw-mul/libc.a(lib_a-mallocr.o)
 .comment       0x00000000       0x24 /CMC/tools/altera/13.1/nios2eds/bin/gnu/H-i686-pc-linux-gnu/bin/../lib/gcc/nios2-elf/4.7.3/../../../../../H-i686-pc-linux-gnu/nios2-elf/lib/mno-hw-mul/libc.a(lib_a-memchr.o)
 .comment       0x00000000       0x24 /CMC/tools/altera/13.1/nios2eds/bin/gnu/H-i686-pc-linux-gnu/bin/../lib/gcc/nios2-elf/4.7.3/../../../../../H-i686-pc-linux-gnu/nios2-elf/lib/mno-hw-mul/libc.a(lib_a-memcpy.o)
 .comment       0x00000000       0x24 /CMC/tools/altera/13.1/nios2eds/bin/gnu/H-i686-pc-linux-gnu/bin/../lib/gcc/nios2-elf/4.7.3/../../../../../H-i686-pc-linux-gnu/nios2-elf/lib/mno-hw-mul/libc.a(lib_a-memmove.o)
 .comment       0x00000000       0x24 /CMC/tools/altera/13.1/nios2eds/bin/gnu/H-i686-pc-linux-gnu/bin/../lib/gcc/nios2-elf/4.7.3/../../../../../H-i686-pc-linux-gnu/nios2-elf/lib/mno-hw-mul/libc.a(lib_a-reallocr.o)
 .comment       0x00000000       0x24 /CMC/tools/altera/13.1/nios2eds/bin/gnu/H-i686-pc-linux-gnu/bin/../lib/gcc/nios2-elf/4.7.3/../../../../../H-i686-pc-linux-gnu/nios2-elf/lib/mno-hw-mul/libc.a(lib_a-sbrkr.o)
 .comment       0x00000000       0x24 /CMC/tools/altera/13.1/nios2eds/bin/gnu/H-i686-pc-linux-gnu/bin/../lib/gcc/nios2-elf/4.7.3/../../../../../H-i686-pc-linux-gnu/nios2-elf/lib/mno-hw-mul/libc.a(lib_a-wsetup.o)
 .comment       0x00000000       0x24 /CMC/tools/altera/13.1/nios2eds/bin/gnu/H-i686-pc-linux-gnu/bin/../lib/gcc/nios2-elf/4.7.3/../../../../../H-i686-pc-linux-gnu/nios2-elf/lib/mno-hw-mul/libc.a(lib_a-fflush.o)
 .comment       0x00000000       0x24 /CMC/tools/altera/13.1/nios2eds/bin/gnu/H-i686-pc-linux-gnu/bin/../lib/gcc/nios2-elf/4.7.3/../../../../../H-i686-pc-linux-gnu/nios2-elf/lib/mno-hw-mul/libc.a(lib_a-findfp.o)
 .comment       0x00000000       0x24 /CMC/tools/altera/13.1/nios2eds/bin/gnu/H-i686-pc-linux-gnu/bin/../lib/gcc/nios2-elf/4.7.3/../../../../../H-i686-pc-linux-gnu/nios2-elf/lib/mno-hw-mul/libc.a(lib_a-freer.o)
 .comment       0x00000000       0x24 /CMC/tools/altera/13.1/nios2eds/bin/gnu/H-i686-pc-linux-gnu/bin/../lib/gcc/nios2-elf/4.7.3/../../../../../H-i686-pc-linux-gnu/nios2-elf/lib/mno-hw-mul/libc.a(lib_a-fwalk.o)
 .comment       0x00000000       0x24 /CMC/tools/altera/13.1/nios2eds/bin/gnu/H-i686-pc-linux-gnu/bin/../lib/gcc/nios2-elf/4.7.3/../../../../../H-i686-pc-linux-gnu/nios2-elf/lib/mno-hw-mul/libc.a(lib_a-int_errno.o)
 .comment       0x00000000       0x24 /CMC/tools/altera/13.1/nios2eds/bin/gnu/H-i686-pc-linux-gnu/bin/../lib/gcc/nios2-elf/4.7.3/../../../../../H-i686-pc-linux-gnu/nios2-elf/lib/mno-hw-mul/libc.a(lib_a-makebuf.o)
 .comment       0x00000000       0x24 /CMC/tools/altera/13.1/nios2eds/bin/gnu/H-i686-pc-linux-gnu/bin/../lib/gcc/nios2-elf/4.7.3/../../../../../H-i686-pc-linux-gnu/nios2-elf/lib/mno-hw-mul/libc.a(lib_a-memset.o)
 .comment       0x00000000       0x24 /CMC/tools/altera/13.1/nios2eds/bin/gnu/H-i686-pc-linux-gnu/bin/../lib/gcc/nios2-elf/4.7.3/../../../../../H-i686-pc-linux-gnu/nios2-elf/lib/mno-hw-mul/libc.a(lib_a-stdio.o)
 .comment       0x00000000       0x24 /CMC/tools/altera/13.1/nios2eds/bin/gnu/H-i686-pc-linux-gnu/bin/../lib/gcc/nios2-elf/4.7.3/../../../../../H-i686-pc-linux-gnu/nios2-elf/lib/mno-hw-mul/libc.a(lib_a-writer.o)
 .comment       0x00000000       0x24 /CMC/tools/altera/13.1/nios2eds/bin/gnu/H-i686-pc-linux-gnu/bin/../lib/gcc/nios2-elf/4.7.3/../../../../../H-i686-pc-linux-gnu/nios2-elf/lib/mno-hw-mul/libc.a(lib_a-closer.o)
 .comment       0x00000000       0x24 /CMC/tools/altera/13.1/nios2eds/bin/gnu/H-i686-pc-linux-gnu/bin/../lib/gcc/nios2-elf/4.7.3/../../../../../H-i686-pc-linux-gnu/nios2-elf/lib/mno-hw-mul/libc.a(lib_a-fclose.o)
 .comment       0x00000000       0x24 /CMC/tools/altera/13.1/nios2eds/bin/gnu/H-i686-pc-linux-gnu/bin/../lib/gcc/nios2-elf/4.7.3/../../../../../H-i686-pc-linux-gnu/nios2-elf/lib/mno-hw-mul/libc.a(lib_a-fstatr.o)
 .comment       0x00000000       0x24 /CMC/tools/altera/13.1/nios2eds/bin/gnu/H-i686-pc-linux-gnu/bin/../lib/gcc/nios2-elf/4.7.3/../../../../../H-i686-pc-linux-gnu/nios2-elf/lib/mno-hw-mul/libc.a(lib_a-isattyr.o)
 .comment       0x00000000       0x24 /CMC/tools/altera/13.1/nios2eds/bin/gnu/H-i686-pc-linux-gnu/bin/../lib/gcc/nios2-elf/4.7.3/../../../../../H-i686-pc-linux-gnu/nios2-elf/lib/mno-hw-mul/libc.a(lib_a-lseekr.o)
 .comment       0x00000000       0x24 /CMC/tools/altera/13.1/nios2eds/bin/gnu/H-i686-pc-linux-gnu/bin/../lib/gcc/nios2-elf/4.7.3/../../../../../H-i686-pc-linux-gnu/nios2-elf/lib/mno-hw-mul/libc.a(lib_a-readr.o)
 .comment       0x00000000       0x24 /CMC/tools/altera/13.1/nios2eds/bin/gnu/H-i686-pc-linux-gnu/bin/../lib/gcc/nios2-elf/4.7.3/mno-hw-mul/libgcc.a(lib2-mul.o)
 .comment       0x00000000       0x24 ../ucos0_bsp//libucosii_bsp.a(alt_close.o)
 .comment       0x00000000       0x24 ../ucos0_bsp//libucosii_bsp.a(alt_dev.o)
 .comment       0x00000000       0x24 ../ucos0_bsp//libucosii_bsp.a(alt_errno.o)
 .comment       0x00000000       0x24 ../ucos0_bsp//libucosii_bsp.a(alt_fstat.o)
 .comment       0x00000000       0x24 ../ucos0_bsp//libucosii_bsp.a(alt_iic.o)
 .comment       0x00000000       0x24 ../ucos0_bsp//libucosii_bsp.a(alt_iic_isr_register.o)
 .comment       0x00000000       0x24 ../ucos0_bsp//libucosii_bsp.a(alt_irq_handler.o)
 .comment       0x00000000       0x24 ../ucos0_bsp//libucosii_bsp.a(alt_irq_vars.o)
 .comment       0x00000000       0x24 ../ucos0_bsp//libucosii_bsp.a(alt_isatty.o)
 .comment       0x00000000       0x24 ../ucos0_bsp//libucosii_bsp.a(alt_load.o)
 .comment       0x00000000       0x24 ../ucos0_bsp//libucosii_bsp.a(alt_lseek.o)
 .comment       0x00000000       0x24 ../ucos0_bsp//libucosii_bsp.a(alt_main.o)
 .comment       0x00000000       0x24 ../ucos0_bsp//libucosii_bsp.a(alt_read.o)
 .comment       0x00000000       0x24 ../ucos0_bsp//libucosii_bsp.a(alt_release_fd.o)
 .comment       0x00000000       0x24 ../ucos0_bsp//libucosii_bsp.a(alt_sbrk.o)
 .comment       0x00000000       0x24 ../ucos0_bsp//libucosii_bsp.a(alt_write.o)
 .comment       0x00000000       0x24 ../ucos0_bsp//libucosii_bsp.a(alt_env_lock.o)
 .comment       0x00000000       0x24 ../ucos0_bsp//libucosii_bsp.a(alt_malloc_lock.o)
 .comment       0x00000000       0x24 ../ucos0_bsp//libucosii_bsp.a(os_core.o)
 .comment       0x00000000       0x24 ../ucos0_bsp//libucosii_bsp.a(os_dbg.o)
 .comment       0x00000000       0x24 ../ucos0_bsp//libucosii_bsp.a(os_flag.o)
 .comment       0x00000000       0x24 ../ucos0_bsp//libucosii_bsp.a(os_mem.o)
 .comment       0x00000000       0x24 ../ucos0_bsp//libucosii_bsp.a(os_q.o)
 .comment       0x00000000       0x24 ../ucos0_bsp//libucosii_bsp.a(os_sem.o)
 .comment       0x00000000       0x24 ../ucos0_bsp//libucosii_bsp.a(os_task.o)
 .comment       0x00000000       0x24 ../ucos0_bsp//libucosii_bsp.a(os_time.o)
 .comment       0x00000000       0x24 ../ucos0_bsp//libucosii_bsp.a(alt_sys_init.o)
 .comment       0x00000000       0x24 ../ucos0_bsp//libucosii_bsp.a(altera_avalon_jtag_uart_fd.o)
 .comment       0x00000000       0x24 ../ucos0_bsp//libucosii_bsp.a(altera_avalon_jtag_uart_init.o)
 .comment       0x00000000       0x24 ../ucos0_bsp//libucosii_bsp.a(altera_avalon_jtag_uart_ioctl.o)
 .comment       0x00000000       0x24 ../ucos0_bsp//libucosii_bsp.a(altera_avalon_jtag_uart_read.o)
 .comment       0x00000000       0x24 ../ucos0_bsp//libucosii_bsp.a(altera_avalon_jtag_uart_write.o)
 .comment       0x00000000       0x24 ../ucos0_bsp//libucosii_bsp.a(altera_avalon_mutex.o)
 .comment       0x00000000       0x24 ../ucos0_bsp//libucosii_bsp.a(altera_avalon_timer_sc.o)
 .comment       0x00000000       0x24 ../ucos0_bsp//libucosii_bsp.a(altera_avalon_timer_ts.o)
 .comment       0x00000000       0x24 ../ucos0_bsp//libucosii_bsp.a(altera_avalon_timer_vars.o)
 .comment       0x00000000       0x24 ../ucos0_bsp//libucosii_bsp.a(alt_alarm_start.o)
 .comment       0x00000000       0x24 ../ucos0_bsp//libucosii_bsp.a(alt_dcache_flush_all.o)
 .comment       0x00000000       0x24 ../ucos0_bsp//libucosii_bsp.a(alt_dev_llist_insert.o)
 .comment       0x00000000       0x24 ../ucos0_bsp//libucosii_bsp.a(alt_do_ctors.o)
 .comment       0x00000000       0x24 ../ucos0_bsp//libucosii_bsp.a(alt_do_dtors.o)
 .comment       0x00000000       0x24 ../ucos0_bsp//libucosii_bsp.a(alt_find_dev.o)
 .comment       0x00000000       0x24 ../ucos0_bsp//libucosii_bsp.a(alt_icache_flush_all.o)
 .comment       0x00000000       0x24 ../ucos0_bsp//libucosii_bsp.a(alt_io_redirect.o)
 .comment       0x00000000       0x24 ../ucos0_bsp//libucosii_bsp.a(alt_open.o)
 .comment       0x00000000       0x24 ../ucos0_bsp//libucosii_bsp.a(alt_tick.o)
 .comment       0x00000000       0x24 ../ucos0_bsp//libucosii_bsp.a(altera_nios2_qsys_irq.o)
 .comment       0x00000000       0x24 ../ucos0_bsp//libucosii_bsp.a(os_cpu_c.o)
 .comment       0x00000000       0x24 ../ucos0_bsp//libucosii_bsp.a(alt_find_file.o)
 .comment       0x00000000       0x24 ../ucos0_bsp//libucosii_bsp.a(alt_get_fd.o)
 .comment       0x00000000       0x24 ../ucos0_bsp//libucosii_bsp.a(alt_icache_flush.o)
 .comment       0x00000000       0x24 /CMC/tools/altera/13.1/nios2eds/bin/gnu/H-i686-pc-linux-gnu/bin/../lib/gcc/nios2-elf/4.7.3/../../../../../H-i686-pc-linux-gnu/nios2-elf/lib/mno-hw-mul/libc.a(lib_a-atexit.o)
 .comment       0x00000000       0x24 /CMC/tools/altera/13.1/nios2eds/bin/gnu/H-i686-pc-linux-gnu/bin/../lib/gcc/nios2-elf/4.7.3/../../../../../H-i686-pc-linux-gnu/nios2-elf/lib/mno-hw-mul/libc.a(lib_a-exit.o)
 .comment       0x00000000       0x24 /CMC/tools/altera/13.1/nios2eds/bin/gnu/H-i686-pc-linux-gnu/bin/../lib/gcc/nios2-elf/4.7.3/../../../../../H-i686-pc-linux-gnu/nios2-elf/lib/mno-hw-mul/libc.a(lib_a-memcmp.o)
 .comment       0x00000000       0x24 /CMC/tools/altera/13.1/nios2eds/bin/gnu/H-i686-pc-linux-gnu/bin/../lib/gcc/nios2-elf/4.7.3/../../../../../H-i686-pc-linux-gnu/nios2-elf/lib/mno-hw-mul/libc.a(lib_a-__atexit.o)
 .comment       0x00000000       0x24 /CMC/tools/altera/13.1/nios2eds/bin/gnu/H-i686-pc-linux-gnu/bin/../lib/gcc/nios2-elf/4.7.3/../../../../../H-i686-pc-linux-gnu/nios2-elf/lib/mno-hw-mul/libc.a(lib_a-__call_atexit.o)
 .comment       0x00000000       0x24 /CMC/tools/altera/13.1/nios2eds/bin/gnu/H-i686-pc-linux-gnu/bin/../lib/gcc/nios2-elf/4.7.3/mno-hw-mul/libgcc.a(_fixunsdfsi.o)
 .comment       0x00000000       0x24 /CMC/tools/altera/13.1/nios2eds/bin/gnu/H-i686-pc-linux-gnu/bin/../lib/gcc/nios2-elf/4.7.3/mno-hw-mul/libgcc.a(_addsub_df.o)
 .comment       0x00000000       0x24 /CMC/tools/altera/13.1/nios2eds/bin/gnu/H-i686-pc-linux-gnu/bin/../lib/gcc/nios2-elf/4.7.3/mno-hw-mul/libgcc.a(_mul_df.o)
 .comment       0x00000000       0x24 /CMC/tools/altera/13.1/nios2eds/bin/gnu/H-i686-pc-linux-gnu/bin/../lib/gcc/nios2-elf/4.7.3/mno-hw-mul/libgcc.a(_div_df.o)
 .comment       0x00000000       0x24 /CMC/tools/altera/13.1/nios2eds/bin/gnu/H-i686-pc-linux-gnu/bin/../lib/gcc/nios2-elf/4.7.3/mno-hw-mul/libgcc.a(_ge_df.o)
 .comment       0x00000000       0x24 /CMC/tools/altera/13.1/nios2eds/bin/gnu/H-i686-pc-linux-gnu/bin/../lib/gcc/nios2-elf/4.7.3/mno-hw-mul/libgcc.a(_df_to_si.o)
 .comment       0x00000000       0x24 /CMC/tools/altera/13.1/nios2eds/bin/gnu/H-i686-pc-linux-gnu/bin/../lib/gcc/nios2-elf/4.7.3/mno-hw-mul/libgcc.a(_thenan_df.o)
 .comment       0x00000000       0x24 /CMC/tools/altera/13.1/nios2eds/bin/gnu/H-i686-pc-linux-gnu/bin/../lib/gcc/nios2-elf/4.7.3/mno-hw-mul/libgcc.a(_usi_to_df.o)
 .comment       0x00000000       0x24 /CMC/tools/altera/13.1/nios2eds/bin/gnu/H-i686-pc-linux-gnu/bin/../lib/gcc/nios2-elf/4.7.3/mno-hw-mul/libgcc.a(lib2-divmod.o)
 .comment       0x00000000       0x24 /CMC/tools/altera/13.1/nios2eds/bin/gnu/H-i686-pc-linux-gnu/bin/../lib/gcc/nios2-elf/4.7.3/mno-hw-mul/libgcc.a(_muldi3.o)
 .comment       0x00000000       0x24 /CMC/tools/altera/13.1/nios2eds/bin/gnu/H-i686-pc-linux-gnu/bin/../lib/gcc/nios2-elf/4.7.3/mno-hw-mul/libgcc.a(_clzsi2.o)
 .comment       0x00000000       0x24 /CMC/tools/altera/13.1/nios2eds/bin/gnu/H-i686-pc-linux-gnu/bin/../lib/gcc/nios2-elf/4.7.3/mno-hw-mul/libgcc.a(_pack_df.o)
 .comment       0x00000000       0x24 /CMC/tools/altera/13.1/nios2eds/bin/gnu/H-i686-pc-linux-gnu/bin/../lib/gcc/nios2-elf/4.7.3/mno-hw-mul/libgcc.a(_unpack_df.o)
 .comment       0x00000000       0x24 /CMC/tools/altera/13.1/nios2eds/bin/gnu/H-i686-pc-linux-gnu/bin/../lib/gcc/nios2-elf/4.7.3/mno-hw-mul/libgcc.a(_fpcmp_parts_df.o)
 .comment       0x00000000       0x24 /CMC/tools/altera/13.1/nios2eds/bin/gnu/H-i686-pc-linux-gnu/bin/../lib/gcc/nios2-elf/4.7.3/mno-hw-mul/libgcc.a(_lshrdi3.o)
 .comment       0x00000000       0x24 /CMC/tools/altera/13.1/nios2eds/bin/gnu/H-i686-pc-linux-gnu/bin/../lib/gcc/nios2-elf/4.7.3/mno-hw-mul/libgcc.a(_ashldi3.o)
 .comment       0x00000000       0x24 /CMC/tools/altera/13.1/nios2eds/bin/gnu/H-i686-pc-linux-gnu/bin/../lib/gcc/nios2-elf/4.7.3/mno-hw-mul/libgcc.a(_clz.o)
 .comment       0x00000000       0x24 ../ucos0_bsp//libucosii_bsp.a(alt_exit.o)

.debug
 *(.debug)

.line
 *(.line)

.debug_srcinfo
 *(.debug_srcinfo)

.debug_sfnames
 *(.debug_sfnames)

.debug_aranges  0x00000000      0xdb8
 *(.debug_aranges)
 .debug_aranges
                0x00000000       0x28 ../ucos0_bsp//obj/HAL/src/crt0.o
 .debug_aranges
                0x00000028       0x20 obj/default/hello_ucosii_0.o
 .debug_aranges
                0x00000048       0x20 obj/default/tlb.o
 .debug_aranges
                0x00000068       0x20 ../critical_library/libcritical_library.a(fingerprint.o)
 .debug_aranges
                0x00000088       0x20 ../critical_library/libcritical_library.a(context_switch.o)
 .debug_aranges
                0x000000a8       0x20 ../critical_library/libcritical_library.a(gp.o)
 .debug_aranges
                0x000000c8       0x20 /CMC/tools/altera/13.1/nios2eds/bin/gnu/H-i686-pc-linux-gnu/bin/../lib/gcc/nios2-elf/4.7.3/../../../../../H-i686-pc-linux-gnu/nios2-elf/lib/mno-hw-mul/libc.a(lib_a-puts.o)
 .debug_aranges
                0x000000e8       0x20 /CMC/tools/altera/13.1/nios2eds/bin/gnu/H-i686-pc-linux-gnu/bin/../lib/gcc/nios2-elf/4.7.3/../../../../../H-i686-pc-linux-gnu/nios2-elf/lib/mno-hw-mul/libc.a(lib_a-strlen.o)
 .debug_aranges
                0x00000108       0x20 /CMC/tools/altera/13.1/nios2eds/bin/gnu/H-i686-pc-linux-gnu/bin/../lib/gcc/nios2-elf/4.7.3/../../../../../H-i686-pc-linux-gnu/nios2-elf/lib/mno-hw-mul/libc.a(lib_a-fvwrite.o)
 .debug_aranges
                0x00000128       0x18 /CMC/tools/altera/13.1/nios2eds/bin/gnu/H-i686-pc-linux-gnu/bin/../lib/gcc/nios2-elf/4.7.3/../../../../../H-i686-pc-linux-gnu/nios2-elf/lib/mno-hw-mul/libc.a(lib_a-impure.o)
 .debug_aranges
                0x00000140       0x20 /CMC/tools/altera/13.1/nios2eds/bin/gnu/H-i686-pc-linux-gnu/bin/../lib/gcc/nios2-elf/4.7.3/../../../../../H-i686-pc-linux-gnu/nios2-elf/lib/mno-hw-mul/libc.a(lib_a-mallocr.o)
 .debug_aranges
                0x00000160       0x20 /CMC/tools/altera/13.1/nios2eds/bin/gnu/H-i686-pc-linux-gnu/bin/../lib/gcc/nios2-elf/4.7.3/../../../../../H-i686-pc-linux-gnu/nios2-elf/lib/mno-hw-mul/libc.a(lib_a-memchr.o)
 .debug_aranges
                0x00000180       0x20 /CMC/tools/altera/13.1/nios2eds/bin/gnu/H-i686-pc-linux-gnu/bin/../lib/gcc/nios2-elf/4.7.3/../../../../../H-i686-pc-linux-gnu/nios2-elf/lib/mno-hw-mul/libc.a(lib_a-memcpy.o)
 .debug_aranges
                0x000001a0       0x20 /CMC/tools/altera/13.1/nios2eds/bin/gnu/H-i686-pc-linux-gnu/bin/../lib/gcc/nios2-elf/4.7.3/../../../../../H-i686-pc-linux-gnu/nios2-elf/lib/mno-hw-mul/libc.a(lib_a-memmove.o)
 .debug_aranges
                0x000001c0       0x20 /CMC/tools/altera/13.1/nios2eds/bin/gnu/H-i686-pc-linux-gnu/bin/../lib/gcc/nios2-elf/4.7.3/../../../../../H-i686-pc-linux-gnu/nios2-elf/lib/mno-hw-mul/libc.a(lib_a-reallocr.o)
 .debug_aranges
                0x000001e0       0x20 /CMC/tools/altera/13.1/nios2eds/bin/gnu/H-i686-pc-linux-gnu/bin/../lib/gcc/nios2-elf/4.7.3/../../../../../H-i686-pc-linux-gnu/nios2-elf/lib/mno-hw-mul/libc.a(lib_a-sbrkr.o)
 .debug_aranges
                0x00000200       0x20 /CMC/tools/altera/13.1/nios2eds/bin/gnu/H-i686-pc-linux-gnu/bin/../lib/gcc/nios2-elf/4.7.3/../../../../../H-i686-pc-linux-gnu/nios2-elf/lib/mno-hw-mul/libc.a(lib_a-wsetup.o)
 .debug_aranges
                0x00000220       0x20 /CMC/tools/altera/13.1/nios2eds/bin/gnu/H-i686-pc-linux-gnu/bin/../lib/gcc/nios2-elf/4.7.3/../../../../../H-i686-pc-linux-gnu/nios2-elf/lib/mno-hw-mul/libc.a(lib_a-fflush.o)
 .debug_aranges
                0x00000240       0x20 /CMC/tools/altera/13.1/nios2eds/bin/gnu/H-i686-pc-linux-gnu/bin/../lib/gcc/nios2-elf/4.7.3/../../../../../H-i686-pc-linux-gnu/nios2-elf/lib/mno-hw-mul/libc.a(lib_a-findfp.o)
 .debug_aranges
                0x00000260       0x20 /CMC/tools/altera/13.1/nios2eds/bin/gnu/H-i686-pc-linux-gnu/bin/../lib/gcc/nios2-elf/4.7.3/../../../../../H-i686-pc-linux-gnu/nios2-elf/lib/mno-hw-mul/libc.a(lib_a-freer.o)
 .debug_aranges
                0x00000280       0x20 /CMC/tools/altera/13.1/nios2eds/bin/gnu/H-i686-pc-linux-gnu/bin/../lib/gcc/nios2-elf/4.7.3/../../../../../H-i686-pc-linux-gnu/nios2-elf/lib/mno-hw-mul/libc.a(lib_a-fwalk.o)
 .debug_aranges
                0x000002a0       0x18 /CMC/tools/altera/13.1/nios2eds/bin/gnu/H-i686-pc-linux-gnu/bin/../lib/gcc/nios2-elf/4.7.3/../../../../../H-i686-pc-linux-gnu/nios2-elf/lib/mno-hw-mul/libc.a(lib_a-int_errno.o)
 .debug_aranges
                0x000002b8       0x20 /CMC/tools/altera/13.1/nios2eds/bin/gnu/H-i686-pc-linux-gnu/bin/../lib/gcc/nios2-elf/4.7.3/../../../../../H-i686-pc-linux-gnu/nios2-elf/lib/mno-hw-mul/libc.a(lib_a-makebuf.o)
 .debug_aranges
                0x000002d8       0x20 /CMC/tools/altera/13.1/nios2eds/bin/gnu/H-i686-pc-linux-gnu/bin/../lib/gcc/nios2-elf/4.7.3/../../../../../H-i686-pc-linux-gnu/nios2-elf/lib/mno-hw-mul/libc.a(lib_a-memset.o)
 .debug_aranges
                0x000002f8       0x20 /CMC/tools/altera/13.1/nios2eds/bin/gnu/H-i686-pc-linux-gnu/bin/../lib/gcc/nios2-elf/4.7.3/../../../../../H-i686-pc-linux-gnu/nios2-elf/lib/mno-hw-mul/libc.a(lib_a-stdio.o)
 .debug_aranges
                0x00000318       0x20 /CMC/tools/altera/13.1/nios2eds/bin/gnu/H-i686-pc-linux-gnu/bin/../lib/gcc/nios2-elf/4.7.3/../../../../../H-i686-pc-linux-gnu/nios2-elf/lib/mno-hw-mul/libc.a(lib_a-writer.o)
 .debug_aranges
                0x00000338       0x20 /CMC/tools/altera/13.1/nios2eds/bin/gnu/H-i686-pc-linux-gnu/bin/../lib/gcc/nios2-elf/4.7.3/../../../../../H-i686-pc-linux-gnu/nios2-elf/lib/mno-hw-mul/libc.a(lib_a-closer.o)
 .debug_aranges
                0x00000358       0x20 /CMC/tools/altera/13.1/nios2eds/bin/gnu/H-i686-pc-linux-gnu/bin/../lib/gcc/nios2-elf/4.7.3/../../../../../H-i686-pc-linux-gnu/nios2-elf/lib/mno-hw-mul/libc.a(lib_a-fclose.o)
 .debug_aranges
                0x00000378       0x20 /CMC/tools/altera/13.1/nios2eds/bin/gnu/H-i686-pc-linux-gnu/bin/../lib/gcc/nios2-elf/4.7.3/../../../../../H-i686-pc-linux-gnu/nios2-elf/lib/mno-hw-mul/libc.a(lib_a-fstatr.o)
 .debug_aranges
                0x00000398       0x20 /CMC/tools/altera/13.1/nios2eds/bin/gnu/H-i686-pc-linux-gnu/bin/../lib/gcc/nios2-elf/4.7.3/../../../../../H-i686-pc-linux-gnu/nios2-elf/lib/mno-hw-mul/libc.a(lib_a-isattyr.o)
 .debug_aranges
                0x000003b8       0x20 /CMC/tools/altera/13.1/nios2eds/bin/gnu/H-i686-pc-linux-gnu/bin/../lib/gcc/nios2-elf/4.7.3/../../../../../H-i686-pc-linux-gnu/nios2-elf/lib/mno-hw-mul/libc.a(lib_a-lseekr.o)
 .debug_aranges
                0x000003d8       0x20 /CMC/tools/altera/13.1/nios2eds/bin/gnu/H-i686-pc-linux-gnu/bin/../lib/gcc/nios2-elf/4.7.3/../../../../../H-i686-pc-linux-gnu/nios2-elf/lib/mno-hw-mul/libc.a(lib_a-readr.o)
 .debug_aranges
                0x000003f8       0x20 /CMC/tools/altera/13.1/nios2eds/bin/gnu/H-i686-pc-linux-gnu/bin/../lib/gcc/nios2-elf/4.7.3/mno-hw-mul/libgcc.a(lib2-mul.o)
 .debug_aranges
                0x00000418       0x20 ../ucos0_bsp//libucosii_bsp.a(alt_close.o)
 .debug_aranges
                0x00000438       0x20 ../ucos0_bsp//libucosii_bsp.a(alt_dev.o)
 .debug_aranges
                0x00000458       0x18 ../ucos0_bsp//libucosii_bsp.a(alt_errno.o)
 .debug_aranges
                0x00000470       0x20 ../ucos0_bsp//libucosii_bsp.a(alt_fstat.o)
 .debug_aranges
                0x00000490       0x20 ../ucos0_bsp//libucosii_bsp.a(alt_iic.o)
 .debug_aranges
                0x000004b0       0x20 ../ucos0_bsp//libucosii_bsp.a(alt_iic_isr_register.o)
 .debug_aranges
                0x000004d0       0x30 ../ucos0_bsp//libucosii_bsp.a(alt_irq_entry.o)
 .debug_aranges
                0x00000500       0x20 ../ucos0_bsp//libucosii_bsp.a(alt_irq_handler.o)
 .debug_aranges
                0x00000520       0x18 ../ucos0_bsp//libucosii_bsp.a(alt_irq_vars.o)
 .debug_aranges
                0x00000538       0x20 ../ucos0_bsp//libucosii_bsp.a(alt_isatty.o)
 .debug_aranges
                0x00000558       0x20 ../ucos0_bsp//libucosii_bsp.a(alt_load.o)
 .debug_aranges
                0x00000578       0x20 ../ucos0_bsp//libucosii_bsp.a(alt_lseek.o)
 .debug_aranges
                0x00000598       0x20 ../ucos0_bsp//libucosii_bsp.a(alt_main.o)
 .debug_aranges
                0x000005b8       0x20 ../ucos0_bsp//libucosii_bsp.a(alt_read.o)
 .debug_aranges
                0x000005d8       0x20 ../ucos0_bsp//libucosii_bsp.a(alt_release_fd.o)
 .debug_aranges
                0x000005f8       0x20 ../ucos0_bsp//libucosii_bsp.a(alt_sbrk.o)
 .debug_aranges
                0x00000618       0x20 ../ucos0_bsp//libucosii_bsp.a(alt_write.o)
 .debug_aranges
                0x00000638       0x20 ../ucos0_bsp//libucosii_bsp.a(alt_env_lock.o)
 .debug_aranges
                0x00000658       0x20 ../ucos0_bsp//libucosii_bsp.a(alt_malloc_lock.o)
 .debug_aranges
                0x00000678       0x20 ../ucos0_bsp//libucosii_bsp.a(os_core.o)
 .debug_aranges
                0x00000698       0x20 ../ucos0_bsp//libucosii_bsp.a(os_dbg.o)
 .debug_aranges
                0x000006b8       0x20 ../ucos0_bsp//libucosii_bsp.a(os_flag.o)
 .debug_aranges
                0x000006d8       0x20 ../ucos0_bsp//libucosii_bsp.a(os_mem.o)
 .debug_aranges
                0x000006f8       0x20 ../ucos0_bsp//libucosii_bsp.a(os_q.o)
 .debug_aranges
                0x00000718       0x20 ../ucos0_bsp//libucosii_bsp.a(os_sem.o)
 .debug_aranges
                0x00000738       0x20 ../ucos0_bsp//libucosii_bsp.a(os_task.o)
 .debug_aranges
                0x00000758       0x20 ../ucos0_bsp//libucosii_bsp.a(os_time.o)
 .debug_aranges
                0x00000778       0x20 ../ucos0_bsp//libucosii_bsp.a(alt_sys_init.o)
 .debug_aranges
                0x00000798       0x20 ../ucos0_bsp//libucosii_bsp.a(altera_avalon_jtag_uart_fd.o)
 .debug_aranges
                0x000007b8       0x20 ../ucos0_bsp//libucosii_bsp.a(altera_avalon_jtag_uart_init.o)
 .debug_aranges
                0x000007d8       0x20 ../ucos0_bsp//libucosii_bsp.a(altera_avalon_jtag_uart_ioctl.o)
 .debug_aranges
                0x000007f8       0x20 ../ucos0_bsp//libucosii_bsp.a(altera_avalon_jtag_uart_read.o)
 .debug_aranges
                0x00000818       0x20 ../ucos0_bsp//libucosii_bsp.a(altera_avalon_jtag_uart_write.o)
 .debug_aranges
                0x00000838       0x20 ../ucos0_bsp//libucosii_bsp.a(altera_avalon_mutex.o)
 .debug_aranges
                0x00000858       0x20 ../ucos0_bsp//libucosii_bsp.a(altera_avalon_timer_sc.o)
 .debug_aranges
                0x00000878       0x20 ../ucos0_bsp//libucosii_bsp.a(altera_avalon_timer_ts.o)
 .debug_aranges
                0x00000898       0x18 ../ucos0_bsp//libucosii_bsp.a(altera_avalon_timer_vars.o)
 .debug_aranges
                0x000008b0       0x20 ../ucos0_bsp//libucosii_bsp.a(alt_alarm_start.o)
 .debug_aranges
                0x000008d0       0x20 ../ucos0_bsp//libucosii_bsp.a(alt_dcache_flush_all.o)
 .debug_aranges
                0x000008f0       0x20 ../ucos0_bsp//libucosii_bsp.a(alt_dev_llist_insert.o)
 .debug_aranges
                0x00000910       0x20 ../ucos0_bsp//libucosii_bsp.a(alt_do_ctors.o)
 .debug_aranges
                0x00000930       0x20 ../ucos0_bsp//libucosii_bsp.a(alt_do_dtors.o)
 .debug_aranges
                0x00000950       0x38 ../ucos0_bsp//libucosii_bsp.a(alt_exception_entry.o)
 .debug_aranges
                0x00000988       0x20 ../ucos0_bsp//libucosii_bsp.a(alt_find_dev.o)
 .debug_aranges
                0x000009a8       0x20 ../ucos0_bsp//libucosii_bsp.a(alt_icache_flush_all.o)
 .debug_aranges
                0x000009c8       0x20 ../ucos0_bsp//libucosii_bsp.a(alt_io_redirect.o)
 .debug_aranges
                0x000009e8       0x20 ../ucos0_bsp//libucosii_bsp.a(alt_open.o)
 .debug_aranges
                0x00000a08       0x20 ../ucos0_bsp//libucosii_bsp.a(alt_tick.o)
 .debug_aranges
                0x00000a28       0x20 ../ucos0_bsp//libucosii_bsp.a(altera_nios2_qsys_irq.o)
 .debug_aranges
                0x00000a48       0x20 ../ucos0_bsp//libucosii_bsp.a(os_cpu_a.o)
 .debug_aranges
                0x00000a68       0x20 ../ucos0_bsp//libucosii_bsp.a(os_cpu_c.o)
 .debug_aranges
                0x00000a88       0x20 ../ucos0_bsp//libucosii_bsp.a(alt_find_file.o)
 .debug_aranges
                0x00000aa8       0x20 ../ucos0_bsp//libucosii_bsp.a(alt_get_fd.o)
 .debug_aranges
                0x00000ac8       0x20 ../ucos0_bsp//libucosii_bsp.a(alt_icache_flush.o)
 .debug_aranges
                0x00000ae8       0x20 /CMC/tools/altera/13.1/nios2eds/bin/gnu/H-i686-pc-linux-gnu/bin/../lib/gcc/nios2-elf/4.7.3/../../../../../H-i686-pc-linux-gnu/nios2-elf/lib/mno-hw-mul/libc.a(lib_a-atexit.o)
 .debug_aranges
                0x00000b08       0x20 /CMC/tools/altera/13.1/nios2eds/bin/gnu/H-i686-pc-linux-gnu/bin/../lib/gcc/nios2-elf/4.7.3/../../../../../H-i686-pc-linux-gnu/nios2-elf/lib/mno-hw-mul/libc.a(lib_a-exit.o)
 .debug_aranges
                0x00000b28       0x20 /CMC/tools/altera/13.1/nios2eds/bin/gnu/H-i686-pc-linux-gnu/bin/../lib/gcc/nios2-elf/4.7.3/../../../../../H-i686-pc-linux-gnu/nios2-elf/lib/mno-hw-mul/libc.a(lib_a-memcmp.o)
 .debug_aranges
                0x00000b48       0x20 /CMC/tools/altera/13.1/nios2eds/bin/gnu/H-i686-pc-linux-gnu/bin/../lib/gcc/nios2-elf/4.7.3/../../../../../H-i686-pc-linux-gnu/nios2-elf/lib/mno-hw-mul/libc.a(lib_a-__atexit.o)
 .debug_aranges
                0x00000b68       0x20 /CMC/tools/altera/13.1/nios2eds/bin/gnu/H-i686-pc-linux-gnu/bin/../lib/gcc/nios2-elf/4.7.3/../../../../../H-i686-pc-linux-gnu/nios2-elf/lib/mno-hw-mul/libc.a(lib_a-__call_atexit.o)
 .debug_aranges
                0x00000b88       0x20 /CMC/tools/altera/13.1/nios2eds/bin/gnu/H-i686-pc-linux-gnu/bin/../lib/gcc/nios2-elf/4.7.3/mno-hw-mul/libgcc.a(_fixunsdfsi.o)
 .debug_aranges
                0x00000ba8       0x20 /CMC/tools/altera/13.1/nios2eds/bin/gnu/H-i686-pc-linux-gnu/bin/../lib/gcc/nios2-elf/4.7.3/mno-hw-mul/libgcc.a(_addsub_df.o)
 .debug_aranges
                0x00000bc8       0x20 /CMC/tools/altera/13.1/nios2eds/bin/gnu/H-i686-pc-linux-gnu/bin/../lib/gcc/nios2-elf/4.7.3/mno-hw-mul/libgcc.a(_mul_df.o)
 .debug_aranges
                0x00000be8       0x20 /CMC/tools/altera/13.1/nios2eds/bin/gnu/H-i686-pc-linux-gnu/bin/../lib/gcc/nios2-elf/4.7.3/mno-hw-mul/libgcc.a(_div_df.o)
 .debug_aranges
                0x00000c08       0x20 /CMC/tools/altera/13.1/nios2eds/bin/gnu/H-i686-pc-linux-gnu/bin/../lib/gcc/nios2-elf/4.7.3/mno-hw-mul/libgcc.a(_ge_df.o)
 .debug_aranges
                0x00000c28       0x20 /CMC/tools/altera/13.1/nios2eds/bin/gnu/H-i686-pc-linux-gnu/bin/../lib/gcc/nios2-elf/4.7.3/mno-hw-mul/libgcc.a(_df_to_si.o)
 .debug_aranges
                0x00000c48       0x18 /CMC/tools/altera/13.1/nios2eds/bin/gnu/H-i686-pc-linux-gnu/bin/../lib/gcc/nios2-elf/4.7.3/mno-hw-mul/libgcc.a(_thenan_df.o)
 .debug_aranges
                0x00000c60       0x20 /CMC/tools/altera/13.1/nios2eds/bin/gnu/H-i686-pc-linux-gnu/bin/../lib/gcc/nios2-elf/4.7.3/mno-hw-mul/libgcc.a(_usi_to_df.o)
 .debug_aranges
                0x00000c80       0x20 /CMC/tools/altera/13.1/nios2eds/bin/gnu/H-i686-pc-linux-gnu/bin/../lib/gcc/nios2-elf/4.7.3/mno-hw-mul/libgcc.a(lib2-divmod.o)
 .debug_aranges
                0x00000ca0       0x20 /CMC/tools/altera/13.1/nios2eds/bin/gnu/H-i686-pc-linux-gnu/bin/../lib/gcc/nios2-elf/4.7.3/mno-hw-mul/libgcc.a(_muldi3.o)
 .debug_aranges
                0x00000cc0       0x20 /CMC/tools/altera/13.1/nios2eds/bin/gnu/H-i686-pc-linux-gnu/bin/../lib/gcc/nios2-elf/4.7.3/mno-hw-mul/libgcc.a(_clzsi2.o)
 .debug_aranges
                0x00000ce0       0x20 /CMC/tools/altera/13.1/nios2eds/bin/gnu/H-i686-pc-linux-gnu/bin/../lib/gcc/nios2-elf/4.7.3/mno-hw-mul/libgcc.a(_pack_df.o)
 .debug_aranges
                0x00000d00       0x20 /CMC/tools/altera/13.1/nios2eds/bin/gnu/H-i686-pc-linux-gnu/bin/../lib/gcc/nios2-elf/4.7.3/mno-hw-mul/libgcc.a(_unpack_df.o)
 .debug_aranges
                0x00000d20       0x20 /CMC/tools/altera/13.1/nios2eds/bin/gnu/H-i686-pc-linux-gnu/bin/../lib/gcc/nios2-elf/4.7.3/mno-hw-mul/libgcc.a(_fpcmp_parts_df.o)
 .debug_aranges
                0x00000d40       0x20 /CMC/tools/altera/13.1/nios2eds/bin/gnu/H-i686-pc-linux-gnu/bin/../lib/gcc/nios2-elf/4.7.3/mno-hw-mul/libgcc.a(_lshrdi3.o)
 .debug_aranges
                0x00000d60       0x20 /CMC/tools/altera/13.1/nios2eds/bin/gnu/H-i686-pc-linux-gnu/bin/../lib/gcc/nios2-elf/4.7.3/mno-hw-mul/libgcc.a(_ashldi3.o)
 .debug_aranges
                0x00000d80       0x18 /CMC/tools/altera/13.1/nios2eds/bin/gnu/H-i686-pc-linux-gnu/bin/../lib/gcc/nios2-elf/4.7.3/mno-hw-mul/libgcc.a(_clz.o)
 .debug_aranges
                0x00000d98       0x20 ../ucos0_bsp//libucosii_bsp.a(alt_exit.o)

.debug_pubnames
 *(.debug_pubnames)

.debug_info     0x00000000    0x2668d
 *(.debug_info .gnu.linkonce.wi.*)
 .debug_info    0x00000000       0x82 ../ucos0_bsp//obj/HAL/src/crt0.o
 .debug_info    0x00000082      0x68e obj/default/hello_ucosii_0.o
 .debug_info    0x00000710      0x2c1 obj/default/tlb.o
 .debug_info    0x000009d1      0x357 ../critical_library/libcritical_library.a(fingerprint.o)
 .debug_info    0x00000d28       0x8f ../critical_library/libcritical_library.a(context_switch.o)
 .debug_info    0x00000db7       0x83 ../critical_library/libcritical_library.a(gp.o)
 .debug_info    0x00000e3a      0xab7 /CMC/tools/altera/13.1/nios2eds/bin/gnu/H-i686-pc-linux-gnu/bin/../lib/gcc/nios2-elf/4.7.3/../../../../../H-i686-pc-linux-gnu/nios2-elf/lib/mno-hw-mul/libc.a(lib_a-puts.o)
 .debug_info    0x000018f1       0xdf /CMC/tools/altera/13.1/nios2eds/bin/gnu/H-i686-pc-linux-gnu/bin/../lib/gcc/nios2-elf/4.7.3/../../../../../H-i686-pc-linux-gnu/nios2-elf/lib/mno-hw-mul/libc.a(lib_a-strlen.o)
 .debug_info    0x000019d0      0xd05 /CMC/tools/altera/13.1/nios2eds/bin/gnu/H-i686-pc-linux-gnu/bin/../lib/gcc/nios2-elf/4.7.3/../../../../../H-i686-pc-linux-gnu/nios2-elf/lib/mno-hw-mul/libc.a(lib_a-fvwrite.o)
 .debug_info    0x000026d5      0x938 /CMC/tools/altera/13.1/nios2eds/bin/gnu/H-i686-pc-linux-gnu/bin/../lib/gcc/nios2-elf/4.7.3/../../../../../H-i686-pc-linux-gnu/nios2-elf/lib/mno-hw-mul/libc.a(lib_a-impure.o)
 .debug_info    0x0000300d      0xe44 /CMC/tools/altera/13.1/nios2eds/bin/gnu/H-i686-pc-linux-gnu/bin/../lib/gcc/nios2-elf/4.7.3/../../../../../H-i686-pc-linux-gnu/nios2-elf/lib/mno-hw-mul/libc.a(lib_a-mallocr.o)
 .debug_info    0x00003e51      0x13e /CMC/tools/altera/13.1/nios2eds/bin/gnu/H-i686-pc-linux-gnu/bin/../lib/gcc/nios2-elf/4.7.3/../../../../../H-i686-pc-linux-gnu/nios2-elf/lib/mno-hw-mul/libc.a(lib_a-memchr.o)
 .debug_info    0x00003f8f      0x10f /CMC/tools/altera/13.1/nios2eds/bin/gnu/H-i686-pc-linux-gnu/bin/../lib/gcc/nios2-elf/4.7.3/../../../../../H-i686-pc-linux-gnu/nios2-elf/lib/mno-hw-mul/libc.a(lib_a-memcpy.o)
 .debug_info    0x0000409e      0x147 /CMC/tools/altera/13.1/nios2eds/bin/gnu/H-i686-pc-linux-gnu/bin/../lib/gcc/nios2-elf/4.7.3/../../../../../H-i686-pc-linux-gnu/nios2-elf/lib/mno-hw-mul/libc.a(lib_a-memmove.o)
 .debug_info    0x000041e5      0xd8e /CMC/tools/altera/13.1/nios2eds/bin/gnu/H-i686-pc-linux-gnu/bin/../lib/gcc/nios2-elf/4.7.3/../../../../../H-i686-pc-linux-gnu/nios2-elf/lib/mno-hw-mul/libc.a(lib_a-reallocr.o)
 .debug_info    0x00004f73      0x9a3 /CMC/tools/altera/13.1/nios2eds/bin/gnu/H-i686-pc-linux-gnu/bin/../lib/gcc/nios2-elf/4.7.3/../../../../../H-i686-pc-linux-gnu/nios2-elf/lib/mno-hw-mul/libc.a(lib_a-sbrkr.o)
 .debug_info    0x00005916      0x9d4 /CMC/tools/altera/13.1/nios2eds/bin/gnu/H-i686-pc-linux-gnu/bin/../lib/gcc/nios2-elf/4.7.3/../../../../../H-i686-pc-linux-gnu/nios2-elf/lib/mno-hw-mul/libc.a(lib_a-wsetup.o)
 .debug_info    0x000062ea      0xad0 /CMC/tools/altera/13.1/nios2eds/bin/gnu/H-i686-pc-linux-gnu/bin/../lib/gcc/nios2-elf/4.7.3/../../../../../H-i686-pc-linux-gnu/nios2-elf/lib/mno-hw-mul/libc.a(lib_a-fflush.o)
 .debug_info    0x00006dba      0xd6e /CMC/tools/altera/13.1/nios2eds/bin/gnu/H-i686-pc-linux-gnu/bin/../lib/gcc/nios2-elf/4.7.3/../../../../../H-i686-pc-linux-gnu/nios2-elf/lib/mno-hw-mul/libc.a(lib_a-findfp.o)
 .debug_info    0x00007b28      0xcf9 /CMC/tools/altera/13.1/nios2eds/bin/gnu/H-i686-pc-linux-gnu/bin/../lib/gcc/nios2-elf/4.7.3/../../../../../H-i686-pc-linux-gnu/nios2-elf/lib/mno-hw-mul/libc.a(lib_a-freer.o)
 .debug_info    0x00008821      0xb72 /CMC/tools/altera/13.1/nios2eds/bin/gnu/H-i686-pc-linux-gnu/bin/../lib/gcc/nios2-elf/4.7.3/../../../../../H-i686-pc-linux-gnu/nios2-elf/lib/mno-hw-mul/libc.a(lib_a-fwalk.o)
 .debug_info    0x00009393       0x84 /CMC/tools/altera/13.1/nios2eds/bin/gnu/H-i686-pc-linux-gnu/bin/../lib/gcc/nios2-elf/4.7.3/../../../../../H-i686-pc-linux-gnu/nios2-elf/lib/mno-hw-mul/libc.a(lib_a-int_errno.o)
 .debug_info    0x00009417      0xbc2 /CMC/tools/altera/13.1/nios2eds/bin/gnu/H-i686-pc-linux-gnu/bin/../lib/gcc/nios2-elf/4.7.3/../../../../../H-i686-pc-linux-gnu/nios2-elf/lib/mno-hw-mul/libc.a(lib_a-makebuf.o)
 .debug_info    0x00009fd9      0x117 /CMC/tools/altera/13.1/nios2eds/bin/gnu/H-i686-pc-linux-gnu/bin/../lib/gcc/nios2-elf/4.7.3/../../../../../H-i686-pc-linux-gnu/nios2-elf/lib/mno-hw-mul/libc.a(lib_a-memset.o)
 .debug_info    0x0000a0f0      0xbfd /CMC/tools/altera/13.1/nios2eds/bin/gnu/H-i686-pc-linux-gnu/bin/../lib/gcc/nios2-elf/4.7.3/../../../../../H-i686-pc-linux-gnu/nios2-elf/lib/mno-hw-mul/libc.a(lib_a-stdio.o)
 .debug_info    0x0000aced      0x9d2 /CMC/tools/altera/13.1/nios2eds/bin/gnu/H-i686-pc-linux-gnu/bin/../lib/gcc/nios2-elf/4.7.3/../../../../../H-i686-pc-linux-gnu/nios2-elf/lib/mno-hw-mul/libc.a(lib_a-writer.o)
 .debug_info    0x0000b6bf      0x97f /CMC/tools/altera/13.1/nios2eds/bin/gnu/H-i686-pc-linux-gnu/bin/../lib/gcc/nios2-elf/4.7.3/../../../../../H-i686-pc-linux-gnu/nios2-elf/lib/mno-hw-mul/libc.a(lib_a-closer.o)
 .debug_info    0x0000c03e      0xa97 /CMC/tools/altera/13.1/nios2eds/bin/gnu/H-i686-pc-linux-gnu/bin/../lib/gcc/nios2-elf/4.7.3/../../../../../H-i686-pc-linux-gnu/nios2-elf/lib/mno-hw-mul/libc.a(lib_a-fclose.o)
 .debug_info    0x0000cad5      0xb2f /CMC/tools/altera/13.1/nios2eds/bin/gnu/H-i686-pc-linux-gnu/bin/../lib/gcc/nios2-elf/4.7.3/../../../../../H-i686-pc-linux-gnu/nios2-elf/lib/mno-hw-mul/libc.a(lib_a-fstatr.o)
 .debug_info    0x0000d604      0x97f /CMC/tools/altera/13.1/nios2eds/bin/gnu/H-i686-pc-linux-gnu/bin/../lib/gcc/nios2-elf/4.7.3/../../../../../H-i686-pc-linux-gnu/nios2-elf/lib/mno-hw-mul/libc.a(lib_a-isattyr.o)
 .debug_info    0x0000df83      0x9cb /CMC/tools/altera/13.1/nios2eds/bin/gnu/H-i686-pc-linux-gnu/bin/../lib/gcc/nios2-elf/4.7.3/../../../../../H-i686-pc-linux-gnu/nios2-elf/lib/mno-hw-mul/libc.a(lib_a-lseekr.o)
 .debug_info    0x0000e94e      0x9cb /CMC/tools/altera/13.1/nios2eds/bin/gnu/H-i686-pc-linux-gnu/bin/../lib/gcc/nios2-elf/4.7.3/../../../../../H-i686-pc-linux-gnu/nios2-elf/lib/mno-hw-mul/libc.a(lib_a-readr.o)
 .debug_info    0x0000f319       0xb8 /CMC/tools/altera/13.1/nios2eds/bin/gnu/H-i686-pc-linux-gnu/bin/../lib/gcc/nios2-elf/4.7.3/mno-hw-mul/libgcc.a(lib2-mul.o)
 .debug_info    0x0000f3d1      0x388 ../ucos0_bsp//libucosii_bsp.a(alt_close.o)
 .debug_info    0x0000f759      0x5dd ../ucos0_bsp//libucosii_bsp.a(alt_dev.o)
 .debug_info    0x0000fd36       0xa3 ../ucos0_bsp//libucosii_bsp.a(alt_errno.o)
 .debug_info    0x0000fdd9      0x510 ../ucos0_bsp//libucosii_bsp.a(alt_fstat.o)
 .debug_info    0x000102e9      0x393 ../ucos0_bsp//libucosii_bsp.a(alt_iic.o)
 .debug_info    0x0001067c      0x213 ../ucos0_bsp//libucosii_bsp.a(alt_iic_isr_register.o)
 .debug_info    0x0001088f       0x8b ../ucos0_bsp//libucosii_bsp.a(alt_irq_entry.o)
 .debug_info    0x0001091a      0x1bd ../ucos0_bsp//libucosii_bsp.a(alt_irq_handler.o)
 .debug_info    0x00010ad7       0x8a ../ucos0_bsp//libucosii_bsp.a(alt_irq_vars.o)
 .debug_info    0x00010b61      0x513 ../ucos0_bsp//libucosii_bsp.a(alt_isatty.o)
 .debug_info    0x00011074      0x135 ../ucos0_bsp//libucosii_bsp.a(alt_load.o)
 .debug_info    0x000111a9      0x3b9 ../ucos0_bsp//libucosii_bsp.a(alt_lseek.o)
 .debug_info    0x00011562      0x28b ../ucos0_bsp//libucosii_bsp.a(alt_main.o)
 .debug_info    0x000117ed      0x538 ../ucos0_bsp//libucosii_bsp.a(alt_read.o)
 .debug_info    0x00011d25      0x323 ../ucos0_bsp//libucosii_bsp.a(alt_release_fd.o)
 .debug_info    0x00012048      0x1e1 ../ucos0_bsp//libucosii_bsp.a(alt_sbrk.o)
 .debug_info    0x00012229      0x53f ../ucos0_bsp//libucosii_bsp.a(alt_write.o)
 .debug_info    0x00012768      0xd5c ../ucos0_bsp//libucosii_bsp.a(alt_env_lock.o)
 .debug_info    0x000134c4      0xf0d ../ucos0_bsp//libucosii_bsp.a(alt_malloc_lock.o)
 .debug_info    0x000143d1     0x1978 ../ucos0_bsp//libucosii_bsp.a(os_core.o)
 .debug_info    0x00015d49      0xb93 ../ucos0_bsp//libucosii_bsp.a(os_dbg.o)
 .debug_info    0x000168dc     0x12c6 ../ucos0_bsp//libucosii_bsp.a(os_flag.o)
 .debug_info    0x00017ba2      0x767 ../ucos0_bsp//libucosii_bsp.a(os_mem.o)
 .debug_info    0x00018309     0x100a ../ucos0_bsp//libucosii_bsp.a(os_q.o)
 .debug_info    0x00019313      0xbb5 ../ucos0_bsp//libucosii_bsp.a(os_sem.o)
 .debug_info    0x00019ec8     0x14da ../ucos0_bsp//libucosii_bsp.a(os_task.o)
 .debug_info    0x0001b3a2      0x7f8 ../ucos0_bsp//libucosii_bsp.a(os_time.o)
 .debug_info    0x0001bb9a      0x7f0 ../ucos0_bsp//libucosii_bsp.a(alt_sys_init.o)
 .debug_info    0x0001c38a      0x6f3 ../ucos0_bsp//libucosii_bsp.a(altera_avalon_jtag_uart_fd.o)
 .debug_info    0x0001ca7d      0x709 ../ucos0_bsp//libucosii_bsp.a(altera_avalon_jtag_uart_init.o)
 .debug_info    0x0001d186      0x412 ../ucos0_bsp//libucosii_bsp.a(altera_avalon_jtag_uart_ioctl.o)
 .debug_info    0x0001d598      0x5e2 ../ucos0_bsp//libucosii_bsp.a(altera_avalon_jtag_uart_read.o)
 .debug_info    0x0001db7a      0x5e0 ../ucos0_bsp//libucosii_bsp.a(altera_avalon_jtag_uart_write.o)
 .debug_info    0x0001e15a      0x54b ../ucos0_bsp//libucosii_bsp.a(altera_avalon_mutex.o)
 .debug_info    0x0001e6a5      0x252 ../ucos0_bsp//libucosii_bsp.a(altera_avalon_timer_sc.o)
 .debug_info    0x0001e8f7      0x1b7 ../ucos0_bsp//libucosii_bsp.a(altera_avalon_timer_ts.o)
 .debug_info    0x0001eaae       0xea ../ucos0_bsp//libucosii_bsp.a(altera_avalon_timer_vars.o)
 .debug_info    0x0001eb98      0x301 ../ucos0_bsp//libucosii_bsp.a(alt_alarm_start.o)
 .debug_info    0x0001ee99       0x90 ../ucos0_bsp//libucosii_bsp.a(alt_dcache_flush_all.o)
 .debug_info    0x0001ef29      0x1b9 ../ucos0_bsp//libucosii_bsp.a(alt_dev_llist_insert.o)
 .debug_info    0x0001f0e2       0x8d ../ucos0_bsp//libucosii_bsp.a(alt_do_ctors.o)
 .debug_info    0x0001f16f       0x8d ../ucos0_bsp//libucosii_bsp.a(alt_do_dtors.o)
 .debug_info    0x0001f1fc       0x91 ../ucos0_bsp//libucosii_bsp.a(alt_exception_entry.o)
 .debug_info    0x0001f28d      0x345 ../ucos0_bsp//libucosii_bsp.a(alt_find_dev.o)
 .debug_info    0x0001f5d2       0x90 ../ucos0_bsp//libucosii_bsp.a(alt_icache_flush_all.o)
 .debug_info    0x0001f662      0x528 ../ucos0_bsp//libucosii_bsp.a(alt_io_redirect.o)
 .debug_info    0x0001fb8a      0x41d ../ucos0_bsp//libucosii_bsp.a(alt_open.o)
 .debug_info    0x0001ffa7      0x2dc ../ucos0_bsp//libucosii_bsp.a(alt_tick.o)
 .debug_info    0x00020283       0x90 ../ucos0_bsp//libucosii_bsp.a(altera_nios2_qsys_irq.o)
 .debug_info    0x00020313       0x8a ../ucos0_bsp//libucosii_bsp.a(os_cpu_a.o)
 .debug_info    0x0002039d      0xdff ../ucos0_bsp//libucosii_bsp.a(os_cpu_c.o)
 .debug_info    0x0002119c      0x344 ../ucos0_bsp//libucosii_bsp.a(alt_find_file.o)
 .debug_info    0x000214e0      0x486 ../ucos0_bsp//libucosii_bsp.a(alt_get_fd.o)
 .debug_info    0x00021966       0xda ../ucos0_bsp//libucosii_bsp.a(alt_icache_flush.o)
 .debug_info    0x00021a40      0x1e6 /CMC/tools/altera/13.1/nios2eds/bin/gnu/H-i686-pc-linux-gnu/bin/../lib/gcc/nios2-elf/4.7.3/../../../../../H-i686-pc-linux-gnu/nios2-elf/lib/mno-hw-mul/libc.a(lib_a-atexit.o)
 .debug_info    0x00021c26      0x993 /CMC/tools/altera/13.1/nios2eds/bin/gnu/H-i686-pc-linux-gnu/bin/../lib/gcc/nios2-elf/4.7.3/../../../../../H-i686-pc-linux-gnu/nios2-elf/lib/mno-hw-mul/libc.a(lib_a-exit.o)
 .debug_info    0x000225b9      0x117 /CMC/tools/altera/13.1/nios2eds/bin/gnu/H-i686-pc-linux-gnu/bin/../lib/gcc/nios2-elf/4.7.3/../../../../../H-i686-pc-linux-gnu/nios2-elf/lib/mno-hw-mul/libc.a(lib_a-memcmp.o)
 .debug_info    0x000226d0      0x9f9 /CMC/tools/altera/13.1/nios2eds/bin/gnu/H-i686-pc-linux-gnu/bin/../lib/gcc/nios2-elf/4.7.3/../../../../../H-i686-pc-linux-gnu/nios2-elf/lib/mno-hw-mul/libc.a(lib_a-__atexit.o)
 .debug_info    0x000230c9      0xa07 /CMC/tools/altera/13.1/nios2eds/bin/gnu/H-i686-pc-linux-gnu/bin/../lib/gcc/nios2-elf/4.7.3/../../../../../H-i686-pc-linux-gnu/nios2-elf/lib/mno-hw-mul/libc.a(lib_a-__call_atexit.o)
 .debug_info    0x00023ad0       0xc5 /CMC/tools/altera/13.1/nios2eds/bin/gnu/H-i686-pc-linux-gnu/bin/../lib/gcc/nios2-elf/4.7.3/mno-hw-mul/libgcc.a(_fixunsdfsi.o)
 .debug_info    0x00023b95      0x588 /CMC/tools/altera/13.1/nios2eds/bin/gnu/H-i686-pc-linux-gnu/bin/../lib/gcc/nios2-elf/4.7.3/mno-hw-mul/libgcc.a(_addsub_df.o)
 .debug_info    0x0002411d      0x519 /CMC/tools/altera/13.1/nios2eds/bin/gnu/H-i686-pc-linux-gnu/bin/../lib/gcc/nios2-elf/4.7.3/mno-hw-mul/libgcc.a(_mul_df.o)
 .debug_info    0x00024636      0x443 /CMC/tools/altera/13.1/nios2eds/bin/gnu/H-i686-pc-linux-gnu/bin/../lib/gcc/nios2-elf/4.7.3/mno-hw-mul/libgcc.a(_div_df.o)
 .debug_info    0x00024a79      0x320 /CMC/tools/altera/13.1/nios2eds/bin/gnu/H-i686-pc-linux-gnu/bin/../lib/gcc/nios2-elf/4.7.3/mno-hw-mul/libgcc.a(_ge_df.o)
 .debug_info    0x00024d99      0x30b /CMC/tools/altera/13.1/nios2eds/bin/gnu/H-i686-pc-linux-gnu/bin/../lib/gcc/nios2-elf/4.7.3/mno-hw-mul/libgcc.a(_df_to_si.o)
 .debug_info    0x000250a4      0x155 /CMC/tools/altera/13.1/nios2eds/bin/gnu/H-i686-pc-linux-gnu/bin/../lib/gcc/nios2-elf/4.7.3/mno-hw-mul/libgcc.a(_thenan_df.o)
 .debug_info    0x000251f9      0x284 /CMC/tools/altera/13.1/nios2eds/bin/gnu/H-i686-pc-linux-gnu/bin/../lib/gcc/nios2-elf/4.7.3/mno-hw-mul/libgcc.a(_usi_to_df.o)
 .debug_info    0x0002547d      0x289 /CMC/tools/altera/13.1/nios2eds/bin/gnu/H-i686-pc-linux-gnu/bin/../lib/gcc/nios2-elf/4.7.3/mno-hw-mul/libgcc.a(lib2-divmod.o)
 .debug_info    0x00025706      0x1eb /CMC/tools/altera/13.1/nios2eds/bin/gnu/H-i686-pc-linux-gnu/bin/../lib/gcc/nios2-elf/4.7.3/mno-hw-mul/libgcc.a(_muldi3.o)
 .debug_info    0x000258f1      0x123 /CMC/tools/altera/13.1/nios2eds/bin/gnu/H-i686-pc-linux-gnu/bin/../lib/gcc/nios2-elf/4.7.3/mno-hw-mul/libgcc.a(_clzsi2.o)
 .debug_info    0x00025a14      0x2f7 /CMC/tools/altera/13.1/nios2eds/bin/gnu/H-i686-pc-linux-gnu/bin/../lib/gcc/nios2-elf/4.7.3/mno-hw-mul/libgcc.a(_pack_df.o)
 .debug_info    0x00025d0b      0x265 /CMC/tools/altera/13.1/nios2eds/bin/gnu/H-i686-pc-linux-gnu/bin/../lib/gcc/nios2-elf/4.7.3/mno-hw-mul/libgcc.a(_unpack_df.o)
 .debug_info    0x00025f70      0x226 /CMC/tools/altera/13.1/nios2eds/bin/gnu/H-i686-pc-linux-gnu/bin/../lib/gcc/nios2-elf/4.7.3/mno-hw-mul/libgcc.a(_fpcmp_parts_df.o)
 .debug_info    0x00026196      0x185 /CMC/tools/altera/13.1/nios2eds/bin/gnu/H-i686-pc-linux-gnu/bin/../lib/gcc/nios2-elf/4.7.3/mno-hw-mul/libgcc.a(_lshrdi3.o)
 .debug_info    0x0002631b      0x185 /CMC/tools/altera/13.1/nios2eds/bin/gnu/H-i686-pc-linux-gnu/bin/../lib/gcc/nios2-elf/4.7.3/mno-hw-mul/libgcc.a(_ashldi3.o)
 .debug_info    0x000264a0       0xac /CMC/tools/altera/13.1/nios2eds/bin/gnu/H-i686-pc-linux-gnu/bin/../lib/gcc/nios2-elf/4.7.3/mno-hw-mul/libgcc.a(_clz.o)
 .debug_info    0x0002654c      0x141 ../ucos0_bsp//libucosii_bsp.a(alt_exit.o)

.debug_abbrev   0x00000000     0x92d6
 *(.debug_abbrev)
 .debug_abbrev  0x00000000       0x12 ../ucos0_bsp//obj/HAL/src/crt0.o
 .debug_abbrev  0x00000012      0x1c4 obj/default/hello_ucosii_0.o
 .debug_abbrev  0x000001d6       0xc6 obj/default/tlb.o
 .debug_abbrev  0x0000029c      0x114 ../critical_library/libcritical_library.a(fingerprint.o)
 .debug_abbrev  0x000003b0       0x14 ../critical_library/libcritical_library.a(context_switch.o)
 .debug_abbrev  0x000003c4       0x14 ../critical_library/libcritical_library.a(gp.o)
 .debug_abbrev  0x000003d8      0x208 /CMC/tools/altera/13.1/nios2eds/bin/gnu/H-i686-pc-linux-gnu/bin/../lib/gcc/nios2-elf/4.7.3/../../../../../H-i686-pc-linux-gnu/nios2-elf/lib/mno-hw-mul/libc.a(lib_a-puts.o)
 .debug_abbrev  0x000005e0       0x90 /CMC/tools/altera/13.1/nios2eds/bin/gnu/H-i686-pc-linux-gnu/bin/../lib/gcc/nios2-elf/4.7.3/../../../../../H-i686-pc-linux-gnu/nios2-elf/lib/mno-hw-mul/libc.a(lib_a-strlen.o)
 .debug_abbrev  0x00000670      0x234 /CMC/tools/altera/13.1/nios2eds/bin/gnu/H-i686-pc-linux-gnu/bin/../lib/gcc/nios2-elf/4.7.3/../../../../../H-i686-pc-linux-gnu/nios2-elf/lib/mno-hw-mul/libc.a(lib_a-fvwrite.o)
 .debug_abbrev  0x000008a4      0x162 /CMC/tools/altera/13.1/nios2eds/bin/gnu/H-i686-pc-linux-gnu/bin/../lib/gcc/nios2-elf/4.7.3/../../../../../H-i686-pc-linux-gnu/nios2-elf/lib/mno-hw-mul/libc.a(lib_a-impure.o)
 .debug_abbrev  0x00000a06      0x284 /CMC/tools/altera/13.1/nios2eds/bin/gnu/H-i686-pc-linux-gnu/bin/../lib/gcc/nios2-elf/4.7.3/../../../../../H-i686-pc-linux-gnu/nios2-elf/lib/mno-hw-mul/libc.a(lib_a-mallocr.o)
 .debug_abbrev  0x00000c8a       0xab /CMC/tools/altera/13.1/nios2eds/bin/gnu/H-i686-pc-linux-gnu/bin/../lib/gcc/nios2-elf/4.7.3/../../../../../H-i686-pc-linux-gnu/nios2-elf/lib/mno-hw-mul/libc.a(lib_a-memchr.o)
 .debug_abbrev  0x00000d35       0x9c /CMC/tools/altera/13.1/nios2eds/bin/gnu/H-i686-pc-linux-gnu/bin/../lib/gcc/nios2-elf/4.7.3/../../../../../H-i686-pc-linux-gnu/nios2-elf/lib/mno-hw-mul/libc.a(lib_a-memcpy.o)
 .debug_abbrev  0x00000dd1       0x9c /CMC/tools/altera/13.1/nios2eds/bin/gnu/H-i686-pc-linux-gnu/bin/../lib/gcc/nios2-elf/4.7.3/../../../../../H-i686-pc-linux-gnu/nios2-elf/lib/mno-hw-mul/libc.a(lib_a-memmove.o)
 .debug_abbrev  0x00000e6d      0x242 /CMC/tools/altera/13.1/nios2eds/bin/gnu/H-i686-pc-linux-gnu/bin/../lib/gcc/nios2-elf/4.7.3/../../../../../H-i686-pc-linux-gnu/nios2-elf/lib/mno-hw-mul/libc.a(lib_a-reallocr.o)
 .debug_abbrev  0x000010af      0x1df /CMC/tools/altera/13.1/nios2eds/bin/gnu/H-i686-pc-linux-gnu/bin/../lib/gcc/nios2-elf/4.7.3/../../../../../H-i686-pc-linux-gnu/nios2-elf/lib/mno-hw-mul/libc.a(lib_a-sbrkr.o)
 .debug_abbrev  0x0000128e      0x1d5 /CMC/tools/altera/13.1/nios2eds/bin/gnu/H-i686-pc-linux-gnu/bin/../lib/gcc/nios2-elf/4.7.3/../../../../../H-i686-pc-linux-gnu/nios2-elf/lib/mno-hw-mul/libc.a(lib_a-wsetup.o)
 .debug_abbrev  0x00001463      0x259 /CMC/tools/altera/13.1/nios2eds/bin/gnu/H-i686-pc-linux-gnu/bin/../lib/gcc/nios2-elf/4.7.3/../../../../../H-i686-pc-linux-gnu/nios2-elf/lib/mno-hw-mul/libc.a(lib_a-fflush.o)
 .debug_abbrev  0x000016bc      0x333 /CMC/tools/altera/13.1/nios2eds/bin/gnu/H-i686-pc-linux-gnu/bin/../lib/gcc/nios2-elf/4.7.3/../../../../../H-i686-pc-linux-gnu/nios2-elf/lib/mno-hw-mul/libc.a(lib_a-findfp.o)
 .debug_abbrev  0x000019ef      0x25d /CMC/tools/altera/13.1/nios2eds/bin/gnu/H-i686-pc-linux-gnu/bin/../lib/gcc/nios2-elf/4.7.3/../../../../../H-i686-pc-linux-gnu/nios2-elf/lib/mno-hw-mul/libc.a(lib_a-freer.o)
 .debug_abbrev  0x00001c4c      0x224 /CMC/tools/altera/13.1/nios2eds/bin/gnu/H-i686-pc-linux-gnu/bin/../lib/gcc/nios2-elf/4.7.3/../../../../../H-i686-pc-linux-gnu/nios2-elf/lib/mno-hw-mul/libc.a(lib_a-fwalk.o)
 .debug_abbrev  0x00001e70       0x37 /CMC/tools/altera/13.1/nios2eds/bin/gnu/H-i686-pc-linux-gnu/bin/../lib/gcc/nios2-elf/4.7.3/../../../../../H-i686-pc-linux-gnu/nios2-elf/lib/mno-hw-mul/libc.a(lib_a-int_errno.o)
 .debug_abbrev  0x00001ea7      0x1e8 /CMC/tools/altera/13.1/nios2eds/bin/gnu/H-i686-pc-linux-gnu/bin/../lib/gcc/nios2-elf/4.7.3/../../../../../H-i686-pc-linux-gnu/nios2-elf/lib/mno-hw-mul/libc.a(lib_a-makebuf.o)
 .debug_abbrev  0x0000208f       0xac /CMC/tools/altera/13.1/nios2eds/bin/gnu/H-i686-pc-linux-gnu/bin/../lib/gcc/nios2-elf/4.7.3/../../../../../H-i686-pc-linux-gnu/nios2-elf/lib/mno-hw-mul/libc.a(lib_a-memset.o)
 .debug_abbrev  0x0000213b      0x226 /CMC/tools/altera/13.1/nios2eds/bin/gnu/H-i686-pc-linux-gnu/bin/../lib/gcc/nios2-elf/4.7.3/../../../../../H-i686-pc-linux-gnu/nios2-elf/lib/mno-hw-mul/libc.a(lib_a-stdio.o)
 .debug_abbrev  0x00002361      0x1c0 /CMC/tools/altera/13.1/nios2eds/bin/gnu/H-i686-pc-linux-gnu/bin/../lib/gcc/nios2-elf/4.7.3/../../../../../H-i686-pc-linux-gnu/nios2-elf/lib/mno-hw-mul/libc.a(lib_a-writer.o)
 .debug_abbrev  0x00002521      0x1bb /CMC/tools/altera/13.1/nios2eds/bin/gnu/H-i686-pc-linux-gnu/bin/../lib/gcc/nios2-elf/4.7.3/../../../../../H-i686-pc-linux-gnu/nios2-elf/lib/mno-hw-mul/libc.a(lib_a-closer.o)
 .debug_abbrev  0x000026dc      0x24e /CMC/tools/altera/13.1/nios2eds/bin/gnu/H-i686-pc-linux-gnu/bin/../lib/gcc/nios2-elf/4.7.3/../../../../../H-i686-pc-linux-gnu/nios2-elf/lib/mno-hw-mul/libc.a(lib_a-fclose.o)
 .debug_abbrev  0x0000292a      0x1ca /CMC/tools/altera/13.1/nios2eds/bin/gnu/H-i686-pc-linux-gnu/bin/../lib/gcc/nios2-elf/4.7.3/../../../../../H-i686-pc-linux-gnu/nios2-elf/lib/mno-hw-mul/libc.a(lib_a-fstatr.o)
 .debug_abbrev  0x00002af4      0x1bb /CMC/tools/altera/13.1/nios2eds/bin/gnu/H-i686-pc-linux-gnu/bin/../lib/gcc/nios2-elf/4.7.3/../../../../../H-i686-pc-linux-gnu/nios2-elf/lib/mno-hw-mul/libc.a(lib_a-isattyr.o)
 .debug_abbrev  0x00002caf      0x1ca /CMC/tools/altera/13.1/nios2eds/bin/gnu/H-i686-pc-linux-gnu/bin/../lib/gcc/nios2-elf/4.7.3/../../../../../H-i686-pc-linux-gnu/nios2-elf/lib/mno-hw-mul/libc.a(lib_a-lseekr.o)
 .debug_abbrev  0x00002e79      0x1bb /CMC/tools/altera/13.1/nios2eds/bin/gnu/H-i686-pc-linux-gnu/bin/../lib/gcc/nios2-elf/4.7.3/../../../../../H-i686-pc-linux-gnu/nios2-elf/lib/mno-hw-mul/libc.a(lib_a-readr.o)
 .debug_abbrev  0x00003034       0x6f /CMC/tools/altera/13.1/nios2eds/bin/gnu/H-i686-pc-linux-gnu/bin/../lib/gcc/nios2-elf/4.7.3/mno-hw-mul/libgcc.a(lib2-mul.o)
 .debug_abbrev  0x000030a3      0x126 ../ucos0_bsp//libucosii_bsp.a(alt_close.o)
 .debug_abbrev  0x000031c9      0x11c ../ucos0_bsp//libucosii_bsp.a(alt_dev.o)
 .debug_abbrev  0x000032e5       0x5a ../ucos0_bsp//libucosii_bsp.a(alt_errno.o)
 .debug_abbrev  0x0000333f      0x126 ../ucos0_bsp//libucosii_bsp.a(alt_fstat.o)
 .debug_abbrev  0x00003465      0x16a ../ucos0_bsp//libucosii_bsp.a(alt_iic.o)
 .debug_abbrev  0x000035cf      0x169 ../ucos0_bsp//libucosii_bsp.a(alt_iic_isr_register.o)
 .debug_abbrev  0x00003738       0x12 ../ucos0_bsp//libucosii_bsp.a(alt_irq_entry.o)
 .debug_abbrev  0x0000374a      0x13c ../ucos0_bsp//libucosii_bsp.a(alt_irq_handler.o)
 .debug_abbrev  0x00003886       0x40 ../ucos0_bsp//libucosii_bsp.a(alt_irq_vars.o)
 .debug_abbrev  0x000038c6      0x126 ../ucos0_bsp//libucosii_bsp.a(alt_isatty.o)
 .debug_abbrev  0x000039ec       0x9d ../ucos0_bsp//libucosii_bsp.a(alt_load.o)
 .debug_abbrev  0x00003a89      0x126 ../ucos0_bsp//libucosii_bsp.a(alt_lseek.o)
 .debug_abbrev  0x00003baf      0x139 ../ucos0_bsp//libucosii_bsp.a(alt_main.o)
 .debug_abbrev  0x00003ce8      0x135 ../ucos0_bsp//libucosii_bsp.a(alt_read.o)
 .debug_abbrev  0x00003e1d       0xe5 ../ucos0_bsp//libucosii_bsp.a(alt_release_fd.o)
 .debug_abbrev  0x00003f02      0x112 ../ucos0_bsp//libucosii_bsp.a(alt_sbrk.o)
 .debug_abbrev  0x00004014      0x13a ../ucos0_bsp//libucosii_bsp.a(alt_write.o)
 .debug_abbrev  0x0000414e      0x1b6 ../ucos0_bsp//libucosii_bsp.a(alt_env_lock.o)
 .debug_abbrev  0x00004304      0x240 ../ucos0_bsp//libucosii_bsp.a(alt_malloc_lock.o)
 .debug_abbrev  0x00004544      0x30d ../ucos0_bsp//libucosii_bsp.a(os_core.o)
 .debug_abbrev  0x00004851       0xf7 ../ucos0_bsp//libucosii_bsp.a(os_dbg.o)
 .debug_abbrev  0x00004948      0x25a ../ucos0_bsp//libucosii_bsp.a(os_flag.o)
 .debug_abbrev  0x00004ba2      0x228 ../ucos0_bsp//libucosii_bsp.a(os_mem.o)
 .debug_abbrev  0x00004dca      0x248 ../ucos0_bsp//libucosii_bsp.a(os_q.o)
 .debug_abbrev  0x00005012      0x262 ../ucos0_bsp//libucosii_bsp.a(os_sem.o)
 .debug_abbrev  0x00005274      0x247 ../ucos0_bsp//libucosii_bsp.a(os_task.o)
 .debug_abbrev  0x000054bb      0x20c ../ucos0_bsp//libucosii_bsp.a(os_time.o)
 .debug_abbrev  0x000056c7      0x221 ../ucos0_bsp//libucosii_bsp.a(alt_sys_init.o)
 .debug_abbrev  0x000058e8      0x15d ../ucos0_bsp//libucosii_bsp.a(altera_avalon_jtag_uart_fd.o)
 .debug_abbrev  0x00005a45      0x240 ../ucos0_bsp//libucosii_bsp.a(altera_avalon_jtag_uart_init.o)
 .debug_abbrev  0x00005c85      0x147 ../ucos0_bsp//libucosii_bsp.a(altera_avalon_jtag_uart_ioctl.o)
 .debug_abbrev  0x00005dcc      0x1e9 ../ucos0_bsp//libucosii_bsp.a(altera_avalon_jtag_uart_read.o)
 .debug_abbrev  0x00005fb5      0x1e7 ../ucos0_bsp//libucosii_bsp.a(altera_avalon_jtag_uart_write.o)
 .debug_abbrev  0x0000619c      0x219 ../ucos0_bsp//libucosii_bsp.a(altera_avalon_mutex.o)
 .debug_abbrev  0x000063b5      0x155 ../ucos0_bsp//libucosii_bsp.a(altera_avalon_timer_sc.o)
 .debug_abbrev  0x0000650a       0xc4 ../ucos0_bsp//libucosii_bsp.a(altera_avalon_timer_ts.o)
 .debug_abbrev  0x000065ce       0x83 ../ucos0_bsp//libucosii_bsp.a(altera_avalon_timer_vars.o)
 .debug_abbrev  0x00006651      0x162 ../ucos0_bsp//libucosii_bsp.a(alt_alarm_start.o)
 .debug_abbrev  0x000067b3       0x42 ../ucos0_bsp//libucosii_bsp.a(alt_dcache_flush_all.o)
 .debug_abbrev  0x000067f5      0x114 ../ucos0_bsp//libucosii_bsp.a(alt_dev_llist_insert.o)
 .debug_abbrev  0x00006909       0x79 ../ucos0_bsp//libucosii_bsp.a(alt_do_ctors.o)
 .debug_abbrev  0x00006982       0x79 ../ucos0_bsp//libucosii_bsp.a(alt_do_dtors.o)
 .debug_abbrev  0x000069fb       0x12 ../ucos0_bsp//libucosii_bsp.a(alt_exception_entry.o)
 .debug_abbrev  0x00006a0d       0xf7 ../ucos0_bsp//libucosii_bsp.a(alt_find_dev.o)
 .debug_abbrev  0x00006b04       0x42 ../ucos0_bsp//libucosii_bsp.a(alt_icache_flush_all.o)
 .debug_abbrev  0x00006b46      0x11b ../ucos0_bsp//libucosii_bsp.a(alt_io_redirect.o)
 .debug_abbrev  0x00006c61      0x14f ../ucos0_bsp//libucosii_bsp.a(alt_open.o)
 .debug_abbrev  0x00006db0      0x15a ../ucos0_bsp//libucosii_bsp.a(alt_tick.o)
 .debug_abbrev  0x00006f0a       0x42 ../ucos0_bsp//libucosii_bsp.a(altera_nios2_qsys_irq.o)
 .debug_abbrev  0x00006f4c       0x14 ../ucos0_bsp//libucosii_bsp.a(os_cpu_a.o)
 .debug_abbrev  0x00006f60      0x1f7 ../ucos0_bsp//libucosii_bsp.a(os_cpu_c.o)
 .debug_abbrev  0x00007157       0xf7 ../ucos0_bsp//libucosii_bsp.a(alt_find_file.o)
 .debug_abbrev  0x0000724e      0x19b ../ucos0_bsp//libucosii_bsp.a(alt_get_fd.o)
 .debug_abbrev  0x000073e9       0x8c ../ucos0_bsp//libucosii_bsp.a(alt_icache_flush.o)
 .debug_abbrev  0x00007475      0x106 /CMC/tools/altera/13.1/nios2eds/bin/gnu/H-i686-pc-linux-gnu/bin/../lib/gcc/nios2-elf/4.7.3/../../../../../H-i686-pc-linux-gnu/nios2-elf/lib/mno-hw-mul/libc.a(lib_a-atexit.o)
 .debug_abbrev  0x0000757b      0x1c8 /CMC/tools/altera/13.1/nios2eds/bin/gnu/H-i686-pc-linux-gnu/bin/../lib/gcc/nios2-elf/4.7.3/../../../../../H-i686-pc-linux-gnu/nios2-elf/lib/mno-hw-mul/libc.a(lib_a-exit.o)
 .debug_abbrev  0x00007743       0x7f /CMC/tools/altera/13.1/nios2eds/bin/gnu/H-i686-pc-linux-gnu/bin/../lib/gcc/nios2-elf/4.7.3/../../../../../H-i686-pc-linux-gnu/nios2-elf/lib/mno-hw-mul/libc.a(lib_a-memcmp.o)
 .debug_abbrev  0x000077c2      0x211 /CMC/tools/altera/13.1/nios2eds/bin/gnu/H-i686-pc-linux-gnu/bin/../lib/gcc/nios2-elf/4.7.3/../../../../../H-i686-pc-linux-gnu/nios2-elf/lib/mno-hw-mul/libc.a(lib_a-__atexit.o)
 .debug_abbrev  0x000079d3      0x203 /CMC/tools/altera/13.1/nios2eds/bin/gnu/H-i686-pc-linux-gnu/bin/../lib/gcc/nios2-elf/4.7.3/../../../../../H-i686-pc-linux-gnu/nios2-elf/lib/mno-hw-mul/libc.a(lib_a-__call_atexit.o)
 .debug_abbrev  0x00007bd6       0x60 /CMC/tools/altera/13.1/nios2eds/bin/gnu/H-i686-pc-linux-gnu/bin/../lib/gcc/nios2-elf/4.7.3/mno-hw-mul/libgcc.a(_fixunsdfsi.o)
 .debug_abbrev  0x00007c36      0x22d /CMC/tools/altera/13.1/nios2eds/bin/gnu/H-i686-pc-linux-gnu/bin/../lib/gcc/nios2-elf/4.7.3/mno-hw-mul/libgcc.a(_addsub_df.o)
 .debug_abbrev  0x00007e63      0x240 /CMC/tools/altera/13.1/nios2eds/bin/gnu/H-i686-pc-linux-gnu/bin/../lib/gcc/nios2-elf/4.7.3/mno-hw-mul/libgcc.a(_mul_df.o)
 .debug_abbrev  0x000080a3      0x245 /CMC/tools/altera/13.1/nios2eds/bin/gnu/H-i686-pc-linux-gnu/bin/../lib/gcc/nios2-elf/4.7.3/mno-hw-mul/libgcc.a(_div_df.o)
 .debug_abbrev  0x000082e8      0x1a5 /CMC/tools/altera/13.1/nios2eds/bin/gnu/H-i686-pc-linux-gnu/bin/../lib/gcc/nios2-elf/4.7.3/mno-hw-mul/libgcc.a(_ge_df.o)
 .debug_abbrev  0x0000848d      0x1ae /CMC/tools/altera/13.1/nios2eds/bin/gnu/H-i686-pc-linux-gnu/bin/../lib/gcc/nios2-elf/4.7.3/mno-hw-mul/libgcc.a(_df_to_si.o)
 .debug_abbrev  0x0000863b       0xb6 /CMC/tools/altera/13.1/nios2eds/bin/gnu/H-i686-pc-linux-gnu/bin/../lib/gcc/nios2-elf/4.7.3/mno-hw-mul/libgcc.a(_thenan_df.o)
 .debug_abbrev  0x000086f1      0x1bf /CMC/tools/altera/13.1/nios2eds/bin/gnu/H-i686-pc-linux-gnu/bin/../lib/gcc/nios2-elf/4.7.3/mno-hw-mul/libgcc.a(_usi_to_df.o)
 .debug_abbrev  0x000088b0      0x112 /CMC/tools/altera/13.1/nios2eds/bin/gnu/H-i686-pc-linux-gnu/bin/../lib/gcc/nios2-elf/4.7.3/mno-hw-mul/libgcc.a(lib2-divmod.o)
 .debug_abbrev  0x000089c2       0xe0 /CMC/tools/altera/13.1/nios2eds/bin/gnu/H-i686-pc-linux-gnu/bin/../lib/gcc/nios2-elf/4.7.3/mno-hw-mul/libgcc.a(_muldi3.o)
 .debug_abbrev  0x00008aa2       0xbe /CMC/tools/altera/13.1/nios2eds/bin/gnu/H-i686-pc-linux-gnu/bin/../lib/gcc/nios2-elf/4.7.3/mno-hw-mul/libgcc.a(_clzsi2.o)
 .debug_abbrev  0x00008b60      0x1b6 /CMC/tools/altera/13.1/nios2eds/bin/gnu/H-i686-pc-linux-gnu/bin/../lib/gcc/nios2-elf/4.7.3/mno-hw-mul/libgcc.a(_pack_df.o)
 .debug_abbrev  0x00008d16      0x15d /CMC/tools/altera/13.1/nios2eds/bin/gnu/H-i686-pc-linux-gnu/bin/../lib/gcc/nios2-elf/4.7.3/mno-hw-mul/libgcc.a(_unpack_df.o)
 .debug_abbrev  0x00008e73      0x146 /CMC/tools/altera/13.1/nios2eds/bin/gnu/H-i686-pc-linux-gnu/bin/../lib/gcc/nios2-elf/4.7.3/mno-hw-mul/libgcc.a(_fpcmp_parts_df.o)
 .debug_abbrev  0x00008fb9       0xf1 /CMC/tools/altera/13.1/nios2eds/bin/gnu/H-i686-pc-linux-gnu/bin/../lib/gcc/nios2-elf/4.7.3/mno-hw-mul/libgcc.a(_lshrdi3.o)
 .debug_abbrev  0x000090aa       0xf1 /CMC/tools/altera/13.1/nios2eds/bin/gnu/H-i686-pc-linux-gnu/bin/../lib/gcc/nios2-elf/4.7.3/mno-hw-mul/libgcc.a(_ashldi3.o)
 .debug_abbrev  0x0000919b       0x5d /CMC/tools/altera/13.1/nios2eds/bin/gnu/H-i686-pc-linux-gnu/bin/../lib/gcc/nios2-elf/4.7.3/mno-hw-mul/libgcc.a(_clz.o)
 .debug_abbrev  0x000091f8       0xde ../ucos0_bsp//libucosii_bsp.a(alt_exit.o)

.debug_line     0x00000000     0xa8e2
 *(.debug_line)
 .debug_line    0x00000000       0x6c ../ucos0_bsp//obj/HAL/src/crt0.o
 .debug_line    0x0000006c      0x1b6 obj/default/hello_ucosii_0.o
 .debug_line    0x00000222       0x7d obj/default/tlb.o
 .debug_line    0x0000029f      0x124 ../critical_library/libcritical_library.a(fingerprint.o)
 .debug_line    0x000003c3       0x57 ../critical_library/libcritical_library.a(context_switch.o)
 .debug_line    0x0000041a       0x3a ../critical_library/libcritical_library.a(gp.o)
 .debug_line    0x00000454      0x238 /CMC/tools/altera/13.1/nios2eds/bin/gnu/H-i686-pc-linux-gnu/bin/../lib/gcc/nios2-elf/4.7.3/../../../../../H-i686-pc-linux-gnu/nios2-elf/lib/mno-hw-mul/libc.a(lib_a-puts.o)
 .debug_line    0x0000068c      0x185 /CMC/tools/altera/13.1/nios2eds/bin/gnu/H-i686-pc-linux-gnu/bin/../lib/gcc/nios2-elf/4.7.3/../../../../../H-i686-pc-linux-gnu/nios2-elf/lib/mno-hw-mul/libc.a(lib_a-strlen.o)
 .debug_line    0x00000811      0x363 /CMC/tools/altera/13.1/nios2eds/bin/gnu/H-i686-pc-linux-gnu/bin/../lib/gcc/nios2-elf/4.7.3/../../../../../H-i686-pc-linux-gnu/nios2-elf/lib/mno-hw-mul/libc.a(lib_a-fvwrite.o)
 .debug_line    0x00000b74      0x176 /CMC/tools/altera/13.1/nios2eds/bin/gnu/H-i686-pc-linux-gnu/bin/../lib/gcc/nios2-elf/4.7.3/../../../../../H-i686-pc-linux-gnu/nios2-elf/lib/mno-hw-mul/libc.a(lib_a-impure.o)
 .debug_line    0x00000cea      0x424 /CMC/tools/altera/13.1/nios2eds/bin/gnu/H-i686-pc-linux-gnu/bin/../lib/gcc/nios2-elf/4.7.3/../../../../../H-i686-pc-linux-gnu/nios2-elf/lib/mno-hw-mul/libc.a(lib_a-mallocr.o)
 .debug_line    0x0000110e      0x1f4 /CMC/tools/altera/13.1/nios2eds/bin/gnu/H-i686-pc-linux-gnu/bin/../lib/gcc/nios2-elf/4.7.3/../../../../../H-i686-pc-linux-gnu/nios2-elf/lib/mno-hw-mul/libc.a(lib_a-memchr.o)
 .debug_line    0x00001302      0x144 /CMC/tools/altera/13.1/nios2eds/bin/gnu/H-i686-pc-linux-gnu/bin/../lib/gcc/nios2-elf/4.7.3/../../../../../H-i686-pc-linux-gnu/nios2-elf/lib/mno-hw-mul/libc.a(lib_a-memcpy.o)
 .debug_line    0x00001446      0x1f9 /CMC/tools/altera/13.1/nios2eds/bin/gnu/H-i686-pc-linux-gnu/bin/../lib/gcc/nios2-elf/4.7.3/../../../../../H-i686-pc-linux-gnu/nios2-elf/lib/mno-hw-mul/libc.a(lib_a-memmove.o)
 .debug_line    0x0000163f      0x333 /CMC/tools/altera/13.1/nios2eds/bin/gnu/H-i686-pc-linux-gnu/bin/../lib/gcc/nios2-elf/4.7.3/../../../../../H-i686-pc-linux-gnu/nios2-elf/lib/mno-hw-mul/libc.a(lib_a-reallocr.o)
 .debug_line    0x00001972      0x215 /CMC/tools/altera/13.1/nios2eds/bin/gnu/H-i686-pc-linux-gnu/bin/../lib/gcc/nios2-elf/4.7.3/../../../../../H-i686-pc-linux-gnu/nios2-elf/lib/mno-hw-mul/libc.a(lib_a-sbrkr.o)
 .debug_line    0x00001b87      0x26e /CMC/tools/altera/13.1/nios2eds/bin/gnu/H-i686-pc-linux-gnu/bin/../lib/gcc/nios2-elf/4.7.3/../../../../../H-i686-pc-linux-gnu/nios2-elf/lib/mno-hw-mul/libc.a(lib_a-wsetup.o)
 .debug_line    0x00001df5      0x29f /CMC/tools/altera/13.1/nios2eds/bin/gnu/H-i686-pc-linux-gnu/bin/../lib/gcc/nios2-elf/4.7.3/../../../../../H-i686-pc-linux-gnu/nios2-elf/lib/mno-hw-mul/libc.a(lib_a-fflush.o)
 .debug_line    0x00002094      0x2ea /CMC/tools/altera/13.1/nios2eds/bin/gnu/H-i686-pc-linux-gnu/bin/../lib/gcc/nios2-elf/4.7.3/../../../../../H-i686-pc-linux-gnu/nios2-elf/lib/mno-hw-mul/libc.a(lib_a-findfp.o)
 .debug_line    0x0000237e      0x314 /CMC/tools/altera/13.1/nios2eds/bin/gnu/H-i686-pc-linux-gnu/bin/../lib/gcc/nios2-elf/4.7.3/../../../../../H-i686-pc-linux-gnu/nios2-elf/lib/mno-hw-mul/libc.a(lib_a-freer.o)
 .debug_line    0x00002692      0x25c /CMC/tools/altera/13.1/nios2eds/bin/gnu/H-i686-pc-linux-gnu/bin/../lib/gcc/nios2-elf/4.7.3/../../../../../H-i686-pc-linux-gnu/nios2-elf/lib/mno-hw-mul/libc.a(lib_a-fwalk.o)
 .debug_line    0x000028ee       0x60 /CMC/tools/altera/13.1/nios2eds/bin/gnu/H-i686-pc-linux-gnu/bin/../lib/gcc/nios2-elf/4.7.3/../../../../../H-i686-pc-linux-gnu/nios2-elf/lib/mno-hw-mul/libc.a(lib_a-int_errno.o)
 .debug_line    0x0000294e      0x296 /CMC/tools/altera/13.1/nios2eds/bin/gnu/H-i686-pc-linux-gnu/bin/../lib/gcc/nios2-elf/4.7.3/../../../../../H-i686-pc-linux-gnu/nios2-elf/lib/mno-hw-mul/libc.a(lib_a-makebuf.o)
 .debug_line    0x00002be4      0x1f4 /CMC/tools/altera/13.1/nios2eds/bin/gnu/H-i686-pc-linux-gnu/bin/../lib/gcc/nios2-elf/4.7.3/../../../../../H-i686-pc-linux-gnu/nios2-elf/lib/mno-hw-mul/libc.a(lib_a-memset.o)
 .debug_line    0x00002dd8      0x248 /CMC/tools/altera/13.1/nios2eds/bin/gnu/H-i686-pc-linux-gnu/bin/../lib/gcc/nios2-elf/4.7.3/../../../../../H-i686-pc-linux-gnu/nios2-elf/lib/mno-hw-mul/libc.a(lib_a-stdio.o)
 .debug_line    0x00003020      0x216 /CMC/tools/altera/13.1/nios2eds/bin/gnu/H-i686-pc-linux-gnu/bin/../lib/gcc/nios2-elf/4.7.3/../../../../../H-i686-pc-linux-gnu/nios2-elf/lib/mno-hw-mul/libc.a(lib_a-writer.o)
 .debug_line    0x00003236      0x216 /CMC/tools/altera/13.1/nios2eds/bin/gnu/H-i686-pc-linux-gnu/bin/../lib/gcc/nios2-elf/4.7.3/../../../../../H-i686-pc-linux-gnu/nios2-elf/lib/mno-hw-mul/libc.a(lib_a-closer.o)
 .debug_line    0x0000344c      0x269 /CMC/tools/altera/13.1/nios2eds/bin/gnu/H-i686-pc-linux-gnu/bin/../lib/gcc/nios2-elf/4.7.3/../../../../../H-i686-pc-linux-gnu/nios2-elf/lib/mno-hw-mul/libc.a(lib_a-fclose.o)
 .debug_line    0x000036b5      0x21f /CMC/tools/altera/13.1/nios2eds/bin/gnu/H-i686-pc-linux-gnu/bin/../lib/gcc/nios2-elf/4.7.3/../../../../../H-i686-pc-linux-gnu/nios2-elf/lib/mno-hw-mul/libc.a(lib_a-fstatr.o)
 .debug_line    0x000038d4      0x217 /CMC/tools/altera/13.1/nios2eds/bin/gnu/H-i686-pc-linux-gnu/bin/../lib/gcc/nios2-elf/4.7.3/../../../../../H-i686-pc-linux-gnu/nios2-elf/lib/mno-hw-mul/libc.a(lib_a-isattyr.o)
 .debug_line    0x00003aeb      0x221 /CMC/tools/altera/13.1/nios2eds/bin/gnu/H-i686-pc-linux-gnu/bin/../lib/gcc/nios2-elf/4.7.3/../../../../../H-i686-pc-linux-gnu/nios2-elf/lib/mno-hw-mul/libc.a(lib_a-lseekr.o)
 .debug_line    0x00003d0c      0x215 /CMC/tools/altera/13.1/nios2eds/bin/gnu/H-i686-pc-linux-gnu/bin/../lib/gcc/nios2-elf/4.7.3/../../../../../H-i686-pc-linux-gnu/nios2-elf/lib/mno-hw-mul/libc.a(lib_a-readr.o)
 .debug_line    0x00003f21       0x80 /CMC/tools/altera/13.1/nios2eds/bin/gnu/H-i686-pc-linux-gnu/bin/../lib/gcc/nios2-elf/4.7.3/mno-hw-mul/libgcc.a(lib2-mul.o)
 .debug_line    0x00003fa1      0x1a2 ../ucos0_bsp//libucosii_bsp.a(alt_close.o)
 .debug_line    0x00004143      0x16a ../ucos0_bsp//libucosii_bsp.a(alt_dev.o)
 .debug_line    0x000042ad       0x51 ../ucos0_bsp//libucosii_bsp.a(alt_errno.o)
 .debug_line    0x000042fe      0x19c ../ucos0_bsp//libucosii_bsp.a(alt_fstat.o)
 .debug_line    0x0000449a       0xf5 ../ucos0_bsp//libucosii_bsp.a(alt_iic.o)
 .debug_line    0x0000458f       0xeb ../ucos0_bsp//libucosii_bsp.a(alt_iic_isr_register.o)
 .debug_line    0x0000467a       0x6b ../ucos0_bsp//libucosii_bsp.a(alt_irq_entry.o)
 .debug_line    0x000046e5       0xcc ../ucos0_bsp//libucosii_bsp.a(alt_irq_handler.o)
 .debug_line    0x000047b1       0x50 ../ucos0_bsp//libucosii_bsp.a(alt_irq_vars.o)
 .debug_line    0x00004801      0x19c ../ucos0_bsp//libucosii_bsp.a(alt_isatty.o)
 .debug_line    0x0000499d       0x92 ../ucos0_bsp//libucosii_bsp.a(alt_load.o)
 .debug_line    0x00004a2f      0x1a0 ../ucos0_bsp//libucosii_bsp.a(alt_lseek.o)
 .debug_line    0x00004bcf      0x130 ../ucos0_bsp//libucosii_bsp.a(alt_main.o)
 .debug_line    0x00004cff      0x222 ../ucos0_bsp//libucosii_bsp.a(alt_read.o)
 .debug_line    0x00004f21       0xbf ../ucos0_bsp//libucosii_bsp.a(alt_release_fd.o)
 .debug_line    0x00004fe0      0x128 ../ucos0_bsp//libucosii_bsp.a(alt_sbrk.o)
 .debug_line    0x00005108      0x221 ../ucos0_bsp//libucosii_bsp.a(alt_write.o)
 .debug_line    0x00005329      0x1d8 ../ucos0_bsp//libucosii_bsp.a(alt_env_lock.o)
 .debug_line    0x00005501      0x251 ../ucos0_bsp//libucosii_bsp.a(alt_malloc_lock.o)
 .debug_line    0x00005752      0x735 ../ucos0_bsp//libucosii_bsp.a(os_core.o)
 .debug_line    0x00005e87       0xd2 ../ucos0_bsp//libucosii_bsp.a(os_dbg.o)
 .debug_line    0x00005f59      0x5a1 ../ucos0_bsp//libucosii_bsp.a(os_flag.o)
 .debug_line    0x000064fa      0x26a ../ucos0_bsp//libucosii_bsp.a(os_mem.o)
 .debug_line    0x00006764      0x486 ../ucos0_bsp//libucosii_bsp.a(os_q.o)
 .debug_line    0x00006bea      0x33d ../ucos0_bsp//libucosii_bsp.a(os_sem.o)
 .debug_line    0x00006f27      0x604 ../ucos0_bsp//libucosii_bsp.a(os_task.o)
 .debug_line    0x0000752b      0x1d5 ../ucos0_bsp//libucosii_bsp.a(os_time.o)
 .debug_line    0x00007700      0x1fe ../ucos0_bsp//libucosii_bsp.a(alt_sys_init.o)
 .debug_line    0x000078fe      0x157 ../ucos0_bsp//libucosii_bsp.a(altera_avalon_jtag_uart_fd.o)
 .debug_line    0x00007a55      0x23c ../ucos0_bsp//libucosii_bsp.a(altera_avalon_jtag_uart_init.o)
 .debug_line    0x00007c91      0x14f ../ucos0_bsp//libucosii_bsp.a(altera_avalon_jtag_uart_ioctl.o)
 .debug_line    0x00007de0      0x1e4 ../ucos0_bsp//libucosii_bsp.a(altera_avalon_jtag_uart_read.o)
 .debug_line    0x00007fc4      0x1e5 ../ucos0_bsp//libucosii_bsp.a(altera_avalon_jtag_uart_write.o)
 .debug_line    0x000081a9      0x1b5 ../ucos0_bsp//libucosii_bsp.a(altera_avalon_mutex.o)
 .debug_line    0x0000835e      0x101 ../ucos0_bsp//libucosii_bsp.a(altera_avalon_timer_sc.o)
 .debug_line    0x0000845f       0xea ../ucos0_bsp//libucosii_bsp.a(altera_avalon_timer_ts.o)
 .debug_line    0x00008549       0x8a ../ucos0_bsp//libucosii_bsp.a(altera_avalon_timer_vars.o)
 .debug_line    0x000085d3       0xfe ../ucos0_bsp//libucosii_bsp.a(alt_alarm_start.o)
 .debug_line    0x000086d1       0x51 ../ucos0_bsp//libucosii_bsp.a(alt_dcache_flush_all.o)
 .debug_line    0x00008722       0xd0 ../ucos0_bsp//libucosii_bsp.a(alt_dev_llist_insert.o)
 .debug_line    0x000087f2       0x59 ../ucos0_bsp//libucosii_bsp.a(alt_do_ctors.o)
 .debug_line    0x0000884b       0x59 ../ucos0_bsp//libucosii_bsp.a(alt_do_dtors.o)
 .debug_line    0x000088a4       0xb4 ../ucos0_bsp//libucosii_bsp.a(alt_exception_entry.o)
 .debug_line    0x00008958       0xc8 ../ucos0_bsp//libucosii_bsp.a(alt_find_dev.o)
 .debug_line    0x00008a20       0x50 ../ucos0_bsp//libucosii_bsp.a(alt_icache_flush_all.o)
 .debug_line    0x00008a70      0x172 ../ucos0_bsp//libucosii_bsp.a(alt_io_redirect.o)
 .debug_line    0x00008be2      0x137 ../ucos0_bsp//libucosii_bsp.a(alt_open.o)
 .debug_line    0x00008d19      0x106 ../ucos0_bsp//libucosii_bsp.a(alt_tick.o)
 .debug_line    0x00008e1f       0x51 ../ucos0_bsp//libucosii_bsp.a(altera_nios2_qsys_irq.o)
 .debug_line    0x00008e70       0x86 ../ucos0_bsp//libucosii_bsp.a(os_cpu_a.o)
 .debug_line    0x00008ef6      0x1e1 ../ucos0_bsp//libucosii_bsp.a(os_cpu_c.o)
 .debug_line    0x000090d7       0xe4 ../ucos0_bsp//libucosii_bsp.a(alt_find_file.o)
 .debug_line    0x000091bb      0x127 ../ucos0_bsp//libucosii_bsp.a(alt_get_fd.o)
 .debug_line    0x000092e2       0x81 ../ucos0_bsp//libucosii_bsp.a(alt_icache_flush.o)
 .debug_line    0x00009363      0x170 /CMC/tools/altera/13.1/nios2eds/bin/gnu/H-i686-pc-linux-gnu/bin/../lib/gcc/nios2-elf/4.7.3/../../../../../H-i686-pc-linux-gnu/nios2-elf/lib/mno-hw-mul/libc.a(lib_a-atexit.o)
 .debug_line    0x000094d3      0x21c /CMC/tools/altera/13.1/nios2eds/bin/gnu/H-i686-pc-linux-gnu/bin/../lib/gcc/nios2-elf/4.7.3/../../../../../H-i686-pc-linux-gnu/nios2-elf/lib/mno-hw-mul/libc.a(lib_a-exit.o)
 .debug_line    0x000096ef      0x190 /CMC/tools/altera/13.1/nios2eds/bin/gnu/H-i686-pc-linux-gnu/bin/../lib/gcc/nios2-elf/4.7.3/../../../../../H-i686-pc-linux-gnu/nios2-elf/lib/mno-hw-mul/libc.a(lib_a-memcmp.o)
 .debug_line    0x0000987f      0x253 /CMC/tools/altera/13.1/nios2eds/bin/gnu/H-i686-pc-linux-gnu/bin/../lib/gcc/nios2-elf/4.7.3/../../../../../H-i686-pc-linux-gnu/nios2-elf/lib/mno-hw-mul/libc.a(lib_a-__atexit.o)
 .debug_line    0x00009ad2      0x267 /CMC/tools/altera/13.1/nios2eds/bin/gnu/H-i686-pc-linux-gnu/bin/../lib/gcc/nios2-elf/4.7.3/../../../../../H-i686-pc-linux-gnu/nios2-elf/lib/mno-hw-mul/libc.a(lib_a-__call_atexit.o)
 .debug_line    0x00009d39       0x71 /CMC/tools/altera/13.1/nios2eds/bin/gnu/H-i686-pc-linux-gnu/bin/../lib/gcc/nios2-elf/4.7.3/mno-hw-mul/libgcc.a(_fixunsdfsi.o)
 .debug_line    0x00009daa      0x134 /CMC/tools/altera/13.1/nios2eds/bin/gnu/H-i686-pc-linux-gnu/bin/../lib/gcc/nios2-elf/4.7.3/mno-hw-mul/libgcc.a(_addsub_df.o)
 .debug_line    0x00009ede      0x117 /CMC/tools/altera/13.1/nios2eds/bin/gnu/H-i686-pc-linux-gnu/bin/../lib/gcc/nios2-elf/4.7.3/mno-hw-mul/libgcc.a(_mul_df.o)
 .debug_line    0x00009ff5       0xd1 /CMC/tools/altera/13.1/nios2eds/bin/gnu/H-i686-pc-linux-gnu/bin/../lib/gcc/nios2-elf/4.7.3/mno-hw-mul/libgcc.a(_div_df.o)
 .debug_line    0x0000a0c6       0x71 /CMC/tools/altera/13.1/nios2eds/bin/gnu/H-i686-pc-linux-gnu/bin/../lib/gcc/nios2-elf/4.7.3/mno-hw-mul/libgcc.a(_ge_df.o)
 .debug_line    0x0000a137       0x90 /CMC/tools/altera/13.1/nios2eds/bin/gnu/H-i686-pc-linux-gnu/bin/../lib/gcc/nios2-elf/4.7.3/mno-hw-mul/libgcc.a(_df_to_si.o)
 .debug_line    0x0000a1c7       0x54 /CMC/tools/altera/13.1/nios2eds/bin/gnu/H-i686-pc-linux-gnu/bin/../lib/gcc/nios2-elf/4.7.3/mno-hw-mul/libgcc.a(_thenan_df.o)
 .debug_line    0x0000a21b       0xa1 /CMC/tools/altera/13.1/nios2eds/bin/gnu/H-i686-pc-linux-gnu/bin/../lib/gcc/nios2-elf/4.7.3/mno-hw-mul/libgcc.a(_usi_to_df.o)
 .debug_line    0x0000a2bc       0xd6 /CMC/tools/altera/13.1/nios2eds/bin/gnu/H-i686-pc-linux-gnu/bin/../lib/gcc/nios2-elf/4.7.3/mno-hw-mul/libgcc.a(lib2-divmod.o)
 .debug_line    0x0000a392       0xa2 /CMC/tools/altera/13.1/nios2eds/bin/gnu/H-i686-pc-linux-gnu/bin/../lib/gcc/nios2-elf/4.7.3/mno-hw-mul/libgcc.a(_muldi3.o)
 .debug_line    0x0000a434       0x8f /CMC/tools/altera/13.1/nios2eds/bin/gnu/H-i686-pc-linux-gnu/bin/../lib/gcc/nios2-elf/4.7.3/mno-hw-mul/libgcc.a(_clzsi2.o)
 .debug_line    0x0000a4c3       0xca /CMC/tools/altera/13.1/nios2eds/bin/gnu/H-i686-pc-linux-gnu/bin/../lib/gcc/nios2-elf/4.7.3/mno-hw-mul/libgcc.a(_pack_df.o)
 .debug_line    0x0000a58d       0xa5 /CMC/tools/altera/13.1/nios2eds/bin/gnu/H-i686-pc-linux-gnu/bin/../lib/gcc/nios2-elf/4.7.3/mno-hw-mul/libgcc.a(_unpack_df.o)
 .debug_line    0x0000a632       0x99 /CMC/tools/altera/13.1/nios2eds/bin/gnu/H-i686-pc-linux-gnu/bin/../lib/gcc/nios2-elf/4.7.3/mno-hw-mul/libgcc.a(_fpcmp_parts_df.o)
 .debug_line    0x0000a6cb       0x7a /CMC/tools/altera/13.1/nios2eds/bin/gnu/H-i686-pc-linux-gnu/bin/../lib/gcc/nios2-elf/4.7.3/mno-hw-mul/libgcc.a(_lshrdi3.o)
 .debug_line    0x0000a745       0x78 /CMC/tools/altera/13.1/nios2eds/bin/gnu/H-i686-pc-linux-gnu/bin/../lib/gcc/nios2-elf/4.7.3/mno-hw-mul/libgcc.a(_ashldi3.o)
 .debug_line    0x0000a7bd       0x56 /CMC/tools/altera/13.1/nios2eds/bin/gnu/H-i686-pc-linux-gnu/bin/../lib/gcc/nios2-elf/4.7.3/mno-hw-mul/libgcc.a(_clz.o)
 .debug_line    0x0000a813       0xcf ../ucos0_bsp//libucosii_bsp.a(alt_exit.o)

.debug_frame    0x00000000     0x22c4
 *(.debug_frame)
 .debug_frame   0x00000000       0x88 obj/default/hello_ucosii_0.o
 .debug_frame   0x00000088      0x10c obj/default/tlb.o
 .debug_frame   0x00000194       0xb4 ../critical_library/libcritical_library.a(fingerprint.o)
 .debug_frame   0x00000248       0x3c /CMC/tools/altera/13.1/nios2eds/bin/gnu/H-i686-pc-linux-gnu/bin/../lib/gcc/nios2-elf/4.7.3/../../../../../H-i686-pc-linux-gnu/nios2-elf/lib/mno-hw-mul/libc.a(lib_a-puts.o)
 .debug_frame   0x00000284       0x20 /CMC/tools/altera/13.1/nios2eds/bin/gnu/H-i686-pc-linux-gnu/bin/../lib/gcc/nios2-elf/4.7.3/../../../../../H-i686-pc-linux-gnu/nios2-elf/lib/mno-hw-mul/libc.a(lib_a-strlen.o)
 .debug_frame   0x000002a4       0x38 /CMC/tools/altera/13.1/nios2eds/bin/gnu/H-i686-pc-linux-gnu/bin/../lib/gcc/nios2-elf/4.7.3/../../../../../H-i686-pc-linux-gnu/nios2-elf/lib/mno-hw-mul/libc.a(lib_a-fvwrite.o)
 .debug_frame   0x000002dc       0x38 /CMC/tools/altera/13.1/nios2eds/bin/gnu/H-i686-pc-linux-gnu/bin/../lib/gcc/nios2-elf/4.7.3/../../../../../H-i686-pc-linux-gnu/nios2-elf/lib/mno-hw-mul/libc.a(lib_a-mallocr.o)
 .debug_frame   0x00000314       0x20 /CMC/tools/altera/13.1/nios2eds/bin/gnu/H-i686-pc-linux-gnu/bin/../lib/gcc/nios2-elf/4.7.3/../../../../../H-i686-pc-linux-gnu/nios2-elf/lib/mno-hw-mul/libc.a(lib_a-memchr.o)
 .debug_frame   0x00000334       0x30 /CMC/tools/altera/13.1/nios2eds/bin/gnu/H-i686-pc-linux-gnu/bin/../lib/gcc/nios2-elf/4.7.3/../../../../../H-i686-pc-linux-gnu/nios2-elf/lib/mno-hw-mul/libc.a(lib_a-memcpy.o)
 .debug_frame   0x00000364       0x30 /CMC/tools/altera/13.1/nios2eds/bin/gnu/H-i686-pc-linux-gnu/bin/../lib/gcc/nios2-elf/4.7.3/../../../../../H-i686-pc-linux-gnu/nios2-elf/lib/mno-hw-mul/libc.a(lib_a-memmove.o)
 .debug_frame   0x00000394       0x38 /CMC/tools/altera/13.1/nios2eds/bin/gnu/H-i686-pc-linux-gnu/bin/../lib/gcc/nios2-elf/4.7.3/../../../../../H-i686-pc-linux-gnu/nios2-elf/lib/mno-hw-mul/libc.a(lib_a-reallocr.o)
 .debug_frame   0x000003cc       0x2c /CMC/tools/altera/13.1/nios2eds/bin/gnu/H-i686-pc-linux-gnu/bin/../lib/gcc/nios2-elf/4.7.3/../../../../../H-i686-pc-linux-gnu/nios2-elf/lib/mno-hw-mul/libc.a(lib_a-sbrkr.o)
 .debug_frame   0x000003f8       0x2c /CMC/tools/altera/13.1/nios2eds/bin/gnu/H-i686-pc-linux-gnu/bin/../lib/gcc/nios2-elf/4.7.3/../../../../../H-i686-pc-linux-gnu/nios2-elf/lib/mno-hw-mul/libc.a(lib_a-wsetup.o)
 .debug_frame   0x00000424       0x40 /CMC/tools/altera/13.1/nios2eds/bin/gnu/H-i686-pc-linux-gnu/bin/../lib/gcc/nios2-elf/4.7.3/../../../../../H-i686-pc-linux-gnu/nios2-elf/lib/mno-hw-mul/libc.a(lib_a-fflush.o)
 .debug_frame   0x00000464      0x100 /CMC/tools/altera/13.1/nios2eds/bin/gnu/H-i686-pc-linux-gnu/bin/../lib/gcc/nios2-elf/4.7.3/../../../../../H-i686-pc-linux-gnu/nios2-elf/lib/mno-hw-mul/libc.a(lib_a-findfp.o)
 .debug_frame   0x00000564       0x4c /CMC/tools/altera/13.1/nios2eds/bin/gnu/H-i686-pc-linux-gnu/bin/../lib/gcc/nios2-elf/4.7.3/../../../../../H-i686-pc-linux-gnu/nios2-elf/lib/mno-hw-mul/libc.a(lib_a-freer.o)
 .debug_frame   0x000005b0       0x5c /CMC/tools/altera/13.1/nios2eds/bin/gnu/H-i686-pc-linux-gnu/bin/../lib/gcc/nios2-elf/4.7.3/../../../../../H-i686-pc-linux-gnu/nios2-elf/lib/mno-hw-mul/libc.a(lib_a-fwalk.o)
 .debug_frame   0x0000060c       0x2c /CMC/tools/altera/13.1/nios2eds/bin/gnu/H-i686-pc-linux-gnu/bin/../lib/gcc/nios2-elf/4.7.3/../../../../../H-i686-pc-linux-gnu/nios2-elf/lib/mno-hw-mul/libc.a(lib_a-makebuf.o)
 .debug_frame   0x00000638       0x20 /CMC/tools/altera/13.1/nios2eds/bin/gnu/H-i686-pc-linux-gnu/bin/../lib/gcc/nios2-elf/4.7.3/../../../../../H-i686-pc-linux-gnu/nios2-elf/lib/mno-hw-mul/libc.a(lib_a-memset.o)
 .debug_frame   0x00000658       0x78 /CMC/tools/altera/13.1/nios2eds/bin/gnu/H-i686-pc-linux-gnu/bin/../lib/gcc/nios2-elf/4.7.3/../../../../../H-i686-pc-linux-gnu/nios2-elf/lib/mno-hw-mul/libc.a(lib_a-stdio.o)
 .debug_frame   0x000006d0       0x2c /CMC/tools/altera/13.1/nios2eds/bin/gnu/H-i686-pc-linux-gnu/bin/../lib/gcc/nios2-elf/4.7.3/../../../../../H-i686-pc-linux-gnu/nios2-elf/lib/mno-hw-mul/libc.a(lib_a-writer.o)
 .debug_frame   0x000006fc       0x2c /CMC/tools/altera/13.1/nios2eds/bin/gnu/H-i686-pc-linux-gnu/bin/../lib/gcc/nios2-elf/4.7.3/../../../../../H-i686-pc-linux-gnu/nios2-elf/lib/mno-hw-mul/libc.a(lib_a-closer.o)
 .debug_frame   0x00000728       0x3c /CMC/tools/altera/13.1/nios2eds/bin/gnu/H-i686-pc-linux-gnu/bin/../lib/gcc/nios2-elf/4.7.3/../../../../../H-i686-pc-linux-gnu/nios2-elf/lib/mno-hw-mul/libc.a(lib_a-fclose.o)
 .debug_frame   0x00000764       0x2c /CMC/tools/altera/13.1/nios2eds/bin/gnu/H-i686-pc-linux-gnu/bin/../lib/gcc/nios2-elf/4.7.3/../../../../../H-i686-pc-linux-gnu/nios2-elf/lib/mno-hw-mul/libc.a(lib_a-fstatr.o)
 .debug_frame   0x00000790       0x2c /CMC/tools/altera/13.1/nios2eds/bin/gnu/H-i686-pc-linux-gnu/bin/../lib/gcc/nios2-elf/4.7.3/../../../../../H-i686-pc-linux-gnu/nios2-elf/lib/mno-hw-mul/libc.a(lib_a-isattyr.o)
 .debug_frame   0x000007bc       0x2c /CMC/tools/altera/13.1/nios2eds/bin/gnu/H-i686-pc-linux-gnu/bin/../lib/gcc/nios2-elf/4.7.3/../../../../../H-i686-pc-linux-gnu/nios2-elf/lib/mno-hw-mul/libc.a(lib_a-lseekr.o)
 .debug_frame   0x000007e8       0x2c /CMC/tools/altera/13.1/nios2eds/bin/gnu/H-i686-pc-linux-gnu/bin/../lib/gcc/nios2-elf/4.7.3/../../../../../H-i686-pc-linux-gnu/nios2-elf/lib/mno-hw-mul/libc.a(lib_a-readr.o)
 .debug_frame   0x00000814       0x20 /CMC/tools/altera/13.1/nios2eds/bin/gnu/H-i686-pc-linux-gnu/bin/../lib/gcc/nios2-elf/4.7.3/mno-hw-mul/libgcc.a(lib2-mul.o)
 .debug_frame   0x00000834       0x48 ../ucos0_bsp//libucosii_bsp.a(alt_close.o)
 .debug_frame   0x0000087c       0x2c ../ucos0_bsp//libucosii_bsp.a(alt_dev.o)
 .debug_frame   0x000008a8       0x48 ../ucos0_bsp//libucosii_bsp.a(alt_fstat.o)
 .debug_frame   0x000008f0       0x80 ../ucos0_bsp//libucosii_bsp.a(alt_iic.o)
 .debug_frame   0x00000970       0x2c ../ucos0_bsp//libucosii_bsp.a(alt_iic_isr_register.o)
 .debug_frame   0x0000099c       0x2c ../ucos0_bsp//libucosii_bsp.a(alt_irq_handler.o)
 .debug_frame   0x000009c8       0x48 ../ucos0_bsp//libucosii_bsp.a(alt_isatty.o)
 .debug_frame   0x00000a10       0x48 ../ucos0_bsp//libucosii_bsp.a(alt_load.o)
 .debug_frame   0x00000a58       0x48 ../ucos0_bsp//libucosii_bsp.a(alt_lseek.o)
 .debug_frame   0x00000aa0       0x2c ../ucos0_bsp//libucosii_bsp.a(alt_main.o)
 .debug_frame   0x00000acc       0x48 ../ucos0_bsp//libucosii_bsp.a(alt_read.o)
 .debug_frame   0x00000b14       0x30 ../ucos0_bsp//libucosii_bsp.a(alt_release_fd.o)
 .debug_frame   0x00000b44       0x2c ../ucos0_bsp//libucosii_bsp.a(alt_sbrk.o)
 .debug_frame   0x00000b70       0x48 ../ucos0_bsp//libucosii_bsp.a(alt_write.o)
 .debug_frame   0x00000bb8       0x4c ../ucos0_bsp//libucosii_bsp.a(alt_env_lock.o)
 .debug_frame   0x00000c04       0x4c ../ucos0_bsp//libucosii_bsp.a(alt_malloc_lock.o)
 .debug_frame   0x00000c50      0x3e4 ../ucos0_bsp//libucosii_bsp.a(os_core.o)
 .debug_frame   0x00001034       0x2c ../ucos0_bsp//libucosii_bsp.a(os_dbg.o)
 .debug_frame   0x00001060      0x180 ../ucos0_bsp//libucosii_bsp.a(os_flag.o)
 .debug_frame   0x000011e0       0xd4 ../ucos0_bsp//libucosii_bsp.a(os_mem.o)
 .debug_frame   0x000012b4      0x144 ../ucos0_bsp//libucosii_bsp.a(os_q.o)
 .debug_frame   0x000013f8       0xf0 ../ucos0_bsp//libucosii_bsp.a(os_sem.o)
 .debug_frame   0x000014e8      0x160 ../ucos0_bsp//libucosii_bsp.a(os_task.o)
 .debug_frame   0x00001648       0xa0 ../ucos0_bsp//libucosii_bsp.a(os_time.o)
 .debug_frame   0x000016e8       0x9c ../ucos0_bsp//libucosii_bsp.a(alt_sys_init.o)
 .debug_frame   0x00001784       0x80 ../ucos0_bsp//libucosii_bsp.a(altera_avalon_jtag_uart_fd.o)
 .debug_frame   0x00001804       0x80 ../ucos0_bsp//libucosii_bsp.a(altera_avalon_jtag_uart_init.o)
 .debug_frame   0x00001884       0x2c ../ucos0_bsp//libucosii_bsp.a(altera_avalon_jtag_uart_ioctl.o)
 .debug_frame   0x000018b0       0x2c ../ucos0_bsp//libucosii_bsp.a(altera_avalon_jtag_uart_read.o)
 .debug_frame   0x000018dc       0x2c ../ucos0_bsp//libucosii_bsp.a(altera_avalon_jtag_uart_write.o)
 .debug_frame   0x00001908      0x10c ../ucos0_bsp//libucosii_bsp.a(altera_avalon_mutex.o)
 .debug_frame   0x00001a14       0x48 ../ucos0_bsp//libucosii_bsp.a(altera_avalon_timer_sc.o)
 .debug_frame   0x00001a5c       0x74 ../ucos0_bsp//libucosii_bsp.a(altera_avalon_timer_ts.o)
 .debug_frame   0x00001ad0       0x2c ../ucos0_bsp//libucosii_bsp.a(alt_alarm_start.o)
 .debug_frame   0x00001afc       0x2c ../ucos0_bsp//libucosii_bsp.a(alt_dcache_flush_all.o)
 .debug_frame   0x00001b28       0x48 ../ucos0_bsp//libucosii_bsp.a(alt_dev_llist_insert.o)
 .debug_frame   0x00001b70       0x2c ../ucos0_bsp//libucosii_bsp.a(alt_do_ctors.o)
 .debug_frame   0x00001b9c       0x2c ../ucos0_bsp//libucosii_bsp.a(alt_do_dtors.o)
 .debug_frame   0x00001bc8       0x2c ../ucos0_bsp//libucosii_bsp.a(alt_find_dev.o)
 .debug_frame   0x00001bf4       0x2c ../ucos0_bsp//libucosii_bsp.a(alt_icache_flush_all.o)
 .debug_frame   0x00001c20       0x4c ../ucos0_bsp//libucosii_bsp.a(alt_io_redirect.o)
 .debug_frame   0x00001c6c       0x68 ../ucos0_bsp//libucosii_bsp.a(alt_open.o)
 .debug_frame   0x00001cd4       0x48 ../ucos0_bsp//libucosii_bsp.a(alt_tick.o)
 .debug_frame   0x00001d1c       0x2c ../ucos0_bsp//libucosii_bsp.a(altera_nios2_qsys_irq.o)
 .debug_frame   0x00001d48      0x128 ../ucos0_bsp//libucosii_bsp.a(os_cpu_c.o)
 .debug_frame   0x00001e70       0x2c ../ucos0_bsp//libucosii_bsp.a(alt_find_file.o)
 .debug_frame   0x00001e9c       0x30 ../ucos0_bsp//libucosii_bsp.a(alt_get_fd.o)
 .debug_frame   0x00001ecc       0x2c ../ucos0_bsp//libucosii_bsp.a(alt_icache_flush.o)
 .debug_frame   0x00001ef8       0x20 /CMC/tools/altera/13.1/nios2eds/bin/gnu/H-i686-pc-linux-gnu/bin/../lib/gcc/nios2-elf/4.7.3/../../../../../H-i686-pc-linux-gnu/nios2-elf/lib/mno-hw-mul/libc.a(lib_a-atexit.o)
 .debug_frame   0x00001f18       0x28 /CMC/tools/altera/13.1/nios2eds/bin/gnu/H-i686-pc-linux-gnu/bin/../lib/gcc/nios2-elf/4.7.3/../../../../../H-i686-pc-linux-gnu/nios2-elf/lib/mno-hw-mul/libc.a(lib_a-exit.o)
 .debug_frame   0x00001f40       0x20 /CMC/tools/altera/13.1/nios2eds/bin/gnu/H-i686-pc-linux-gnu/bin/../lib/gcc/nios2-elf/4.7.3/../../../../../H-i686-pc-linux-gnu/nios2-elf/lib/mno-hw-mul/libc.a(lib_a-memcmp.o)
 .debug_frame   0x00001f60       0x2c /CMC/tools/altera/13.1/nios2eds/bin/gnu/H-i686-pc-linux-gnu/bin/../lib/gcc/nios2-elf/4.7.3/../../../../../H-i686-pc-linux-gnu/nios2-elf/lib/mno-hw-mul/libc.a(lib_a-__atexit.o)
 .debug_frame   0x00001f8c       0x38 /CMC/tools/altera/13.1/nios2eds/bin/gnu/H-i686-pc-linux-gnu/bin/../lib/gcc/nios2-elf/4.7.3/../../../../../H-i686-pc-linux-gnu/nios2-elf/lib/mno-hw-mul/libc.a(lib_a-__call_atexit.o)
 .debug_frame   0x00001fc4       0x2c /CMC/tools/altera/13.1/nios2eds/bin/gnu/H-i686-pc-linux-gnu/bin/../lib/gcc/nios2-elf/4.7.3/mno-hw-mul/libgcc.a(_fixunsdfsi.o)
 .debug_frame   0x00001ff0       0x50 /CMC/tools/altera/13.1/nios2eds/bin/gnu/H-i686-pc-linux-gnu/bin/../lib/gcc/nios2-elf/4.7.3/mno-hw-mul/libgcc.a(_addsub_df.o)
 .debug_frame   0x00002040       0x38 /CMC/tools/altera/13.1/nios2eds/bin/gnu/H-i686-pc-linux-gnu/bin/../lib/gcc/nios2-elf/4.7.3/mno-hw-mul/libgcc.a(_mul_df.o)
 .debug_frame   0x00002078       0x28 /CMC/tools/altera/13.1/nios2eds/bin/gnu/H-i686-pc-linux-gnu/bin/../lib/gcc/nios2-elf/4.7.3/mno-hw-mul/libgcc.a(_div_df.o)
 .debug_frame   0x000020a0       0x28 /CMC/tools/altera/13.1/nios2eds/bin/gnu/H-i686-pc-linux-gnu/bin/../lib/gcc/nios2-elf/4.7.3/mno-hw-mul/libgcc.a(_ge_df.o)
 .debug_frame   0x000020c8       0x28 /CMC/tools/altera/13.1/nios2eds/bin/gnu/H-i686-pc-linux-gnu/bin/../lib/gcc/nios2-elf/4.7.3/mno-hw-mul/libgcc.a(_df_to_si.o)
 .debug_frame   0x000020f0       0x28 /CMC/tools/altera/13.1/nios2eds/bin/gnu/H-i686-pc-linux-gnu/bin/../lib/gcc/nios2-elf/4.7.3/mno-hw-mul/libgcc.a(_usi_to_df.o)
 .debug_frame   0x00002118       0x70 /CMC/tools/altera/13.1/nios2eds/bin/gnu/H-i686-pc-linux-gnu/bin/../lib/gcc/nios2-elf/4.7.3/mno-hw-mul/libgcc.a(lib2-divmod.o)
 .debug_frame   0x00002188       0x3c /CMC/tools/altera/13.1/nios2eds/bin/gnu/H-i686-pc-linux-gnu/bin/../lib/gcc/nios2-elf/4.7.3/mno-hw-mul/libgcc.a(_muldi3.o)
 .debug_frame   0x000021c4       0x20 /CMC/tools/altera/13.1/nios2eds/bin/gnu/H-i686-pc-linux-gnu/bin/../lib/gcc/nios2-elf/4.7.3/mno-hw-mul/libgcc.a(_clzsi2.o)
 .debug_frame   0x000021e4       0x34 /CMC/tools/altera/13.1/nios2eds/bin/gnu/H-i686-pc-linux-gnu/bin/../lib/gcc/nios2-elf/4.7.3/mno-hw-mul/libgcc.a(_pack_df.o)
 .debug_frame   0x00002218       0x20 /CMC/tools/altera/13.1/nios2eds/bin/gnu/H-i686-pc-linux-gnu/bin/../lib/gcc/nios2-elf/4.7.3/mno-hw-mul/libgcc.a(_unpack_df.o)
 .debug_frame   0x00002238       0x20 /CMC/tools/altera/13.1/nios2eds/bin/gnu/H-i686-pc-linux-gnu/bin/../lib/gcc/nios2-elf/4.7.3/mno-hw-mul/libgcc.a(_fpcmp_parts_df.o)
 .debug_frame   0x00002258       0x20 /CMC/tools/altera/13.1/nios2eds/bin/gnu/H-i686-pc-linux-gnu/bin/../lib/gcc/nios2-elf/4.7.3/mno-hw-mul/libgcc.a(_lshrdi3.o)
 .debug_frame   0x00002278       0x20 /CMC/tools/altera/13.1/nios2eds/bin/gnu/H-i686-pc-linux-gnu/bin/../lib/gcc/nios2-elf/4.7.3/mno-hw-mul/libgcc.a(_ashldi3.o)
 .debug_frame   0x00002298       0x2c ../ucos0_bsp//libucosii_bsp.a(alt_exit.o)

.debug_str      0x00000000     0x3d51
 *(.debug_str)
 .debug_str     0x00000000      0x3bd obj/default/hello_ucosii_0.o
                                0x431 (size before relaxing)
 .debug_str     0x000003bd      0x108 obj/default/tlb.o
                                0x211 (size before relaxing)
 .debug_str     0x000004c5      0x1db ../critical_library/libcritical_library.a(fingerprint.o)
                                0x292 (size before relaxing)
 .debug_str     0x000006a0      0x464 /CMC/tools/altera/13.1/nios2eds/bin/gnu/H-i686-pc-linux-gnu/bin/../lib/gcc/nios2-elf/4.7.3/../../../../../H-i686-pc-linux-gnu/nios2-elf/lib/mno-hw-mul/libc.a(lib_a-puts.o)
                                0x57d (size before relaxing)
 .debug_str     0x00000b04       0xe6 /CMC/tools/altera/13.1/nios2eds/bin/gnu/H-i686-pc-linux-gnu/bin/../lib/gcc/nios2-elf/4.7.3/../../../../../H-i686-pc-linux-gnu/nios2-elf/lib/mno-hw-mul/libc.a(lib_a-strlen.o)
                                0x198 (size before relaxing)
 .debug_str     0x00000bea       0xa5 /CMC/tools/altera/13.1/nios2eds/bin/gnu/H-i686-pc-linux-gnu/bin/../lib/gcc/nios2-elf/4.7.3/../../../../../H-i686-pc-linux-gnu/nios2-elf/lib/mno-hw-mul/libc.a(lib_a-fvwrite.o)
                                0x5c7 (size before relaxing)
 .debug_str     0x00000c8f       0xf6 /CMC/tools/altera/13.1/nios2eds/bin/gnu/H-i686-pc-linux-gnu/bin/../lib/gcc/nios2-elf/4.7.3/../../../../../H-i686-pc-linux-gnu/nios2-elf/lib/mno-hw-mul/libc.a(lib_a-impure.o)
                                0x535 (size before relaxing)
 .debug_str     0x00000d85      0x2d2 /CMC/tools/altera/13.1/nios2eds/bin/gnu/H-i686-pc-linux-gnu/bin/../lib/gcc/nios2-elf/4.7.3/../../../../../H-i686-pc-linux-gnu/nios2-elf/lib/mno-hw-mul/libc.a(lib_a-mallocr.o)
                                0x744 (size before relaxing)
 .debug_str     0x00001057       0x5a /CMC/tools/altera/13.1/nios2eds/bin/gnu/H-i686-pc-linux-gnu/bin/../lib/gcc/nios2-elf/4.7.3/../../../../../H-i686-pc-linux-gnu/nios2-elf/lib/mno-hw-mul/libc.a(lib_a-memchr.o)
                                0x1a6 (size before relaxing)
 .debug_str     0x000010b1       0x65 /CMC/tools/altera/13.1/nios2eds/bin/gnu/H-i686-pc-linux-gnu/bin/../lib/gcc/nios2-elf/4.7.3/../../../../../H-i686-pc-linux-gnu/nios2-elf/lib/mno-hw-mul/libc.a(lib_a-memcpy.o)
                                0x135 (size before relaxing)
 .debug_str     0x00001116       0x48 /CMC/tools/altera/13.1/nios2eds/bin/gnu/H-i686-pc-linux-gnu/bin/../lib/gcc/nios2-elf/4.7.3/../../../../../H-i686-pc-linux-gnu/nios2-elf/lib/mno-hw-mul/libc.a(lib_a-memmove.o)
                                0x1b8 (size before relaxing)
 .debug_str     0x0000115e       0x49 /CMC/tools/altera/13.1/nios2eds/bin/gnu/H-i686-pc-linux-gnu/bin/../lib/gcc/nios2-elf/4.7.3/../../../../../H-i686-pc-linux-gnu/nios2-elf/lib/mno-hw-mul/libc.a(lib_a-reallocr.o)
                                0x616 (size before relaxing)
 .debug_str     0x000011a7       0x46 /CMC/tools/altera/13.1/nios2eds/bin/gnu/H-i686-pc-linux-gnu/bin/../lib/gcc/nios2-elf/4.7.3/../../../../../H-i686-pc-linux-gnu/nios2-elf/lib/mno-hw-mul/libc.a(lib_a-sbrkr.o)
                                0x52b (size before relaxing)
 .debug_str     0x000011ed       0x52 /CMC/tools/altera/13.1/nios2eds/bin/gnu/H-i686-pc-linux-gnu/bin/../lib/gcc/nios2-elf/4.7.3/../../../../../H-i686-pc-linux-gnu/nios2-elf/lib/mno-hw-mul/libc.a(lib_a-wsetup.o)
                                0x544 (size before relaxing)
 .debug_str     0x0000123f       0x4b /CMC/tools/altera/13.1/nios2eds/bin/gnu/H-i686-pc-linux-gnu/bin/../lib/gcc/nios2-elf/4.7.3/../../../../../H-i686-pc-linux-gnu/nios2-elf/lib/mno-hw-mul/libc.a(lib_a-fflush.o)
                                0x562 (size before relaxing)
 .debug_str     0x0000128a      0x104 /CMC/tools/altera/13.1/nios2eds/bin/gnu/H-i686-pc-linux-gnu/bin/../lib/gcc/nios2-elf/4.7.3/../../../../../H-i686-pc-linux-gnu/nios2-elf/lib/mno-hw-mul/libc.a(lib_a-findfp.o)
                                0x62e (size before relaxing)
 .debug_str     0x0000138e       0x34 /CMC/tools/altera/13.1/nios2eds/bin/gnu/H-i686-pc-linux-gnu/bin/../lib/gcc/nios2-elf/4.7.3/../../../../../H-i686-pc-linux-gnu/nios2-elf/lib/mno-hw-mul/libc.a(lib_a-freer.o)
                                0x68e (size before relaxing)
 .debug_str     0x000013c2       0x61 /CMC/tools/altera/13.1/nios2eds/bin/gnu/H-i686-pc-linux-gnu/bin/../lib/gcc/nios2-elf/4.7.3/../../../../../H-i686-pc-linux-gnu/nios2-elf/lib/mno-hw-mul/libc.a(lib_a-fwalk.o)
                                0x576 (size before relaxing)
 .debug_str     0x00001423       0x40 /CMC/tools/altera/13.1/nios2eds/bin/gnu/H-i686-pc-linux-gnu/bin/../lib/gcc/nios2-elf/4.7.3/../../../../../H-i686-pc-linux-gnu/nios2-elf/lib/mno-hw-mul/libc.a(lib_a-int_errno.o)
                                0x17e (size before relaxing)
 .debug_str     0x00001463      0x12c /CMC/tools/altera/13.1/nios2eds/bin/gnu/H-i686-pc-linux-gnu/bin/../lib/gcc/nios2-elf/4.7.3/../../../../../H-i686-pc-linux-gnu/nios2-elf/lib/mno-hw-mul/libc.a(lib_a-makebuf.o)
                                0x63e (size before relaxing)
 .debug_str     0x0000158f       0x3e /CMC/tools/altera/13.1/nios2eds/bin/gnu/H-i686-pc-linux-gnu/bin/../lib/gcc/nios2-elf/4.7.3/../../../../../H-i686-pc-linux-gnu/nios2-elf/lib/mno-hw-mul/libc.a(lib_a-memset.o)
                                0x199 (size before relaxing)
 .debug_str     0x000015cd       0x91 /CMC/tools/altera/13.1/nios2eds/bin/gnu/H-i686-pc-linux-gnu/bin/../lib/gcc/nios2-elf/4.7.3/../../../../../H-i686-pc-linux-gnu/nios2-elf/lib/mno-hw-mul/libc.a(lib_a-stdio.o)
                                0x57f (size before relaxing)
 .debug_str     0x0000165e       0x3d /CMC/tools/altera/13.1/nios2eds/bin/gnu/H-i686-pc-linux-gnu/bin/../lib/gcc/nios2-elf/4.7.3/../../../../../H-i686-pc-linux-gnu/nios2-elf/lib/mno-hw-mul/libc.a(lib_a-writer.o)
                                0x52f (size before relaxing)
 .debug_str     0x0000169b       0x3d /CMC/tools/altera/13.1/nios2eds/bin/gnu/H-i686-pc-linux-gnu/bin/../lib/gcc/nios2-elf/4.7.3/../../../../../H-i686-pc-linux-gnu/nios2-elf/lib/mno-hw-mul/libc.a(lib_a-closer.o)
                                0x51f (size before relaxing)
 .debug_str     0x000016d8       0x53 /CMC/tools/altera/13.1/nios2eds/bin/gnu/H-i686-pc-linux-gnu/bin/../lib/gcc/nios2-elf/4.7.3/../../../../../H-i686-pc-linux-gnu/nios2-elf/lib/mno-hw-mul/libc.a(lib_a-fclose.o)
                                0x571 (size before relaxing)
 .debug_str     0x0000172b       0x49 /CMC/tools/altera/13.1/nios2eds/bin/gnu/H-i686-pc-linux-gnu/bin/../lib/gcc/nios2-elf/4.7.3/../../../../../H-i686-pc-linux-gnu/nios2-elf/lib/mno-hw-mul/libc.a(lib_a-fstatr.o)
                                0x612 (size before relaxing)
 .debug_str     0x00001774       0x45 /CMC/tools/altera/13.1/nios2eds/bin/gnu/H-i686-pc-linux-gnu/bin/../lib/gcc/nios2-elf/4.7.3/../../../../../H-i686-pc-linux-gnu/nios2-elf/lib/mno-hw-mul/libc.a(lib_a-isattyr.o)
                                0x522 (size before relaxing)
 .debug_str     0x000017b9       0x43 /CMC/tools/altera/13.1/nios2eds/bin/gnu/H-i686-pc-linux-gnu/bin/../lib/gcc/nios2-elf/4.7.3/../../../../../H-i686-pc-linux-gnu/nios2-elf/lib/mno-hw-mul/libc.a(lib_a-lseekr.o)
                                0x533 (size before relaxing)
 .debug_str     0x000017fc       0x3c /CMC/tools/altera/13.1/nios2eds/bin/gnu/H-i686-pc-linux-gnu/bin/../lib/gcc/nios2-elf/4.7.3/../../../../../H-i686-pc-linux-gnu/nios2-elf/lib/mno-hw-mul/libc.a(lib_a-readr.o)
                                0x52c (size before relaxing)
 .debug_str     0x00001838       0xd4 /CMC/tools/altera/13.1/nios2eds/bin/gnu/H-i686-pc-linux-gnu/bin/../lib/gcc/nios2-elf/4.7.3/mno-hw-mul/libgcc.a(lib2-mul.o)
                                0x12b (size before relaxing)
 .debug_str     0x0000190c       0xbf ../ucos0_bsp//libucosii_bsp.a(alt_close.o)
                                0x206 (size before relaxing)
 .debug_str     0x000019cb       0x61 ../ucos0_bsp//libucosii_bsp.a(alt_dev.o)
                                0x374 (size before relaxing)
 .debug_str     0x00001a2c       0x14 ../ucos0_bsp//libucosii_bsp.a(alt_errno.o)
                                0x110 (size before relaxing)
 .debug_str     0x00001a40       0x14 ../ucos0_bsp//libucosii_bsp.a(alt_fstat.o)
                                0x2e7 (size before relaxing)
 .debug_str     0x00001a54       0xf4 ../ucos0_bsp//libucosii_bsp.a(alt_iic.o)
                                0x209 (size before relaxing)
 .debug_str     0x00001b48       0x4c ../ucos0_bsp//libucosii_bsp.a(alt_iic_isr_register.o)
                                0x1b3 (size before relaxing)
 .debug_str     0x00001b94       0x3a ../ucos0_bsp//libucosii_bsp.a(alt_irq_handler.o)
                                0x18a (size before relaxing)
 .debug_str     0x00001bce       0x17 ../ucos0_bsp//libucosii_bsp.a(alt_irq_vars.o)
                                0x111 (size before relaxing)
 .debug_str     0x00001be5       0x15 ../ucos0_bsp//libucosii_bsp.a(alt_isatty.o)
                                0x2ef (size before relaxing)
 .debug_str     0x00001bfa       0xe9 ../ucos0_bsp//libucosii_bsp.a(alt_load.o)
                                0x1dd (size before relaxing)
 .debug_str     0x00001ce3       0x14 ../ucos0_bsp//libucosii_bsp.a(alt_lseek.o)
                                0x20c (size before relaxing)
 .debug_str     0x00001cf7       0x5d ../ucos0_bsp//libucosii_bsp.a(alt_main.o)
                                0x22b (size before relaxing)
 .debug_str     0x00001d54       0x13 ../ucos0_bsp//libucosii_bsp.a(alt_read.o)
                                0x2f2 (size before relaxing)
 .debug_str     0x00001d67       0x28 ../ucos0_bsp//libucosii_bsp.a(alt_release_fd.o)
                                0x1f0 (size before relaxing)
 .debug_str     0x00001d8f       0x61 ../ucos0_bsp//libucosii_bsp.a(alt_sbrk.o)
                                0x1a6 (size before relaxing)
 .debug_str     0x00001df0       0x14 ../ucos0_bsp//libucosii_bsp.a(alt_write.o)
                                0x2f3 (size before relaxing)
 .debug_str     0x00001e04      0x246 ../ucos0_bsp//libucosii_bsp.a(alt_env_lock.o)
                                0x772 (size before relaxing)
 .debug_str     0x0000204a       0x36 ../ucos0_bsp//libucosii_bsp.a(alt_malloc_lock.o)
                                0x7db (size before relaxing)
 .debug_str     0x00002080      0x547 ../ucos0_bsp//libucosii_bsp.a(os_core.o)
                                0x939 (size before relaxing)
 .debug_str     0x000025c7      0x2e5 ../ucos0_bsp//libucosii_bsp.a(os_dbg.o)
                                0x890 (size before relaxing)
 .debug_str     0x000028ac      0x136 ../ucos0_bsp//libucosii_bsp.a(os_flag.o)
                                0x5c4 (size before relaxing)
 .debug_str     0x000029e2       0xcf ../ucos0_bsp//libucosii_bsp.a(os_mem.o)
                                0x2cd (size before relaxing)
 .debug_str     0x00002ab1       0xc0 ../ucos0_bsp//libucosii_bsp.a(os_q.o)
                                0x547 (size before relaxing)
 .debug_str     0x00002b71       0x77 ../ucos0_bsp//libucosii_bsp.a(os_sem.o)
                                0x4d0 (size before relaxing)
 .debug_str     0x00002be8      0x113 ../ucos0_bsp//libucosii_bsp.a(os_task.o)
                                0x5d3 (size before relaxing)
 .debug_str     0x00002cfb       0x6d ../ucos0_bsp//libucosii_bsp.a(os_time.o)
                                0x473 (size before relaxing)
 .debug_str     0x00002d68      0x1b8 ../ucos0_bsp//libucosii_bsp.a(alt_sys_init.o)
                                0x4dc (size before relaxing)
 .debug_str     0x00002f20       0xb2 ../ucos0_bsp//libucosii_bsp.a(altera_avalon_jtag_uart_fd.o)
                                0x45f (size before relaxing)
 .debug_str     0x00002fd2       0xf6 ../ucos0_bsp//libucosii_bsp.a(altera_avalon_jtag_uart_init.o)
                                0x426 (size before relaxing)
 .debug_str     0x000030c8       0x4a ../ucos0_bsp//libucosii_bsp.a(altera_avalon_jtag_uart_ioctl.o)
                                0x34e (size before relaxing)
 .debug_str     0x00003112       0x63 ../ucos0_bsp//libucosii_bsp.a(altera_avalon_jtag_uart_read.o)
                                0x3c8 (size before relaxing)
 .debug_str     0x00003175       0x4a ../ucos0_bsp//libucosii_bsp.a(altera_avalon_jtag_uart_write.o)
                                0x3c9 (size before relaxing)
 .debug_str     0x000031bf       0xfe ../ucos0_bsp//libucosii_bsp.a(altera_avalon_mutex.o)
                                0x334 (size before relaxing)
 .debug_str     0x000032bd       0x66 ../ucos0_bsp//libucosii_bsp.a(altera_avalon_timer_sc.o)
                                0x21d (size before relaxing)
 .debug_str     0x00003323       0x76 ../ucos0_bsp//libucosii_bsp.a(altera_avalon_timer_ts.o)
                                0x1e7 (size before relaxing)
 .debug_str     0x00003399       0x27 ../ucos0_bsp//libucosii_bsp.a(altera_avalon_timer_vars.o)
                                0x184 (size before relaxing)
 .debug_str     0x000033c0       0x59 ../ucos0_bsp//libucosii_bsp.a(alt_alarm_start.o)
                                0x250 (size before relaxing)
 .debug_str     0x00003419       0x34 ../ucos0_bsp//libucosii_bsp.a(alt_dcache_flush_all.o)
                                0x120 (size before relaxing)
 .debug_str     0x0000344d       0x34 ../ucos0_bsp//libucosii_bsp.a(alt_dev_llist_insert.o)
                                0x197 (size before relaxing)
 .debug_str     0x00003481       0x48 ../ucos0_bsp//libucosii_bsp.a(alt_do_ctors.o)
                                 0xa7 (size before relaxing)
 .debug_str     0x000034c9       0x4c ../ucos0_bsp//libucosii_bsp.a(alt_do_dtors.o)
                                 0xa6 (size before relaxing)
 .debug_str     0x00003515       0x24 ../ucos0_bsp//libucosii_bsp.a(alt_find_dev.o)
                                0x1e7 (size before relaxing)
 .debug_str     0x00003539       0x34 ../ucos0_bsp//libucosii_bsp.a(alt_icache_flush_all.o)
                                0x120 (size before relaxing)
 .debug_str     0x0000356d       0x56 ../ucos0_bsp//libucosii_bsp.a(alt_io_redirect.o)
                                0x311 (size before relaxing)
 .debug_str     0x000035c3       0x29 ../ucos0_bsp//libucosii_bsp.a(alt_open.o)
                                0x23e (size before relaxing)
 .debug_str     0x000035ec       0x4a ../ucos0_bsp//libucosii_bsp.a(alt_tick.o)
                                0x231 (size before relaxing)
 .debug_str     0x00003636       0x3b ../ucos0_bsp//libucosii_bsp.a(altera_nios2_qsys_irq.o)
                                0x127 (size before relaxing)
 .debug_str     0x00003671       0xd5 ../ucos0_bsp//libucosii_bsp.a(os_cpu_c.o)
                                0x7e7 (size before relaxing)
 .debug_str     0x00003746       0x26 ../ucos0_bsp//libucosii_bsp.a(alt_find_file.o)
                                0x1f5 (size before relaxing)
 .debug_str     0x0000376c       0x30 ../ucos0_bsp//libucosii_bsp.a(alt_get_fd.o)
                                0x293 (size before relaxing)
 .debug_str     0x0000379c       0x2c ../ucos0_bsp//libucosii_bsp.a(alt_icache_flush.o)
                                0x126 (size before relaxing)
 .debug_str     0x000037c8       0x82 /CMC/tools/altera/13.1/nios2eds/bin/gnu/H-i686-pc-linux-gnu/bin/../lib/gcc/nios2-elf/4.7.3/../../../../../H-i686-pc-linux-gnu/nios2-elf/lib/mno-hw-mul/libc.a(lib_a-atexit.o)
                                0x21e (size before relaxing)
 .debug_str     0x0000384a       0x4d /CMC/tools/altera/13.1/nios2eds/bin/gnu/H-i686-pc-linux-gnu/bin/../lib/gcc/nios2-elf/4.7.3/../../../../../H-i686-pc-linux-gnu/nios2-elf/lib/mno-hw-mul/libc.a(lib_a-exit.o)
                                0x53e (size before relaxing)
 .debug_str     0x00003897       0x45 /CMC/tools/altera/13.1/nios2eds/bin/gnu/H-i686-pc-linux-gnu/bin/../lib/gcc/nios2-elf/4.7.3/../../../../../H-i686-pc-linux-gnu/nios2-elf/lib/mno-hw-mul/libc.a(lib_a-memcmp.o)
                                0x185 (size before relaxing)
 .debug_str     0x000038dc       0x40 /CMC/tools/altera/13.1/nios2eds/bin/gnu/H-i686-pc-linux-gnu/bin/../lib/gcc/nios2-elf/4.7.3/../../../../../H-i686-pc-linux-gnu/nios2-elf/lib/mno-hw-mul/libc.a(lib_a-__atexit.o)
                                0x582 (size before relaxing)
 .debug_str     0x0000391c       0x5f /CMC/tools/altera/13.1/nios2eds/bin/gnu/H-i686-pc-linux-gnu/bin/../lib/gcc/nios2-elf/4.7.3/../../../../../H-i686-pc-linux-gnu/nios2-elf/lib/mno-hw-mul/libc.a(lib_a-__call_atexit.o)
                                0x560 (size before relaxing)
 .debug_str     0x0000397b       0x5a /CMC/tools/altera/13.1/nios2eds/bin/gnu/H-i686-pc-linux-gnu/bin/../lib/gcc/nios2-elf/4.7.3/mno-hw-mul/libgcc.a(_fixunsdfsi.o)
                                0x177 (size before relaxing)
 .debug_str     0x000039d5      0x178 /CMC/tools/altera/13.1/nios2eds/bin/gnu/H-i686-pc-linux-gnu/bin/../lib/gcc/nios2-elf/4.7.3/mno-hw-mul/libgcc.a(_addsub_df.o)
                                0x2b8 (size before relaxing)
 .debug_str     0x00003b4d       0x45 /CMC/tools/altera/13.1/nios2eds/bin/gnu/H-i686-pc-linux-gnu/bin/../lib/gcc/nios2-elf/4.7.3/mno-hw-mul/libgcc.a(_mul_df.o)
                                0x28a (size before relaxing)
 .debug_str     0x00003b92       0x35 /CMC/tools/altera/13.1/nios2eds/bin/gnu/H-i686-pc-linux-gnu/bin/../lib/gcc/nios2-elf/4.7.3/mno-hw-mul/libgcc.a(_div_df.o)
                                0x27a (size before relaxing)
 .debug_str     0x00003bc7       0x20 /CMC/tools/altera/13.1/nios2eds/bin/gnu/H-i686-pc-linux-gnu/bin/../lib/gcc/nios2-elf/4.7.3/mno-hw-mul/libgcc.a(_ge_df.o)
                                0x247 (size before relaxing)
 .debug_str     0x00003be7        0xa /CMC/tools/altera/13.1/nios2eds/bin/gnu/H-i686-pc-linux-gnu/bin/../lib/gcc/nios2-elf/4.7.3/mno-hw-mul/libgcc.a(_df_to_si.o)
                                0x23f (size before relaxing)
 .debug_str     0x00000000      0x1d0 /CMC/tools/altera/13.1/nios2eds/bin/gnu/H-i686-pc-linux-gnu/bin/../lib/gcc/nios2-elf/4.7.3/mno-hw-mul/libgcc.a(_thenan_df.o)
 .debug_str     0x00003bf1       0x2a /CMC/tools/altera/13.1/nios2eds/bin/gnu/H-i686-pc-linux-gnu/bin/../lib/gcc/nios2-elf/4.7.3/mno-hw-mul/libgcc.a(_usi_to_df.o)
                                0x219 (size before relaxing)
 .debug_str     0x00003c1b       0x7f /CMC/tools/altera/13.1/nios2eds/bin/gnu/H-i686-pc-linux-gnu/bin/../lib/gcc/nios2-elf/4.7.3/mno-hw-mul/libgcc.a(lib2-divmod.o)
                                0x16a (size before relaxing)
 .debug_str     0x00003c9a       0x42 /CMC/tools/altera/13.1/nios2eds/bin/gnu/H-i686-pc-linux-gnu/bin/../lib/gcc/nios2-elf/4.7.3/mno-hw-mul/libgcc.a(_muldi3.o)
                                0x1b1 (size before relaxing)
 .debug_str     0x00003cdc       0x17 /CMC/tools/altera/13.1/nios2eds/bin/gnu/H-i686-pc-linux-gnu/bin/../lib/gcc/nios2-elf/4.7.3/mno-hw-mul/libgcc.a(_clzsi2.o)
                                0x18c (size before relaxing)
 .debug_str     0x00003cf3        0x7 /CMC/tools/altera/13.1/nios2eds/bin/gnu/H-i686-pc-linux-gnu/bin/../lib/gcc/nios2-elf/4.7.3/mno-hw-mul/libgcc.a(_pack_df.o)
                                0x233 (size before relaxing)
 .debug_str     0x00000000      0x215 /CMC/tools/altera/13.1/nios2eds/bin/gnu/H-i686-pc-linux-gnu/bin/../lib/gcc/nios2-elf/4.7.3/mno-hw-mul/libgcc.a(_unpack_df.o)
 .debug_str     0x00000000      0x1f3 /CMC/tools/altera/13.1/nios2eds/bin/gnu/H-i686-pc-linux-gnu/bin/../lib/gcc/nios2-elf/4.7.3/mno-hw-mul/libgcc.a(_fpcmp_parts_df.o)
 .debug_str     0x00003cfa       0x23 /CMC/tools/altera/13.1/nios2eds/bin/gnu/H-i686-pc-linux-gnu/bin/../lib/gcc/nios2-elf/4.7.3/mno-hw-mul/libgcc.a(_lshrdi3.o)
                                0x1a3 (size before relaxing)
 .debug_str     0x00003d1d        0xa /CMC/tools/altera/13.1/nios2eds/bin/gnu/H-i686-pc-linux-gnu/bin/../lib/gcc/nios2-elf/4.7.3/mno-hw-mul/libgcc.a(_ashldi3.o)
                                0x1a3 (size before relaxing)
 .debug_str     0x00000000      0x16f /CMC/tools/altera/13.1/nios2eds/bin/gnu/H-i686-pc-linux-gnu/bin/../lib/gcc/nios2-elf/4.7.3/mno-hw-mul/libgcc.a(_clz.o)
 .debug_str     0x00003d27       0x2a ../ucos0_bsp//libucosii_bsp.a(alt_exit.o)
                                0x15e (size before relaxing)

.debug_loc      0x00000000     0x8a5a
 *(.debug_loc)
 .debug_loc     0x00000000       0xa1 obj/default/hello_ucosii_0.o
 .debug_loc     0x000000a1       0xe0 obj/default/tlb.o
 .debug_loc     0x00000181      0x100 ../critical_library/libcritical_library.a(fingerprint.o)
 .debug_loc     0x00000281       0xd9 /CMC/tools/altera/13.1/nios2eds/bin/gnu/H-i686-pc-linux-gnu/bin/../lib/gcc/nios2-elf/4.7.3/../../../../../H-i686-pc-linux-gnu/nios2-elf/lib/mno-hw-mul/libc.a(lib_a-puts.o)
 .debug_loc     0x0000035a       0x52 /CMC/tools/altera/13.1/nios2eds/bin/gnu/H-i686-pc-linux-gnu/bin/../lib/gcc/nios2-elf/4.7.3/../../../../../H-i686-pc-linux-gnu/nios2-elf/lib/mno-hw-mul/libc.a(lib_a-strlen.o)
 .debug_loc     0x000003ac      0x50c /CMC/tools/altera/13.1/nios2eds/bin/gnu/H-i686-pc-linux-gnu/bin/../lib/gcc/nios2-elf/4.7.3/../../../../../H-i686-pc-linux-gnu/nios2-elf/lib/mno-hw-mul/libc.a(lib_a-fvwrite.o)
 .debug_loc     0x000008b8      0xb50 /CMC/tools/altera/13.1/nios2eds/bin/gnu/H-i686-pc-linux-gnu/bin/../lib/gcc/nios2-elf/4.7.3/../../../../../H-i686-pc-linux-gnu/nios2-elf/lib/mno-hw-mul/libc.a(lib_a-mallocr.o)
 .debug_loc     0x00001408      0x239 /CMC/tools/altera/13.1/nios2eds/bin/gnu/H-i686-pc-linux-gnu/bin/../lib/gcc/nios2-elf/4.7.3/../../../../../H-i686-pc-linux-gnu/nios2-elf/lib/mno-hw-mul/libc.a(lib_a-memchr.o)
 .debug_loc     0x00001641      0x29c /CMC/tools/altera/13.1/nios2eds/bin/gnu/H-i686-pc-linux-gnu/bin/../lib/gcc/nios2-elf/4.7.3/../../../../../H-i686-pc-linux-gnu/nios2-elf/lib/mno-hw-mul/libc.a(lib_a-memcpy.o)
 .debug_loc     0x000018dd      0x301 /CMC/tools/altera/13.1/nios2eds/bin/gnu/H-i686-pc-linux-gnu/bin/../lib/gcc/nios2-elf/4.7.3/../../../../../H-i686-pc-linux-gnu/nios2-elf/lib/mno-hw-mul/libc.a(lib_a-memmove.o)
 .debug_loc     0x00001bde     0x1136 /CMC/tools/altera/13.1/nios2eds/bin/gnu/H-i686-pc-linux-gnu/bin/../lib/gcc/nios2-elf/4.7.3/../../../../../H-i686-pc-linux-gnu/nios2-elf/lib/mno-hw-mul/libc.a(lib_a-reallocr.o)
 .debug_loc     0x00002d14       0x86 /CMC/tools/altera/13.1/nios2eds/bin/gnu/H-i686-pc-linux-gnu/bin/../lib/gcc/nios2-elf/4.7.3/../../../../../H-i686-pc-linux-gnu/nios2-elf/lib/mno-hw-mul/libc.a(lib_a-sbrkr.o)
 .debug_loc     0x00002d9a       0xba /CMC/tools/altera/13.1/nios2eds/bin/gnu/H-i686-pc-linux-gnu/bin/../lib/gcc/nios2-elf/4.7.3/../../../../../H-i686-pc-linux-gnu/nios2-elf/lib/mno-hw-mul/libc.a(lib_a-wsetup.o)
 .debug_loc     0x00002e54      0x259 /CMC/tools/altera/13.1/nios2eds/bin/gnu/H-i686-pc-linux-gnu/bin/../lib/gcc/nios2-elf/4.7.3/../../../../../H-i686-pc-linux-gnu/nios2-elf/lib/mno-hw-mul/libc.a(lib_a-fflush.o)
 .debug_loc     0x000030ad      0x2a7 /CMC/tools/altera/13.1/nios2eds/bin/gnu/H-i686-pc-linux-gnu/bin/../lib/gcc/nios2-elf/4.7.3/../../../../../H-i686-pc-linux-gnu/nios2-elf/lib/mno-hw-mul/libc.a(lib_a-findfp.o)
 .debug_loc     0x00003354      0x668 /CMC/tools/altera/13.1/nios2eds/bin/gnu/H-i686-pc-linux-gnu/bin/../lib/gcc/nios2-elf/4.7.3/../../../../../H-i686-pc-linux-gnu/nios2-elf/lib/mno-hw-mul/libc.a(lib_a-freer.o)
 .debug_loc     0x000039bc      0x2ae /CMC/tools/altera/13.1/nios2eds/bin/gnu/H-i686-pc-linux-gnu/bin/../lib/gcc/nios2-elf/4.7.3/../../../../../H-i686-pc-linux-gnu/nios2-elf/lib/mno-hw-mul/libc.a(lib_a-fwalk.o)
 .debug_loc     0x00003c6a      0x16a /CMC/tools/altera/13.1/nios2eds/bin/gnu/H-i686-pc-linux-gnu/bin/../lib/gcc/nios2-elf/4.7.3/../../../../../H-i686-pc-linux-gnu/nios2-elf/lib/mno-hw-mul/libc.a(lib_a-makebuf.o)
 .debug_loc     0x00003dd4      0x1b7 /CMC/tools/altera/13.1/nios2eds/bin/gnu/H-i686-pc-linux-gnu/bin/../lib/gcc/nios2-elf/4.7.3/../../../../../H-i686-pc-linux-gnu/nios2-elf/lib/mno-hw-mul/libc.a(lib_a-memset.o)
 .debug_loc     0x00003f8b      0x379 /CMC/tools/altera/13.1/nios2eds/bin/gnu/H-i686-pc-linux-gnu/bin/../lib/gcc/nios2-elf/4.7.3/../../../../../H-i686-pc-linux-gnu/nios2-elf/lib/mno-hw-mul/libc.a(lib_a-stdio.o)
 .debug_loc     0x00004304       0xde /CMC/tools/altera/13.1/nios2eds/bin/gnu/H-i686-pc-linux-gnu/bin/../lib/gcc/nios2-elf/4.7.3/../../../../../H-i686-pc-linux-gnu/nios2-elf/lib/mno-hw-mul/libc.a(lib_a-writer.o)
 .debug_loc     0x000043e2       0x86 /CMC/tools/altera/13.1/nios2eds/bin/gnu/H-i686-pc-linux-gnu/bin/../lib/gcc/nios2-elf/4.7.3/../../../../../H-i686-pc-linux-gnu/nios2-elf/lib/mno-hw-mul/libc.a(lib_a-closer.o)
 .debug_loc     0x00004468      0x136 /CMC/tools/altera/13.1/nios2eds/bin/gnu/H-i686-pc-linux-gnu/bin/../lib/gcc/nios2-elf/4.7.3/../../../../../H-i686-pc-linux-gnu/nios2-elf/lib/mno-hw-mul/libc.a(lib_a-fclose.o)
 .debug_loc     0x0000459e       0xb2 /CMC/tools/altera/13.1/nios2eds/bin/gnu/H-i686-pc-linux-gnu/bin/../lib/gcc/nios2-elf/4.7.3/../../../../../H-i686-pc-linux-gnu/nios2-elf/lib/mno-hw-mul/libc.a(lib_a-fstatr.o)
 .debug_loc     0x00004650       0x86 /CMC/tools/altera/13.1/nios2eds/bin/gnu/H-i686-pc-linux-gnu/bin/../lib/gcc/nios2-elf/4.7.3/../../../../../H-i686-pc-linux-gnu/nios2-elf/lib/mno-hw-mul/libc.a(lib_a-isattyr.o)
 .debug_loc     0x000046d6       0xde /CMC/tools/altera/13.1/nios2eds/bin/gnu/H-i686-pc-linux-gnu/bin/../lib/gcc/nios2-elf/4.7.3/../../../../../H-i686-pc-linux-gnu/nios2-elf/lib/mno-hw-mul/libc.a(lib_a-lseekr.o)
 .debug_loc     0x000047b4       0xde /CMC/tools/altera/13.1/nios2eds/bin/gnu/H-i686-pc-linux-gnu/bin/../lib/gcc/nios2-elf/4.7.3/../../../../../H-i686-pc-linux-gnu/nios2-elf/lib/mno-hw-mul/libc.a(lib_a-readr.o)
 .debug_loc     0x00004892       0x93 /CMC/tools/altera/13.1/nios2eds/bin/gnu/H-i686-pc-linux-gnu/bin/../lib/gcc/nios2-elf/4.7.3/mno-hw-mul/libgcc.a(lib2-mul.o)
 .debug_loc     0x00004925       0x58 ../ucos0_bsp//libucosii_bsp.a(alt_close.o)
 .debug_loc     0x0000497d       0x2c ../ucos0_bsp//libucosii_bsp.a(alt_dev.o)
 .debug_loc     0x000049a9       0x58 ../ucos0_bsp//libucosii_bsp.a(alt_fstat.o)
 .debug_loc     0x00004a01       0xb0 ../ucos0_bsp//libucosii_bsp.a(alt_iic.o)
 .debug_loc     0x00004ab1       0x2c ../ucos0_bsp//libucosii_bsp.a(alt_iic_isr_register.o)
 .debug_loc     0x00004add       0x2c ../ucos0_bsp//libucosii_bsp.a(alt_irq_handler.o)
 .debug_loc     0x00004b09       0x59 ../ucos0_bsp//libucosii_bsp.a(alt_isatty.o)
 .debug_loc     0x00004b62       0x58 ../ucos0_bsp//libucosii_bsp.a(alt_load.o)
 .debug_loc     0x00004bba       0x58 ../ucos0_bsp//libucosii_bsp.a(alt_lseek.o)
 .debug_loc     0x00004c12       0x2c ../ucos0_bsp//libucosii_bsp.a(alt_main.o)
 .debug_loc     0x00004c3e       0x58 ../ucos0_bsp//libucosii_bsp.a(alt_read.o)
 .debug_loc     0x00004c96       0x2c ../ucos0_bsp//libucosii_bsp.a(alt_release_fd.o)
 .debug_loc     0x00004cc2       0x2c ../ucos0_bsp//libucosii_bsp.a(alt_sbrk.o)
 .debug_loc     0x00004cee       0x58 ../ucos0_bsp//libucosii_bsp.a(alt_write.o)
 .debug_loc     0x00004d46       0x59 ../ucos0_bsp//libucosii_bsp.a(alt_env_lock.o)
 .debug_loc     0x00004d9f       0x59 ../ucos0_bsp//libucosii_bsp.a(alt_malloc_lock.o)
 .debug_loc     0x00004df8      0x606 ../ucos0_bsp//libucosii_bsp.a(os_core.o)
 .debug_loc     0x000053fe       0x2c ../ucos0_bsp//libucosii_bsp.a(os_dbg.o)
 .debug_loc     0x0000542a      0x240 ../ucos0_bsp//libucosii_bsp.a(os_flag.o)
 .debug_loc     0x0000566a      0x134 ../ucos0_bsp//libucosii_bsp.a(os_mem.o)
 .debug_loc     0x0000579e      0x1e6 ../ucos0_bsp//libucosii_bsp.a(os_q.o)
 .debug_loc     0x00005984      0x161 ../ucos0_bsp//libucosii_bsp.a(os_sem.o)
 .debug_loc     0x00005ae5      0x217 ../ucos0_bsp//libucosii_bsp.a(os_task.o)
 .debug_loc     0x00005cfc       0xdd ../ucos0_bsp//libucosii_bsp.a(os_time.o)
 .debug_loc     0x00005dd9       0xdc ../ucos0_bsp//libucosii_bsp.a(alt_sys_init.o)
 .debug_loc     0x00005eb5       0xb0 ../ucos0_bsp//libucosii_bsp.a(altera_avalon_jtag_uart_fd.o)
 .debug_loc     0x00005f65       0xb0 ../ucos0_bsp//libucosii_bsp.a(altera_avalon_jtag_uart_init.o)
 .debug_loc     0x00006015       0x2c ../ucos0_bsp//libucosii_bsp.a(altera_avalon_jtag_uart_ioctl.o)
 .debug_loc     0x00006041       0x2d ../ucos0_bsp//libucosii_bsp.a(altera_avalon_jtag_uart_read.o)
 .debug_loc     0x0000606e       0x2d ../ucos0_bsp//libucosii_bsp.a(altera_avalon_jtag_uart_write.o)
 .debug_loc     0x0000609b      0x18c ../ucos0_bsp//libucosii_bsp.a(altera_avalon_mutex.o)
 .debug_loc     0x00006227       0x58 ../ucos0_bsp//libucosii_bsp.a(altera_avalon_timer_sc.o)
 .debug_loc     0x0000627f       0x85 ../ucos0_bsp//libucosii_bsp.a(altera_avalon_timer_ts.o)
 .debug_loc     0x00006304       0x2c ../ucos0_bsp//libucosii_bsp.a(alt_alarm_start.o)
 .debug_loc     0x00006330       0x2c ../ucos0_bsp//libucosii_bsp.a(alt_dcache_flush_all.o)
 .debug_loc     0x0000635c       0x58 ../ucos0_bsp//libucosii_bsp.a(alt_dev_llist_insert.o)
 .debug_loc     0x000063b4       0x2c ../ucos0_bsp//libucosii_bsp.a(alt_do_ctors.o)
 .debug_loc     0x000063e0       0x2c ../ucos0_bsp//libucosii_bsp.a(alt_do_dtors.o)
 .debug_loc     0x0000640c       0x2c ../ucos0_bsp//libucosii_bsp.a(alt_find_dev.o)
 .debug_loc     0x00006438       0x2c ../ucos0_bsp//libucosii_bsp.a(alt_icache_flush_all.o)
 .debug_loc     0x00006464       0x58 ../ucos0_bsp//libucosii_bsp.a(alt_io_redirect.o)
 .debug_loc     0x000064bc       0x84 ../ucos0_bsp//libucosii_bsp.a(alt_open.o)
 .debug_loc     0x00006540       0x58 ../ucos0_bsp//libucosii_bsp.a(alt_tick.o)
 .debug_loc     0x00006598       0x2c ../ucos0_bsp//libucosii_bsp.a(altera_nios2_qsys_irq.o)
 .debug_loc     0x000065c4      0x1b8 ../ucos0_bsp//libucosii_bsp.a(os_cpu_c.o)
 .debug_loc     0x0000677c       0x2c ../ucos0_bsp//libucosii_bsp.a(alt_find_file.o)
 .debug_loc     0x000067a8       0x2c ../ucos0_bsp//libucosii_bsp.a(alt_get_fd.o)
 .debug_loc     0x000067d4       0x2c ../ucos0_bsp//libucosii_bsp.a(alt_icache_flush.o)
 .debug_loc     0x00006800       0x2c /CMC/tools/altera/13.1/nios2eds/bin/gnu/H-i686-pc-linux-gnu/bin/../lib/gcc/nios2-elf/4.7.3/../../../../../H-i686-pc-linux-gnu/nios2-elf/lib/mno-hw-mul/libc.a(lib_a-atexit.o)
 .debug_loc     0x0000682c       0x3e /CMC/tools/altera/13.1/nios2eds/bin/gnu/H-i686-pc-linux-gnu/bin/../lib/gcc/nios2-elf/4.7.3/../../../../../H-i686-pc-linux-gnu/nios2-elf/lib/mno-hw-mul/libc.a(lib_a-exit.o)
 .debug_loc     0x0000686a      0x103 /CMC/tools/altera/13.1/nios2eds/bin/gnu/H-i686-pc-linux-gnu/bin/../lib/gcc/nios2-elf/4.7.3/../../../../../H-i686-pc-linux-gnu/nios2-elf/lib/mno-hw-mul/libc.a(lib_a-memcmp.o)
 .debug_loc     0x0000696d      0x194 /CMC/tools/altera/13.1/nios2eds/bin/gnu/H-i686-pc-linux-gnu/bin/../lib/gcc/nios2-elf/4.7.3/../../../../../H-i686-pc-linux-gnu/nios2-elf/lib/mno-hw-mul/libc.a(lib_a-__atexit.o)
 .debug_loc     0x00006b01      0x1e1 /CMC/tools/altera/13.1/nios2eds/bin/gnu/H-i686-pc-linux-gnu/bin/../lib/gcc/nios2-elf/4.7.3/../../../../../H-i686-pc-linux-gnu/nios2-elf/lib/mno-hw-mul/libc.a(lib_a-__call_atexit.o)
 .debug_loc     0x00006ce2       0x48 /CMC/tools/altera/13.1/nios2eds/bin/gnu/H-i686-pc-linux-gnu/bin/../lib/gcc/nios2-elf/4.7.3/mno-hw-mul/libgcc.a(_fixunsdfsi.o)
 .debug_loc     0x00006d2a      0x7a1 /CMC/tools/altera/13.1/nios2eds/bin/gnu/H-i686-pc-linux-gnu/bin/../lib/gcc/nios2-elf/4.7.3/mno-hw-mul/libgcc.a(_addsub_df.o)
 .debug_loc     0x000074cb      0x3ba /CMC/tools/altera/13.1/nios2eds/bin/gnu/H-i686-pc-linux-gnu/bin/../lib/gcc/nios2-elf/4.7.3/mno-hw-mul/libgcc.a(_mul_df.o)
 .debug_loc     0x00007885      0x25e /CMC/tools/altera/13.1/nios2eds/bin/gnu/H-i686-pc-linux-gnu/bin/../lib/gcc/nios2-elf/4.7.3/mno-hw-mul/libgcc.a(_div_df.o)
 .debug_loc     0x00007ae3       0x70 /CMC/tools/altera/13.1/nios2eds/bin/gnu/H-i686-pc-linux-gnu/bin/../lib/gcc/nios2-elf/4.7.3/mno-hw-mul/libgcc.a(_ge_df.o)
 .debug_loc     0x00007b53       0xce /CMC/tools/altera/13.1/nios2eds/bin/gnu/H-i686-pc-linux-gnu/bin/../lib/gcc/nios2-elf/4.7.3/mno-hw-mul/libgcc.a(_df_to_si.o)
 .debug_loc     0x00007c21      0x168 /CMC/tools/altera/13.1/nios2eds/bin/gnu/H-i686-pc-linux-gnu/bin/../lib/gcc/nios2-elf/4.7.3/mno-hw-mul/libgcc.a(_usi_to_df.o)
 .debug_loc     0x00007d89      0x338 /CMC/tools/altera/13.1/nios2eds/bin/gnu/H-i686-pc-linux-gnu/bin/../lib/gcc/nios2-elf/4.7.3/mno-hw-mul/libgcc.a(lib2-divmod.o)
 .debug_loc     0x000080c1      0x1a8 /CMC/tools/altera/13.1/nios2eds/bin/gnu/H-i686-pc-linux-gnu/bin/../lib/gcc/nios2-elf/4.7.3/mno-hw-mul/libgcc.a(_muldi3.o)
 .debug_loc     0x00008269      0x19a /CMC/tools/altera/13.1/nios2eds/bin/gnu/H-i686-pc-linux-gnu/bin/../lib/gcc/nios2-elf/4.7.3/mno-hw-mul/libgcc.a(_clzsi2.o)
 .debug_loc     0x00008403      0x2ae /CMC/tools/altera/13.1/nios2eds/bin/gnu/H-i686-pc-linux-gnu/bin/../lib/gcc/nios2-elf/4.7.3/mno-hw-mul/libgcc.a(_pack_df.o)
 .debug_loc     0x000086b1      0x179 /CMC/tools/altera/13.1/nios2eds/bin/gnu/H-i686-pc-linux-gnu/bin/../lib/gcc/nios2-elf/4.7.3/mno-hw-mul/libgcc.a(_unpack_df.o)
 .debug_loc     0x0000882a       0x7c /CMC/tools/altera/13.1/nios2eds/bin/gnu/H-i686-pc-linux-gnu/bin/../lib/gcc/nios2-elf/4.7.3/mno-hw-mul/libgcc.a(_fpcmp_parts_df.o)
 .debug_loc     0x000088a6       0xc4 /CMC/tools/altera/13.1/nios2eds/bin/gnu/H-i686-pc-linux-gnu/bin/../lib/gcc/nios2-elf/4.7.3/mno-hw-mul/libgcc.a(_lshrdi3.o)
 .debug_loc     0x0000896a       0xc4 /CMC/tools/altera/13.1/nios2eds/bin/gnu/H-i686-pc-linux-gnu/bin/../lib/gcc/nios2-elf/4.7.3/mno-hw-mul/libgcc.a(_ashldi3.o)
 .debug_loc     0x00008a2e       0x2c ../ucos0_bsp//libucosii_bsp.a(alt_exit.o)

.debug_macinfo
 *(.debug_macinfo)

.debug_weaknames
 *(.debug_weaknames)

.debug_funcnames
 *(.debug_funcnames)

.debug_typenames
 *(.debug_typenames)

.debug_varnames
 *(.debug_varnames)

.debug_alt_sim_info
                0x00000000       0x20
 *(.debug_alt_sim_info)
 .debug_alt_sim_info
                0x00000000       0x20 ../ucos0_bsp//obj/HAL/src/crt0.o
                0x00496000                __alt_data_end = 0x496000
                0x00496000                PROVIDE (__alt_stack_pointer, __alt_data_end)
                0x0047ce34                PROVIDE (__alt_stack_limit, __alt_stack_base)
                0x0047ce34                PROVIDE (__alt_heap_start, end)
                0x00496000                PROVIDE (__alt_heap_limit, 0x496000)
OUTPUT(ucos0.elf elf32-littlenios2)

.debug_ranges   0x00000000      0x590
 .debug_ranges  0x00000000       0x20 ../ucos0_bsp//obj/HAL/src/crt0.o
 .debug_ranges  0x00000020       0x18 /CMC/tools/altera/13.1/nios2eds/bin/gnu/H-i686-pc-linux-gnu/bin/../lib/gcc/nios2-elf/4.7.3/../../../../../H-i686-pc-linux-gnu/nios2-elf/lib/mno-hw-mul/libc.a(lib_a-fvwrite.o)
 .debug_ranges  0x00000038       0x70 /CMC/tools/altera/13.1/nios2eds/bin/gnu/H-i686-pc-linux-gnu/bin/../lib/gcc/nios2-elf/4.7.3/../../../../../H-i686-pc-linux-gnu/nios2-elf/lib/mno-hw-mul/libc.a(lib_a-mallocr.o)
 .debug_ranges  0x000000a8      0x158 /CMC/tools/altera/13.1/nios2eds/bin/gnu/H-i686-pc-linux-gnu/bin/../lib/gcc/nios2-elf/4.7.3/../../../../../H-i686-pc-linux-gnu/nios2-elf/lib/mno-hw-mul/libc.a(lib_a-reallocr.o)
 .debug_ranges  0x00000200       0x20 /CMC/tools/altera/13.1/nios2eds/bin/gnu/H-i686-pc-linux-gnu/bin/../lib/gcc/nios2-elf/4.7.3/../../../../../H-i686-pc-linux-gnu/nios2-elf/lib/mno-hw-mul/libc.a(lib_a-fflush.o)
 .debug_ranges  0x00000220       0x80 /CMC/tools/altera/13.1/nios2eds/bin/gnu/H-i686-pc-linux-gnu/bin/../lib/gcc/nios2-elf/4.7.3/../../../../../H-i686-pc-linux-gnu/nios2-elf/lib/mno-hw-mul/libc.a(lib_a-fwalk.o)
 .debug_ranges  0x000002a0       0x30 ../ucos0_bsp//libucosii_bsp.a(alt_iic.o)
 .debug_ranges  0x000002d0       0x28 ../ucos0_bsp//libucosii_bsp.a(alt_irq_entry.o)
 .debug_ranges  0x000002f8       0x10 ../ucos0_bsp//libucosii_bsp.a(alt_irq_handler.o)
 .debug_ranges  0x00000308       0x30 ../ucos0_bsp//libucosii_bsp.a(altera_avalon_jtag_uart_init.o)
 .debug_ranges  0x00000338       0x18 ../ucos0_bsp//libucosii_bsp.a(altera_avalon_jtag_uart_read.o)
 .debug_ranges  0x00000350       0x30 ../ucos0_bsp//libucosii_bsp.a(alt_exception_entry.o)
 .debug_ranges  0x00000380       0x18 /CMC/tools/altera/13.1/nios2eds/bin/gnu/H-i686-pc-linux-gnu/bin/../lib/gcc/nios2-elf/4.7.3/../../../../../H-i686-pc-linux-gnu/nios2-elf/lib/mno-hw-mul/libc.a(lib_a-__call_atexit.o)
 .debug_ranges  0x00000398       0x38 /CMC/tools/altera/13.1/nios2eds/bin/gnu/H-i686-pc-linux-gnu/bin/../lib/gcc/nios2-elf/4.7.3/mno-hw-mul/libgcc.a(_addsub_df.o)
 .debug_ranges  0x000003d0       0x78 /CMC/tools/altera/13.1/nios2eds/bin/gnu/H-i686-pc-linux-gnu/bin/../lib/gcc/nios2-elf/4.7.3/mno-hw-mul/libgcc.a(_mul_df.o)
 .debug_ranges  0x00000448       0x50 /CMC/tools/altera/13.1/nios2eds/bin/gnu/H-i686-pc-linux-gnu/bin/../lib/gcc/nios2-elf/4.7.3/mno-hw-mul/libgcc.a(_div_df.o)
 .debug_ranges  0x00000498       0x48 /CMC/tools/altera/13.1/nios2eds/bin/gnu/H-i686-pc-linux-gnu/bin/../lib/gcc/nios2-elf/4.7.3/mno-hw-mul/libgcc.a(_usi_to_df.o)
 .debug_ranges  0x000004e0       0x70 /CMC/tools/altera/13.1/nios2eds/bin/gnu/H-i686-pc-linux-gnu/bin/../lib/gcc/nios2-elf/4.7.3/mno-hw-mul/libgcc.a(_muldi3.o)
 .debug_ranges  0x00000550       0x28 /CMC/tools/altera/13.1/nios2eds/bin/gnu/H-i686-pc-linux-gnu/bin/../lib/gcc/nios2-elf/4.7.3/mno-hw-mul/libgcc.a(_clzsi2.o)
 .debug_ranges  0x00000578       0x18 /CMC/tools/altera/13.1/nios2eds/bin/gnu/H-i686-pc-linux-gnu/bin/../lib/gcc/nios2-elf/4.7.3/mno-hw-mul/libgcc.a(_pack_df.o)
