Archive member included because of file (symbol)

../critical_library/libcritical_library.a(critical.o)
                              obj/default/Monitor.o (critical_task)
../critical_library/libcritical_library.a(fingerprint.o)
                              obj/default/Monitor.o (set_task_directory)
/CMC/tools/altera/13.1/nios2eds/bin/gnu/H-i686-pc-linux-gnu/bin/../lib/gcc/nios2-elf/4.7.3/mno-hw-mul/libgcc.a(lib2-mul.o)
                              obj/default/Monitor.o (__mulsi3)
/CMC/tools/altera/13.1/nios2eds/bin/gnu/H-i686-pc-linux-gnu/bin/../lib/gcc/nios2-elf/4.7.3/../../../../../H-i686-pc-linux-gnu/nios2-elf/lib/mno-hw-mul/libc.a(lib_a-clock.o)
                              obj/default/Monitor.o (clock)
/CMC/tools/altera/13.1/nios2eds/bin/gnu/H-i686-pc-linux-gnu/bin/../lib/gcc/nios2-elf/4.7.3/../../../../../H-i686-pc-linux-gnu/nios2-elf/lib/mno-hw-mul/libc.a(lib_a-exit.o)
                              obj/default/Monitor.o (exit)
/CMC/tools/altera/13.1/nios2eds/bin/gnu/H-i686-pc-linux-gnu/bin/../lib/gcc/nios2-elf/4.7.3/../../../../../H-i686-pc-linux-gnu/nios2-elf/lib/mno-hw-mul/libc.a(lib_a-impure.o)
                              /CMC/tools/altera/13.1/nios2eds/bin/gnu/H-i686-pc-linux-gnu/bin/../lib/gcc/nios2-elf/4.7.3/../../../../../H-i686-pc-linux-gnu/nios2-elf/lib/mno-hw-mul/libc.a(lib_a-exit.o) (_global_impure_ptr)
/CMC/tools/altera/13.1/nios2eds/bin/gnu/H-i686-pc-linux-gnu/bin/../lib/gcc/nios2-elf/4.7.3/../../../../../H-i686-pc-linux-gnu/nios2-elf/lib/mno-hw-mul/libc.a(lib_a-memcpy.o)
                              obj/default/Monitor.o (memcpy)
/CMC/tools/altera/13.1/nios2eds/bin/gnu/H-i686-pc-linux-gnu/bin/../lib/gcc/nios2-elf/4.7.3/../../../../../H-i686-pc-linux-gnu/nios2-elf/lib/mno-hw-mul/libc.a(lib_a-printf.o)
                              obj/default/Monitor.o (printf)
/CMC/tools/altera/13.1/nios2eds/bin/gnu/H-i686-pc-linux-gnu/bin/../lib/gcc/nios2-elf/4.7.3/../../../../../H-i686-pc-linux-gnu/nios2-elf/lib/mno-hw-mul/libc.a(lib_a-puts.o)
                              obj/default/Monitor.o (puts)
/CMC/tools/altera/13.1/nios2eds/bin/gnu/H-i686-pc-linux-gnu/bin/../lib/gcc/nios2-elf/4.7.3/../../../../../H-i686-pc-linux-gnu/nios2-elf/lib/mno-hw-mul/libc.a(lib_a-strlen.o)
                              /CMC/tools/altera/13.1/nios2eds/bin/gnu/H-i686-pc-linux-gnu/bin/../lib/gcc/nios2-elf/4.7.3/../../../../../H-i686-pc-linux-gnu/nios2-elf/lib/mno-hw-mul/libc.a(lib_a-puts.o) (strlen)
/CMC/tools/altera/13.1/nios2eds/bin/gnu/H-i686-pc-linux-gnu/bin/../lib/gcc/nios2-elf/4.7.3/../../../../../H-i686-pc-linux-gnu/nios2-elf/lib/mno-hw-mul/libc.a(lib_a-timesr.o)
                              /CMC/tools/altera/13.1/nios2eds/bin/gnu/H-i686-pc-linux-gnu/bin/../lib/gcc/nios2-elf/4.7.3/../../../../../H-i686-pc-linux-gnu/nios2-elf/lib/mno-hw-mul/libc.a(lib_a-clock.o) (_times_r)
/CMC/tools/altera/13.1/nios2eds/bin/gnu/H-i686-pc-linux-gnu/bin/../lib/gcc/nios2-elf/4.7.3/../../../../../H-i686-pc-linux-gnu/nios2-elf/lib/mno-hw-mul/libc.a(lib_a-vfprintf.o)
                              /CMC/tools/altera/13.1/nios2eds/bin/gnu/H-i686-pc-linux-gnu/bin/../lib/gcc/nios2-elf/4.7.3/../../../../../H-i686-pc-linux-gnu/nios2-elf/lib/mno-hw-mul/libc.a(lib_a-printf.o) (___vfprintf_internal_r)
/CMC/tools/altera/13.1/nios2eds/bin/gnu/H-i686-pc-linux-gnu/bin/../lib/gcc/nios2-elf/4.7.3/../../../../../H-i686-pc-linux-gnu/nios2-elf/lib/mno-hw-mul/libc.a(lib_a-wsetup.o)
                              /CMC/tools/altera/13.1/nios2eds/bin/gnu/H-i686-pc-linux-gnu/bin/../lib/gcc/nios2-elf/4.7.3/../../../../../H-i686-pc-linux-gnu/nios2-elf/lib/mno-hw-mul/libc.a(lib_a-vfprintf.o) (__swsetup_r)
/CMC/tools/altera/13.1/nios2eds/bin/gnu/H-i686-pc-linux-gnu/bin/../lib/gcc/nios2-elf/4.7.3/../../../../../H-i686-pc-linux-gnu/nios2-elf/lib/mno-hw-mul/libc.a(lib_a-__call_atexit.o)
                              /CMC/tools/altera/13.1/nios2eds/bin/gnu/H-i686-pc-linux-gnu/bin/../lib/gcc/nios2-elf/4.7.3/../../../../../H-i686-pc-linux-gnu/nios2-elf/lib/mno-hw-mul/libc.a(lib_a-exit.o) (__call_exitprocs)
/CMC/tools/altera/13.1/nios2eds/bin/gnu/H-i686-pc-linux-gnu/bin/../lib/gcc/nios2-elf/4.7.3/../../../../../H-i686-pc-linux-gnu/nios2-elf/lib/mno-hw-mul/libc.a(lib_a-dtoa.o)
                              /CMC/tools/altera/13.1/nios2eds/bin/gnu/H-i686-pc-linux-gnu/bin/../lib/gcc/nios2-elf/4.7.3/../../../../../H-i686-pc-linux-gnu/nios2-elf/lib/mno-hw-mul/libc.a(lib_a-vfprintf.o) (_dtoa_r)
/CMC/tools/altera/13.1/nios2eds/bin/gnu/H-i686-pc-linux-gnu/bin/../lib/gcc/nios2-elf/4.7.3/../../../../../H-i686-pc-linux-gnu/nios2-elf/lib/mno-hw-mul/libc.a(lib_a-fflush.o)
                              /CMC/tools/altera/13.1/nios2eds/bin/gnu/H-i686-pc-linux-gnu/bin/../lib/gcc/nios2-elf/4.7.3/../../../../../H-i686-pc-linux-gnu/nios2-elf/lib/mno-hw-mul/libc.a(lib_a-vfprintf.o) (_fflush_r)
/CMC/tools/altera/13.1/nios2eds/bin/gnu/H-i686-pc-linux-gnu/bin/../lib/gcc/nios2-elf/4.7.3/../../../../../H-i686-pc-linux-gnu/nios2-elf/lib/mno-hw-mul/libc.a(lib_a-findfp.o)
                              /CMC/tools/altera/13.1/nios2eds/bin/gnu/H-i686-pc-linux-gnu/bin/../lib/gcc/nios2-elf/4.7.3/../../../../../H-i686-pc-linux-gnu/nios2-elf/lib/mno-hw-mul/libc.a(lib_a-vfprintf.o) (__sinit)
/CMC/tools/altera/13.1/nios2eds/bin/gnu/H-i686-pc-linux-gnu/bin/../lib/gcc/nios2-elf/4.7.3/../../../../../H-i686-pc-linux-gnu/nios2-elf/lib/mno-hw-mul/libc.a(lib_a-freer.o)
                              /CMC/tools/altera/13.1/nios2eds/bin/gnu/H-i686-pc-linux-gnu/bin/../lib/gcc/nios2-elf/4.7.3/../../../../../H-i686-pc-linux-gnu/nios2-elf/lib/mno-hw-mul/libc.a(lib_a-wsetup.o) (_free_r)
/CMC/tools/altera/13.1/nios2eds/bin/gnu/H-i686-pc-linux-gnu/bin/../lib/gcc/nios2-elf/4.7.3/../../../../../H-i686-pc-linux-gnu/nios2-elf/lib/mno-hw-mul/libc.a(lib_a-fvwrite.o)
                              /CMC/tools/altera/13.1/nios2eds/bin/gnu/H-i686-pc-linux-gnu/bin/../lib/gcc/nios2-elf/4.7.3/../../../../../H-i686-pc-linux-gnu/nios2-elf/lib/mno-hw-mul/libc.a(lib_a-puts.o) (__sfvwrite_r)
/CMC/tools/altera/13.1/nios2eds/bin/gnu/H-i686-pc-linux-gnu/bin/../lib/gcc/nios2-elf/4.7.3/../../../../../H-i686-pc-linux-gnu/nios2-elf/lib/mno-hw-mul/libc.a(lib_a-fwalk.o)
                              /CMC/tools/altera/13.1/nios2eds/bin/gnu/H-i686-pc-linux-gnu/bin/../lib/gcc/nios2-elf/4.7.3/../../../../../H-i686-pc-linux-gnu/nios2-elf/lib/mno-hw-mul/libc.a(lib_a-findfp.o) (_fwalk)
/CMC/tools/altera/13.1/nios2eds/bin/gnu/H-i686-pc-linux-gnu/bin/../lib/gcc/nios2-elf/4.7.3/../../../../../H-i686-pc-linux-gnu/nios2-elf/lib/mno-hw-mul/libc.a(lib_a-locale.o)
                              /CMC/tools/altera/13.1/nios2eds/bin/gnu/H-i686-pc-linux-gnu/bin/../lib/gcc/nios2-elf/4.7.3/../../../../../H-i686-pc-linux-gnu/nios2-elf/lib/mno-hw-mul/libc.a(lib_a-vfprintf.o) (_localeconv_r)
/CMC/tools/altera/13.1/nios2eds/bin/gnu/H-i686-pc-linux-gnu/bin/../lib/gcc/nios2-elf/4.7.3/../../../../../H-i686-pc-linux-gnu/nios2-elf/lib/mno-hw-mul/libc.a(lib_a-makebuf.o)
                              /CMC/tools/altera/13.1/nios2eds/bin/gnu/H-i686-pc-linux-gnu/bin/../lib/gcc/nios2-elf/4.7.3/../../../../../H-i686-pc-linux-gnu/nios2-elf/lib/mno-hw-mul/libc.a(lib_a-wsetup.o) (__smakebuf_r)
/CMC/tools/altera/13.1/nios2eds/bin/gnu/H-i686-pc-linux-gnu/bin/../lib/gcc/nios2-elf/4.7.3/../../../../../H-i686-pc-linux-gnu/nios2-elf/lib/mno-hw-mul/libc.a(lib_a-mallocr.o)
                              /CMC/tools/altera/13.1/nios2eds/bin/gnu/H-i686-pc-linux-gnu/bin/../lib/gcc/nios2-elf/4.7.3/../../../../../H-i686-pc-linux-gnu/nios2-elf/lib/mno-hw-mul/libc.a(lib_a-findfp.o) (_malloc_r)
/CMC/tools/altera/13.1/nios2eds/bin/gnu/H-i686-pc-linux-gnu/bin/../lib/gcc/nios2-elf/4.7.3/../../../../../H-i686-pc-linux-gnu/nios2-elf/lib/mno-hw-mul/libc.a(lib_a-memchr.o)
                              /CMC/tools/altera/13.1/nios2eds/bin/gnu/H-i686-pc-linux-gnu/bin/../lib/gcc/nios2-elf/4.7.3/../../../../../H-i686-pc-linux-gnu/nios2-elf/lib/mno-hw-mul/libc.a(lib_a-vfprintf.o) (memchr)
/CMC/tools/altera/13.1/nios2eds/bin/gnu/H-i686-pc-linux-gnu/bin/../lib/gcc/nios2-elf/4.7.3/../../../../../H-i686-pc-linux-gnu/nios2-elf/lib/mno-hw-mul/libc.a(lib_a-memmove.o)
                              /CMC/tools/altera/13.1/nios2eds/bin/gnu/H-i686-pc-linux-gnu/bin/../lib/gcc/nios2-elf/4.7.3/../../../../../H-i686-pc-linux-gnu/nios2-elf/lib/mno-hw-mul/libc.a(lib_a-fvwrite.o) (memmove)
/CMC/tools/altera/13.1/nios2eds/bin/gnu/H-i686-pc-linux-gnu/bin/../lib/gcc/nios2-elf/4.7.3/../../../../../H-i686-pc-linux-gnu/nios2-elf/lib/mno-hw-mul/libc.a(lib_a-memset.o)
                              /CMC/tools/altera/13.1/nios2eds/bin/gnu/H-i686-pc-linux-gnu/bin/../lib/gcc/nios2-elf/4.7.3/../../../../../H-i686-pc-linux-gnu/nios2-elf/lib/mno-hw-mul/libc.a(lib_a-findfp.o) (memset)
/CMC/tools/altera/13.1/nios2eds/bin/gnu/H-i686-pc-linux-gnu/bin/../lib/gcc/nios2-elf/4.7.3/../../../../../H-i686-pc-linux-gnu/nios2-elf/lib/mno-hw-mul/libc.a(lib_a-mprec.o)
                              /CMC/tools/altera/13.1/nios2eds/bin/gnu/H-i686-pc-linux-gnu/bin/../lib/gcc/nios2-elf/4.7.3/../../../../../H-i686-pc-linux-gnu/nios2-elf/lib/mno-hw-mul/libc.a(lib_a-dtoa.o) (_Balloc)
/CMC/tools/altera/13.1/nios2eds/bin/gnu/H-i686-pc-linux-gnu/bin/../lib/gcc/nios2-elf/4.7.3/../../../../../H-i686-pc-linux-gnu/nios2-elf/lib/mno-hw-mul/libc.a(lib_a-reallocr.o)
                              /CMC/tools/altera/13.1/nios2eds/bin/gnu/H-i686-pc-linux-gnu/bin/../lib/gcc/nios2-elf/4.7.3/../../../../../H-i686-pc-linux-gnu/nios2-elf/lib/mno-hw-mul/libc.a(lib_a-fvwrite.o) (_realloc_r)
/CMC/tools/altera/13.1/nios2eds/bin/gnu/H-i686-pc-linux-gnu/bin/../lib/gcc/nios2-elf/4.7.3/../../../../../H-i686-pc-linux-gnu/nios2-elf/lib/mno-hw-mul/libc.a(lib_a-s_isinfd.o)
                              /CMC/tools/altera/13.1/nios2eds/bin/gnu/H-i686-pc-linux-gnu/bin/../lib/gcc/nios2-elf/4.7.3/../../../../../H-i686-pc-linux-gnu/nios2-elf/lib/mno-hw-mul/libc.a(lib_a-vfprintf.o) (__isinfd)
/CMC/tools/altera/13.1/nios2eds/bin/gnu/H-i686-pc-linux-gnu/bin/../lib/gcc/nios2-elf/4.7.3/../../../../../H-i686-pc-linux-gnu/nios2-elf/lib/mno-hw-mul/libc.a(lib_a-s_isnand.o)
                              /CMC/tools/altera/13.1/nios2eds/bin/gnu/H-i686-pc-linux-gnu/bin/../lib/gcc/nios2-elf/4.7.3/../../../../../H-i686-pc-linux-gnu/nios2-elf/lib/mno-hw-mul/libc.a(lib_a-vfprintf.o) (__isnand)
/CMC/tools/altera/13.1/nios2eds/bin/gnu/H-i686-pc-linux-gnu/bin/../lib/gcc/nios2-elf/4.7.3/../../../../../H-i686-pc-linux-gnu/nios2-elf/lib/mno-hw-mul/libc.a(lib_a-sbrkr.o)
                              /CMC/tools/altera/13.1/nios2eds/bin/gnu/H-i686-pc-linux-gnu/bin/../lib/gcc/nios2-elf/4.7.3/../../../../../H-i686-pc-linux-gnu/nios2-elf/lib/mno-hw-mul/libc.a(lib_a-freer.o) (_sbrk_r)
/CMC/tools/altera/13.1/nios2eds/bin/gnu/H-i686-pc-linux-gnu/bin/../lib/gcc/nios2-elf/4.7.3/../../../../../H-i686-pc-linux-gnu/nios2-elf/lib/mno-hw-mul/libc.a(lib_a-stdio.o)
                              /CMC/tools/altera/13.1/nios2eds/bin/gnu/H-i686-pc-linux-gnu/bin/../lib/gcc/nios2-elf/4.7.3/../../../../../H-i686-pc-linux-gnu/nios2-elf/lib/mno-hw-mul/libc.a(lib_a-findfp.o) (__sread)
/CMC/tools/altera/13.1/nios2eds/bin/gnu/H-i686-pc-linux-gnu/bin/../lib/gcc/nios2-elf/4.7.3/../../../../../H-i686-pc-linux-gnu/nios2-elf/lib/mno-hw-mul/libc.a(lib_a-strcmp.o)
                              /CMC/tools/altera/13.1/nios2eds/bin/gnu/H-i686-pc-linux-gnu/bin/../lib/gcc/nios2-elf/4.7.3/../../../../../H-i686-pc-linux-gnu/nios2-elf/lib/mno-hw-mul/libc.a(lib_a-locale.o) (strcmp)
/CMC/tools/altera/13.1/nios2eds/bin/gnu/H-i686-pc-linux-gnu/bin/../lib/gcc/nios2-elf/4.7.3/../../../../../H-i686-pc-linux-gnu/nios2-elf/lib/mno-hw-mul/libc.a(lib_a-writer.o)
                              /CMC/tools/altera/13.1/nios2eds/bin/gnu/H-i686-pc-linux-gnu/bin/../lib/gcc/nios2-elf/4.7.3/../../../../../H-i686-pc-linux-gnu/nios2-elf/lib/mno-hw-mul/libc.a(lib_a-stdio.o) (_write_r)
/CMC/tools/altera/13.1/nios2eds/bin/gnu/H-i686-pc-linux-gnu/bin/../lib/gcc/nios2-elf/4.7.3/../../../../../H-i686-pc-linux-gnu/nios2-elf/lib/mno-hw-mul/libc.a(lib_a-callocr.o)
                              /CMC/tools/altera/13.1/nios2eds/bin/gnu/H-i686-pc-linux-gnu/bin/../lib/gcc/nios2-elf/4.7.3/../../../../../H-i686-pc-linux-gnu/nios2-elf/lib/mno-hw-mul/libc.a(lib_a-mprec.o) (_calloc_r)
/CMC/tools/altera/13.1/nios2eds/bin/gnu/H-i686-pc-linux-gnu/bin/../lib/gcc/nios2-elf/4.7.3/../../../../../H-i686-pc-linux-gnu/nios2-elf/lib/mno-hw-mul/libc.a(lib_a-closer.o)
                              /CMC/tools/altera/13.1/nios2eds/bin/gnu/H-i686-pc-linux-gnu/bin/../lib/gcc/nios2-elf/4.7.3/../../../../../H-i686-pc-linux-gnu/nios2-elf/lib/mno-hw-mul/libc.a(lib_a-stdio.o) (_close_r)
/CMC/tools/altera/13.1/nios2eds/bin/gnu/H-i686-pc-linux-gnu/bin/../lib/gcc/nios2-elf/4.7.3/../../../../../H-i686-pc-linux-gnu/nios2-elf/lib/mno-hw-mul/libc.a(lib_a-fclose.o)
                              /CMC/tools/altera/13.1/nios2eds/bin/gnu/H-i686-pc-linux-gnu/bin/../lib/gcc/nios2-elf/4.7.3/../../../../../H-i686-pc-linux-gnu/nios2-elf/lib/mno-hw-mul/libc.a(lib_a-findfp.o) (fclose)
/CMC/tools/altera/13.1/nios2eds/bin/gnu/H-i686-pc-linux-gnu/bin/../lib/gcc/nios2-elf/4.7.3/../../../../../H-i686-pc-linux-gnu/nios2-elf/lib/mno-hw-mul/libc.a(lib_a-fstatr.o)
                              /CMC/tools/altera/13.1/nios2eds/bin/gnu/H-i686-pc-linux-gnu/bin/../lib/gcc/nios2-elf/4.7.3/../../../../../H-i686-pc-linux-gnu/nios2-elf/lib/mno-hw-mul/libc.a(lib_a-makebuf.o) (_fstat_r)
/CMC/tools/altera/13.1/nios2eds/bin/gnu/H-i686-pc-linux-gnu/bin/../lib/gcc/nios2-elf/4.7.3/../../../../../H-i686-pc-linux-gnu/nios2-elf/lib/mno-hw-mul/libc.a(lib_a-int_errno.o)
                              /CMC/tools/altera/13.1/nios2eds/bin/gnu/H-i686-pc-linux-gnu/bin/../lib/gcc/nios2-elf/4.7.3/../../../../../H-i686-pc-linux-gnu/nios2-elf/lib/mno-hw-mul/libc.a(lib_a-sbrkr.o) (errno)
/CMC/tools/altera/13.1/nios2eds/bin/gnu/H-i686-pc-linux-gnu/bin/../lib/gcc/nios2-elf/4.7.3/../../../../../H-i686-pc-linux-gnu/nios2-elf/lib/mno-hw-mul/libc.a(lib_a-isattyr.o)
                              /CMC/tools/altera/13.1/nios2eds/bin/gnu/H-i686-pc-linux-gnu/bin/../lib/gcc/nios2-elf/4.7.3/../../../../../H-i686-pc-linux-gnu/nios2-elf/lib/mno-hw-mul/libc.a(lib_a-makebuf.o) (_isatty_r)
/CMC/tools/altera/13.1/nios2eds/bin/gnu/H-i686-pc-linux-gnu/bin/../lib/gcc/nios2-elf/4.7.3/../../../../../H-i686-pc-linux-gnu/nios2-elf/lib/mno-hw-mul/libc.a(lib_a-lseekr.o)
                              /CMC/tools/altera/13.1/nios2eds/bin/gnu/H-i686-pc-linux-gnu/bin/../lib/gcc/nios2-elf/4.7.3/../../../../../H-i686-pc-linux-gnu/nios2-elf/lib/mno-hw-mul/libc.a(lib_a-stdio.o) (_lseek_r)
/CMC/tools/altera/13.1/nios2eds/bin/gnu/H-i686-pc-linux-gnu/bin/../lib/gcc/nios2-elf/4.7.3/../../../../../H-i686-pc-linux-gnu/nios2-elf/lib/mno-hw-mul/libc.a(lib_a-readr.o)
                              /CMC/tools/altera/13.1/nios2eds/bin/gnu/H-i686-pc-linux-gnu/bin/../lib/gcc/nios2-elf/4.7.3/../../../../../H-i686-pc-linux-gnu/nios2-elf/lib/mno-hw-mul/libc.a(lib_a-stdio.o) (_read_r)
/CMC/tools/altera/13.1/nios2eds/bin/gnu/H-i686-pc-linux-gnu/bin/../lib/gcc/nios2-elf/4.7.3/mno-hw-mul/libgcc.a(_udivdi3.o)
                              /CMC/tools/altera/13.1/nios2eds/bin/gnu/H-i686-pc-linux-gnu/bin/../lib/gcc/nios2-elf/4.7.3/../../../../../H-i686-pc-linux-gnu/nios2-elf/lib/mno-hw-mul/libc.a(lib_a-vfprintf.o) (__udivdi3)
/CMC/tools/altera/13.1/nios2eds/bin/gnu/H-i686-pc-linux-gnu/bin/../lib/gcc/nios2-elf/4.7.3/mno-hw-mul/libgcc.a(_umoddi3.o)
                              /CMC/tools/altera/13.1/nios2eds/bin/gnu/H-i686-pc-linux-gnu/bin/../lib/gcc/nios2-elf/4.7.3/../../../../../H-i686-pc-linux-gnu/nios2-elf/lib/mno-hw-mul/libc.a(lib_a-vfprintf.o) (__umoddi3)
/CMC/tools/altera/13.1/nios2eds/bin/gnu/H-i686-pc-linux-gnu/bin/../lib/gcc/nios2-elf/4.7.3/mno-hw-mul/libgcc.a(_addsub_df.o)
                              /CMC/tools/altera/13.1/nios2eds/bin/gnu/H-i686-pc-linux-gnu/bin/../lib/gcc/nios2-elf/4.7.3/../../../../../H-i686-pc-linux-gnu/nios2-elf/lib/mno-hw-mul/libc.a(lib_a-dtoa.o) (__adddf3)
/CMC/tools/altera/13.1/nios2eds/bin/gnu/H-i686-pc-linux-gnu/bin/../lib/gcc/nios2-elf/4.7.3/mno-hw-mul/libgcc.a(_mul_df.o)
                              /CMC/tools/altera/13.1/nios2eds/bin/gnu/H-i686-pc-linux-gnu/bin/../lib/gcc/nios2-elf/4.7.3/../../../../../H-i686-pc-linux-gnu/nios2-elf/lib/mno-hw-mul/libc.a(lib_a-dtoa.o) (__muldf3)
/CMC/tools/altera/13.1/nios2eds/bin/gnu/H-i686-pc-linux-gnu/bin/../lib/gcc/nios2-elf/4.7.3/mno-hw-mul/libgcc.a(_div_df.o)
                              /CMC/tools/altera/13.1/nios2eds/bin/gnu/H-i686-pc-linux-gnu/bin/../lib/gcc/nios2-elf/4.7.3/../../../../../H-i686-pc-linux-gnu/nios2-elf/lib/mno-hw-mul/libc.a(lib_a-dtoa.o) (__divdf3)
/CMC/tools/altera/13.1/nios2eds/bin/gnu/H-i686-pc-linux-gnu/bin/../lib/gcc/nios2-elf/4.7.3/mno-hw-mul/libgcc.a(_eq_df.o)
                              /CMC/tools/altera/13.1/nios2eds/bin/gnu/H-i686-pc-linux-gnu/bin/../lib/gcc/nios2-elf/4.7.3/../../../../../H-i686-pc-linux-gnu/nios2-elf/lib/mno-hw-mul/libc.a(lib_a-vfprintf.o) (__eqdf2)
/CMC/tools/altera/13.1/nios2eds/bin/gnu/H-i686-pc-linux-gnu/bin/../lib/gcc/nios2-elf/4.7.3/mno-hw-mul/libgcc.a(_ne_df.o)
                              /CMC/tools/altera/13.1/nios2eds/bin/gnu/H-i686-pc-linux-gnu/bin/../lib/gcc/nios2-elf/4.7.3/../../../../../H-i686-pc-linux-gnu/nios2-elf/lib/mno-hw-mul/libc.a(lib_a-vfprintf.o) (__nedf2)
/CMC/tools/altera/13.1/nios2eds/bin/gnu/H-i686-pc-linux-gnu/bin/../lib/gcc/nios2-elf/4.7.3/mno-hw-mul/libgcc.a(_gt_df.o)
                              /CMC/tools/altera/13.1/nios2eds/bin/gnu/H-i686-pc-linux-gnu/bin/../lib/gcc/nios2-elf/4.7.3/../../../../../H-i686-pc-linux-gnu/nios2-elf/lib/mno-hw-mul/libc.a(lib_a-dtoa.o) (__gtdf2)
/CMC/tools/altera/13.1/nios2eds/bin/gnu/H-i686-pc-linux-gnu/bin/../lib/gcc/nios2-elf/4.7.3/mno-hw-mul/libgcc.a(_ge_df.o)
                              /CMC/tools/altera/13.1/nios2eds/bin/gnu/H-i686-pc-linux-gnu/bin/../lib/gcc/nios2-elf/4.7.3/../../../../../H-i686-pc-linux-gnu/nios2-elf/lib/mno-hw-mul/libc.a(lib_a-dtoa.o) (__gedf2)
/CMC/tools/altera/13.1/nios2eds/bin/gnu/H-i686-pc-linux-gnu/bin/../lib/gcc/nios2-elf/4.7.3/mno-hw-mul/libgcc.a(_lt_df.o)
                              /CMC/tools/altera/13.1/nios2eds/bin/gnu/H-i686-pc-linux-gnu/bin/../lib/gcc/nios2-elf/4.7.3/../../../../../H-i686-pc-linux-gnu/nios2-elf/lib/mno-hw-mul/libc.a(lib_a-vfprintf.o) (__ltdf2)
/CMC/tools/altera/13.1/nios2eds/bin/gnu/H-i686-pc-linux-gnu/bin/../lib/gcc/nios2-elf/4.7.3/mno-hw-mul/libgcc.a(_si_to_df.o)
                              /CMC/tools/altera/13.1/nios2eds/bin/gnu/H-i686-pc-linux-gnu/bin/../lib/gcc/nios2-elf/4.7.3/../../../../../H-i686-pc-linux-gnu/nios2-elf/lib/mno-hw-mul/libc.a(lib_a-dtoa.o) (__floatsidf)
/CMC/tools/altera/13.1/nios2eds/bin/gnu/H-i686-pc-linux-gnu/bin/../lib/gcc/nios2-elf/4.7.3/mno-hw-mul/libgcc.a(_df_to_si.o)
                              /CMC/tools/altera/13.1/nios2eds/bin/gnu/H-i686-pc-linux-gnu/bin/../lib/gcc/nios2-elf/4.7.3/../../../../../H-i686-pc-linux-gnu/nios2-elf/lib/mno-hw-mul/libc.a(lib_a-dtoa.o) (__fixdfsi)
/CMC/tools/altera/13.1/nios2eds/bin/gnu/H-i686-pc-linux-gnu/bin/../lib/gcc/nios2-elf/4.7.3/mno-hw-mul/libgcc.a(_thenan_df.o)
                              /CMC/tools/altera/13.1/nios2eds/bin/gnu/H-i686-pc-linux-gnu/bin/../lib/gcc/nios2-elf/4.7.3/mno-hw-mul/libgcc.a(_addsub_df.o) (__thenan_df)
/CMC/tools/altera/13.1/nios2eds/bin/gnu/H-i686-pc-linux-gnu/bin/../lib/gcc/nios2-elf/4.7.3/mno-hw-mul/libgcc.a(_usi_to_df.o)
                              /CMC/tools/altera/13.1/nios2eds/bin/gnu/H-i686-pc-linux-gnu/bin/../lib/gcc/nios2-elf/4.7.3/../../../../../H-i686-pc-linux-gnu/nios2-elf/lib/mno-hw-mul/libc.a(lib_a-dtoa.o) (__floatunsidf)
/CMC/tools/altera/13.1/nios2eds/bin/gnu/H-i686-pc-linux-gnu/bin/../lib/gcc/nios2-elf/4.7.3/mno-hw-mul/libgcc.a(lib2-divmod.o)
                              /CMC/tools/altera/13.1/nios2eds/bin/gnu/H-i686-pc-linux-gnu/bin/../lib/gcc/nios2-elf/4.7.3/../../../../../H-i686-pc-linux-gnu/nios2-elf/lib/mno-hw-mul/libc.a(lib_a-vfprintf.o) (__divsi3)
/CMC/tools/altera/13.1/nios2eds/bin/gnu/H-i686-pc-linux-gnu/bin/../lib/gcc/nios2-elf/4.7.3/mno-hw-mul/libgcc.a(_muldi3.o)
                              /CMC/tools/altera/13.1/nios2eds/bin/gnu/H-i686-pc-linux-gnu/bin/../lib/gcc/nios2-elf/4.7.3/mno-hw-mul/libgcc.a(_mul_df.o) (__muldi3)
/CMC/tools/altera/13.1/nios2eds/bin/gnu/H-i686-pc-linux-gnu/bin/../lib/gcc/nios2-elf/4.7.3/mno-hw-mul/libgcc.a(_clz.o)
                              /CMC/tools/altera/13.1/nios2eds/bin/gnu/H-i686-pc-linux-gnu/bin/../lib/gcc/nios2-elf/4.7.3/mno-hw-mul/libgcc.a(_udivdi3.o) (__clz_tab)
/CMC/tools/altera/13.1/nios2eds/bin/gnu/H-i686-pc-linux-gnu/bin/../lib/gcc/nios2-elf/4.7.3/mno-hw-mul/libgcc.a(_clzsi2.o)
                              /CMC/tools/altera/13.1/nios2eds/bin/gnu/H-i686-pc-linux-gnu/bin/../lib/gcc/nios2-elf/4.7.3/mno-hw-mul/libgcc.a(_si_to_df.o) (__clzsi2)
/CMC/tools/altera/13.1/nios2eds/bin/gnu/H-i686-pc-linux-gnu/bin/../lib/gcc/nios2-elf/4.7.3/mno-hw-mul/libgcc.a(_pack_df.o)
                              /CMC/tools/altera/13.1/nios2eds/bin/gnu/H-i686-pc-linux-gnu/bin/../lib/gcc/nios2-elf/4.7.3/mno-hw-mul/libgcc.a(_addsub_df.o) (__pack_d)
/CMC/tools/altera/13.1/nios2eds/bin/gnu/H-i686-pc-linux-gnu/bin/../lib/gcc/nios2-elf/4.7.3/mno-hw-mul/libgcc.a(_unpack_df.o)
                              /CMC/tools/altera/13.1/nios2eds/bin/gnu/H-i686-pc-linux-gnu/bin/../lib/gcc/nios2-elf/4.7.3/mno-hw-mul/libgcc.a(_addsub_df.o) (__unpack_d)
/CMC/tools/altera/13.1/nios2eds/bin/gnu/H-i686-pc-linux-gnu/bin/../lib/gcc/nios2-elf/4.7.3/mno-hw-mul/libgcc.a(_fpcmp_parts_df.o)
                              /CMC/tools/altera/13.1/nios2eds/bin/gnu/H-i686-pc-linux-gnu/bin/../lib/gcc/nios2-elf/4.7.3/mno-hw-mul/libgcc.a(_eq_df.o) (__fpcmp_parts_d)
/CMC/tools/altera/13.1/nios2eds/bin/gnu/H-i686-pc-linux-gnu/bin/../lib/gcc/nios2-elf/4.7.3/mno-hw-mul/libgcc.a(_lshrdi3.o)
                              /CMC/tools/altera/13.1/nios2eds/bin/gnu/H-i686-pc-linux-gnu/bin/../lib/gcc/nios2-elf/4.7.3/mno-hw-mul/libgcc.a(_pack_df.o) (__lshrdi3)
/CMC/tools/altera/13.1/nios2eds/bin/gnu/H-i686-pc-linux-gnu/bin/../lib/gcc/nios2-elf/4.7.3/mno-hw-mul/libgcc.a(_ashldi3.o)
                              /CMC/tools/altera/13.1/nios2eds/bin/gnu/H-i686-pc-linux-gnu/bin/../lib/gcc/nios2-elf/4.7.3/mno-hw-mul/libgcc.a(_pack_df.o) (__ashldi3)
../ucosMon_bsp//libucosii_bsp.a(alt_close.o)
                              /CMC/tools/altera/13.1/nios2eds/bin/gnu/H-i686-pc-linux-gnu/bin/../lib/gcc/nios2-elf/4.7.3/../../../../../H-i686-pc-linux-gnu/nios2-elf/lib/mno-hw-mul/libc.a(lib_a-closer.o) (close)
../ucosMon_bsp//libucosii_bsp.a(alt_dev.o)
                              ../ucosMon_bsp//libucosii_bsp.a(alt_close.o) (alt_fd_list)
../ucosMon_bsp//libucosii_bsp.a(alt_dma_rxchan_open.o)
                              obj/default/Monitor.o (alt_dma_rxchan_open)
../ucosMon_bsp//libucosii_bsp.a(alt_dma_txchan_open.o)
                              obj/default/Monitor.o (alt_dma_txchan_open)
../ucosMon_bsp//libucosii_bsp.a(alt_errno.o)
                              ../ucosMon_bsp//libucosii_bsp.a(alt_close.o) (alt_errno)
../ucosMon_bsp//libucosii_bsp.a(alt_exit.o)
                              /CMC/tools/altera/13.1/nios2eds/bin/gnu/H-i686-pc-linux-gnu/bin/../lib/gcc/nios2-elf/4.7.3/../../../../../H-i686-pc-linux-gnu/nios2-elf/lib/mno-hw-mul/libc.a(lib_a-exit.o) (_exit)
../ucosMon_bsp//libucosii_bsp.a(alt_find_dev.o)
                              ../ucosMon_bsp//libucosii_bsp.a(alt_dma_rxchan_open.o) (alt_find_dev)
../ucosMon_bsp//libucosii_bsp.a(alt_fstat.o)
                              /CMC/tools/altera/13.1/nios2eds/bin/gnu/H-i686-pc-linux-gnu/bin/../lib/gcc/nios2-elf/4.7.3/../../../../../H-i686-pc-linux-gnu/nios2-elf/lib/mno-hw-mul/libc.a(lib_a-fstatr.o) (fstat)
../ucosMon_bsp//libucosii_bsp.a(alt_iic.o)
                              obj/default/Monitor.o (alt_ic_isr_register)
../ucosMon_bsp//libucosii_bsp.a(alt_iic_isr_register.o)
                              ../ucosMon_bsp//libucosii_bsp.a(alt_iic.o) (alt_iic_isr_register)
../ucosMon_bsp//libucosii_bsp.a(alt_irq_entry.o)
                              ../ucosMon_bsp//libucosii_bsp.a(alt_iic_isr_register.o) (alt_irq_entry)
../ucosMon_bsp//libucosii_bsp.a(alt_irq_handler.o)
                              ../ucosMon_bsp//libucosii_bsp.a(alt_iic_isr_register.o) (alt_irq)
../ucosMon_bsp//libucosii_bsp.a(alt_irq_vars.o)
                              ../ucosMon_bsp//libucosii_bsp.a(alt_iic.o) (alt_irq_active)
../ucosMon_bsp//libucosii_bsp.a(alt_isatty.o)
                              /CMC/tools/altera/13.1/nios2eds/bin/gnu/H-i686-pc-linux-gnu/bin/../lib/gcc/nios2-elf/4.7.3/../../../../../H-i686-pc-linux-gnu/nios2-elf/lib/mno-hw-mul/libc.a(lib_a-isattyr.o) (isatty)
../ucosMon_bsp//libucosii_bsp.a(alt_load.o)
                              ../ucosMon_bsp//obj/HAL/src/crt0.o (alt_load)
../ucosMon_bsp//libucosii_bsp.a(alt_lseek.o)
                              /CMC/tools/altera/13.1/nios2eds/bin/gnu/H-i686-pc-linux-gnu/bin/../lib/gcc/nios2-elf/4.7.3/../../../../../H-i686-pc-linux-gnu/nios2-elf/lib/mno-hw-mul/libc.a(lib_a-lseekr.o) (lseek)
../ucosMon_bsp//libucosii_bsp.a(alt_main.o)
                              ../ucosMon_bsp//obj/HAL/src/crt0.o (alt_main)
../ucosMon_bsp//libucosii_bsp.a(alt_read.o)
                              /CMC/tools/altera/13.1/nios2eds/bin/gnu/H-i686-pc-linux-gnu/bin/../lib/gcc/nios2-elf/4.7.3/../../../../../H-i686-pc-linux-gnu/nios2-elf/lib/mno-hw-mul/libc.a(lib_a-readr.o) (read)
../ucosMon_bsp//libucosii_bsp.a(alt_release_fd.o)
                              ../ucosMon_bsp//libucosii_bsp.a(alt_close.o) (alt_release_fd)
../ucosMon_bsp//libucosii_bsp.a(alt_sbrk.o)
                              /CMC/tools/altera/13.1/nios2eds/bin/gnu/H-i686-pc-linux-gnu/bin/../lib/gcc/nios2-elf/4.7.3/../../../../../H-i686-pc-linux-gnu/nios2-elf/lib/mno-hw-mul/libc.a(lib_a-sbrkr.o) (sbrk)
../ucosMon_bsp//libucosii_bsp.a(alt_times.o)
                              /CMC/tools/altera/13.1/nios2eds/bin/gnu/H-i686-pc-linux-gnu/bin/../lib/gcc/nios2-elf/4.7.3/../../../../../H-i686-pc-linux-gnu/nios2-elf/lib/mno-hw-mul/libc.a(lib_a-timesr.o) (times)
../ucosMon_bsp//libucosii_bsp.a(alt_write.o)
                              /CMC/tools/altera/13.1/nios2eds/bin/gnu/H-i686-pc-linux-gnu/bin/../lib/gcc/nios2-elf/4.7.3/../../../../../H-i686-pc-linux-gnu/nios2-elf/lib/mno-hw-mul/libc.a(lib_a-writer.o) (write)
../ucosMon_bsp//libucosii_bsp.a(alt_env_lock.o)
                              ../ucosMon_bsp//libucosii_bsp.a(alt_main.o) (alt_envsem)
../ucosMon_bsp//libucosii_bsp.a(alt_malloc_lock.o)
                              ../ucosMon_bsp//libucosii_bsp.a(alt_main.o) (alt_heapsem)
../ucosMon_bsp//libucosii_bsp.a(os_core.o)
                              ../ucosMon_bsp//libucosii_bsp.a(alt_exit.o) (OSRunning)
../ucosMon_bsp//libucosii_bsp.a(os_dbg.o)
                              ../ucosMon_bsp//libucosii_bsp.a(os_core.o) (OSDebugInit)
../ucosMon_bsp//libucosii_bsp.a(os_flag.o)
                              ../ucosMon_bsp//libucosii_bsp.a(os_core.o) (OS_FlagInit)
../ucosMon_bsp//libucosii_bsp.a(os_mem.o)
                              ../ucosMon_bsp//libucosii_bsp.a(os_core.o) (OS_MemInit)
../ucosMon_bsp//libucosii_bsp.a(os_q.o)
                              ../ucosMon_bsp//libucosii_bsp.a(os_core.o) (OS_QInit)
../ucosMon_bsp//libucosii_bsp.a(os_sem.o)
                              obj/default/Monitor.o (OSSemCreate)
../ucosMon_bsp//libucosii_bsp.a(os_task.o)
                              obj/default/Monitor.o (OSTaskCreateExt)
../ucosMon_bsp//libucosii_bsp.a(os_time.o)
                              ../ucosMon_bsp//libucosii_bsp.a(os_core.o) (OSTimeDly)
../ucosMon_bsp//libucosii_bsp.a(alt_sys_init.o)
                              ../ucosMon_bsp//libucosii_bsp.a(alt_main.o) (alt_irq_init)
../ucosMon_bsp//libucosii_bsp.a(altera_avalon_dma.o)
                              ../ucosMon_bsp//libucosii_bsp.a(alt_sys_init.o) (alt_avalon_dma_launch_bidir)
../ucosMon_bsp//libucosii_bsp.a(altera_avalon_jtag_uart_fd.o)
                              ../ucosMon_bsp//libucosii_bsp.a(alt_sys_init.o) (altera_avalon_jtag_uart_read_fd)
../ucosMon_bsp//libucosii_bsp.a(altera_avalon_jtag_uart_init.o)
                              ../ucosMon_bsp//libucosii_bsp.a(alt_sys_init.o) (altera_avalon_jtag_uart_init)
../ucosMon_bsp//libucosii_bsp.a(altera_avalon_jtag_uart_ioctl.o)
                              ../ucosMon_bsp//libucosii_bsp.a(altera_avalon_jtag_uart_fd.o) (altera_avalon_jtag_uart_ioctl)
../ucosMon_bsp//libucosii_bsp.a(altera_avalon_jtag_uart_read.o)
                              ../ucosMon_bsp//libucosii_bsp.a(altera_avalon_jtag_uart_fd.o) (altera_avalon_jtag_uart_read)
../ucosMon_bsp//libucosii_bsp.a(altera_avalon_jtag_uart_write.o)
                              ../ucosMon_bsp//libucosii_bsp.a(altera_avalon_jtag_uart_fd.o) (altera_avalon_jtag_uart_write)
../ucosMon_bsp//libucosii_bsp.a(altera_avalon_mutex.o)
                              ../ucosMon_bsp//libucosii_bsp.a(alt_sys_init.o) (alt_mutex_list)
../ucosMon_bsp//libucosii_bsp.a(altera_avalon_timer_sc.o)
                              ../ucosMon_bsp//libucosii_bsp.a(alt_sys_init.o) (alt_avalon_timer_sc_init)
../ucosMon_bsp//libucosii_bsp.a(altera_avalon_timer_vars.o)
                              ../ucosMon_bsp//libucosii_bsp.a(alt_sys_init.o) (altera_avalon_timer_ts_base)
../ucosMon_bsp//libucosii_bsp.a(altera_ro_zipfs.o)
                              ../ucosMon_bsp//libucosii_bsp.a(alt_sys_init.o) (alt_ro_zipfs_open)
../ucosMon_bsp//libucosii_bsp.a(alt_alarm_start.o)
                              ../ucosMon_bsp//libucosii_bsp.a(altera_avalon_jtag_uart_init.o) (alt_alarm_start)
../ucosMon_bsp//libucosii_bsp.a(alt_dcache_flush_all.o)
                              ../ucosMon_bsp//libucosii_bsp.a(alt_load.o) (alt_dcache_flush_all)
../ucosMon_bsp//libucosii_bsp.a(alt_dev_llist_insert.o)
                              ../ucosMon_bsp//libucosii_bsp.a(alt_sys_init.o) (alt_dev_llist_insert)
../ucosMon_bsp//libucosii_bsp.a(alt_do_ctors.o)
                              ../ucosMon_bsp//libucosii_bsp.a(alt_main.o) (_do_ctors)
../ucosMon_bsp//libucosii_bsp.a(alt_do_dtors.o)
                              ../ucosMon_bsp//libucosii_bsp.a(alt_main.o) (_do_dtors)
../ucosMon_bsp//libucosii_bsp.a(alt_exception_entry.o)
                              ../ucosMon_bsp//libucosii_bsp.a(alt_irq_entry.o) (alt_exception)
../ucosMon_bsp//libucosii_bsp.a(alt_fs_reg.o)
                              ../ucosMon_bsp//libucosii_bsp.a(alt_sys_init.o) (alt_fs_reg)
../ucosMon_bsp//libucosii_bsp.a(alt_icache_flush_all.o)
                              ../ucosMon_bsp//libucosii_bsp.a(alt_load.o) (alt_icache_flush_all)
../ucosMon_bsp//libucosii_bsp.a(alt_io_redirect.o)
                              ../ucosMon_bsp//libucosii_bsp.a(alt_main.o) (alt_io_redirect)
../ucosMon_bsp//libucosii_bsp.a(alt_open.o)
                              ../ucosMon_bsp//libucosii_bsp.a(alt_io_redirect.o) (open)
../ucosMon_bsp//libucosii_bsp.a(alt_tick.o)
                              ../ucosMon_bsp//libucosii_bsp.a(alt_times.o) (_alt_tick_rate)
../ucosMon_bsp//libucosii_bsp.a(altera_nios2_qsys_irq.o)
                              ../ucosMon_bsp//libucosii_bsp.a(alt_sys_init.o) (altera_nios2_qsys_irq_init)
../ucosMon_bsp//libucosii_bsp.a(os_cpu_a.o)
                              ../ucosMon_bsp//libucosii_bsp.a(os_core.o) (OSIntCtxSw)
../ucosMon_bsp//libucosii_bsp.a(os_cpu_c.o)
                              ../ucosMon_bsp//libucosii_bsp.a(os_task.o) (OSTaskStkInit)
../ucosMon_bsp//libucosii_bsp.a(alt_find_file.o)
                              ../ucosMon_bsp//libucosii_bsp.a(alt_open.o) (alt_find_file)
../ucosMon_bsp//libucosii_bsp.a(alt_get_fd.o)
                              ../ucosMon_bsp//libucosii_bsp.a(alt_open.o) (alt_get_fd)
../ucosMon_bsp//libucosii_bsp.a(alt_icache_flush.o)
                              ../ucosMon_bsp//libucosii_bsp.a(alt_icache_flush_all.o) (alt_icache_flush)
/CMC/tools/altera/13.1/nios2eds/bin/gnu/H-i686-pc-linux-gnu/bin/../lib/gcc/nios2-elf/4.7.3/../../../../../H-i686-pc-linux-gnu/nios2-elf/lib/mno-hw-mul/libc.a(lib_a-atexit.o)
                              ../ucosMon_bsp//libucosii_bsp.a(alt_main.o) (atexit)
/CMC/tools/altera/13.1/nios2eds/bin/gnu/H-i686-pc-linux-gnu/bin/../lib/gcc/nios2-elf/4.7.3/../../../../../H-i686-pc-linux-gnu/nios2-elf/lib/mno-hw-mul/libc.a(lib_a-memcmp.o)
                              ../ucosMon_bsp//libucosii_bsp.a(alt_find_dev.o) (memcmp)
/CMC/tools/altera/13.1/nios2eds/bin/gnu/H-i686-pc-linux-gnu/bin/../lib/gcc/nios2-elf/4.7.3/../../../../../H-i686-pc-linux-gnu/nios2-elf/lib/mno-hw-mul/libc.a(lib_a-strncmp.o)
                              ../ucosMon_bsp//libucosii_bsp.a(altera_ro_zipfs.o) (strncmp)
/CMC/tools/altera/13.1/nios2eds/bin/gnu/H-i686-pc-linux-gnu/bin/../lib/gcc/nios2-elf/4.7.3/../../../../../H-i686-pc-linux-gnu/nios2-elf/lib/mno-hw-mul/libc.a(lib_a-__atexit.o)
                              /CMC/tools/altera/13.1/nios2eds/bin/gnu/H-i686-pc-linux-gnu/bin/../lib/gcc/nios2-elf/4.7.3/../../../../../H-i686-pc-linux-gnu/nios2-elf/lib/mno-hw-mul/libc.a(lib_a-atexit.o) (__register_exitproc)
/CMC/tools/altera/13.1/nios2eds/bin/gnu/H-i686-pc-linux-gnu/bin/../lib/gcc/nios2-elf/4.7.3/mno-hw-mul/libgcc.a(_fixunsdfsi.o)
                              ../ucosMon_bsp//libucosii_bsp.a(os_time.o) (__fixunsdfsi)

Allocating common symbols
Common symbol       size              file

alt_irq             0x100             ../ucosMon_bsp//libucosii_bsp.a(alt_irq_handler.o)
OSLockNesting       0x1               ../ucosMon_bsp//libucosii_bsp.a(os_core.o)
OSRunning           0x1               ../ucosMon_bsp//libucosii_bsp.a(os_core.o)
OSIdleCtr           0x4               ../ucosMon_bsp//libucosii_bsp.a(os_core.o)
start_schedule      0x4               obj/default/Monitor.o
OSPrioHighRdy       0x1               ../ucosMon_bsp//libucosii_bsp.a(os_core.o)
errno               0x4               /CMC/tools/altera/13.1/nios2eds/bin/gnu/H-i686-pc-linux-gnu/bin/../lib/gcc/nios2-elf/4.7.3/../../../../../H-i686-pc-linux-gnu/nios2-elf/lib/mno-hw-mul/libc.a(lib_a-int_errno.o)
alt_heapsem         0x4               ../ucosMon_bsp//libucosii_bsp.a(alt_malloc_lock.o)
OSFlagTbl           0x370             ../ucosMon_bsp//libucosii_bsp.a(os_core.o)
OSPrioCur           0x1               ../ucosMon_bsp//libucosii_bsp.a(os_core.o)
OSTCBList           0x4               ../ucosMon_bsp//libucosii_bsp.a(os_core.o)
alt_fd_list_lock    0x4               ../ucosMon_bsp//libucosii_bsp.a(alt_dev.o)
OSMemTbl            0xc30             ../ucosMon_bsp//libucosii_bsp.a(os_core.o)
OSTickStepState     0x1               ../ucosMon_bsp//libucosii_bsp.a(os_core.o)
OSTaskStatStk       0x800             ../ucosMon_bsp//libucosii_bsp.a(os_core.o)
OSCtxSwCtr          0x4               ../ucosMon_bsp//libucosii_bsp.a(os_core.o)
done                0x4               obj/default/Monitor.o
OSIdleCtrMax        0x4               ../ucosMon_bsp//libucosii_bsp.a(os_core.o)
OSTCBFreeList       0x4               ../ucosMon_bsp//libucosii_bsp.a(os_core.o)
mutex               0x4               obj/default/Monitor.o
OSCPUUsage          0x1               ../ucosMon_bsp//libucosii_bsp.a(os_core.o)
OSTaskCtr           0x1               ../ucosMon_bsp//libucosii_bsp.a(os_core.o)
OSMemFreeList       0x4               ../ucosMon_bsp//libucosii_bsp.a(os_core.o)
endstate            0x28              obj/default/Monitor.o
OSQTbl              0x1e0             ../ucosMon_bsp//libucosii_bsp.a(os_core.o)
OSTCBHighRdy        0x4               ../ucosMon_bsp//libucosii_bsp.a(os_core.o)
OSQFreeList         0x4               ../ucosMon_bsp//libucosii_bsp.a(os_core.o)
OSRdyGrp            0x1               ../ucosMon_bsp//libucosii_bsp.a(os_core.o)
err                 0x1               obj/default/Monitor.o
_atexit0            0x190             /CMC/tools/altera/13.1/nios2eds/bin/gnu/H-i686-pc-linux-gnu/bin/../lib/gcc/nios2-elf/4.7.3/../../../../../H-i686-pc-linux-gnu/nios2-elf/lib/mno-hw-mul/libc.a(lib_a-atexit.o)
OSRdyTbl            0x3               ../ucosMon_bsp//libucosii_bsp.a(os_core.o)
OSEventFreeList     0x4               ../ucosMon_bsp//libucosii_bsp.a(os_core.o)
OSIntNesting        0x1               ../ucosMon_bsp//libucosii_bsp.a(os_core.o)
OSTCBCur            0x4               ../ucosMon_bsp//libucosii_bsp.a(os_core.o)
OSTime              0x4               ../ucosMon_bsp//libucosii_bsp.a(os_core.o)
OSTaskIdleStk       0x800             ../ucosMon_bsp//libucosii_bsp.a(os_core.o)
OSEventTbl          0xb40             ../ucosMon_bsp//libucosii_bsp.a(os_core.o)
OSTCBTbl            0x510             ../ucosMon_bsp//libucosii_bsp.a(os_core.o)
OSFlagFreeList      0x4               ../ucosMon_bsp//libucosii_bsp.a(os_core.o)
OSStatRdy           0x1               ../ucosMon_bsp//libucosii_bsp.a(os_core.o)
OSTCBPrioTbl        0x54              ../ucosMon_bsp//libucosii_bsp.a(os_core.o)
status              0x4               obj/default/Monitor.o
alt_envsem          0x4               ../ucosMon_bsp//libucosii_bsp.a(alt_env_lock.o)
OSIdleCtrRun        0x4               ../ucosMon_bsp//libucosii_bsp.a(os_core.o)

Memory Configuration

Name             Origin             Length             Attributes
reset            0x00400000         0x00000020
memory_0_onchip_memoryMain 0x00400020         0x00030fe0
global_data      0x00431000         0x00001000
shared_memory    0x02500000         0x00000400
processorM_0_scratchpad 0x08200000         0x00004000
*default*        0x00000000         0xffffffff

Linker script and memory map

LOAD ../ucosMon_bsp//obj/HAL/src/crt0.o
LOAD obj/default/Monitor.o
LOAD obj/default/gp.o
LOAD ../critical_library/libcritical_library.a
LOAD /CMC/tools/altera/13.1/nios2eds/bin/gnu/H-i686-pc-linux-gnu/bin/../lib/gcc/nios2-elf/4.7.3/../../../../../H-i686-pc-linux-gnu/nios2-elf/lib/mno-hw-mul/libstdc++.a
LOAD /CMC/tools/altera/13.1/nios2eds/bin/gnu/H-i686-pc-linux-gnu/bin/../lib/gcc/nios2-elf/4.7.3/../../../../../H-i686-pc-linux-gnu/nios2-elf/lib/mno-hw-mul/libm.a
LOAD /CMC/tools/altera/13.1/nios2eds/bin/gnu/H-i686-pc-linux-gnu/bin/../lib/gcc/nios2-elf/4.7.3/mno-hw-mul/libgcc.a
START GROUP
LOAD /CMC/tools/altera/13.1/nios2eds/bin/gnu/H-i686-pc-linux-gnu/bin/../lib/gcc/nios2-elf/4.7.3/../../../../../H-i686-pc-linux-gnu/nios2-elf/lib/mno-hw-mul/libc.a
LOAD /CMC/tools/altera/13.1/nios2eds/bin/gnu/H-i686-pc-linux-gnu/bin/../lib/gcc/nios2-elf/4.7.3/mno-hw-mul/libgcc.a
LOAD ../ucosMon_bsp//libucosii_bsp.a
END GROUP
LOAD /CMC/tools/altera/13.1/nios2eds/bin/gnu/H-i686-pc-linux-gnu/bin/../lib/gcc/nios2-elf/4.7.3/mno-hw-mul/libgcc.a
                0x00400000                __alt_mem_memory_0_onchip_memoryMain = 0x400000
                0x02500000                __alt_mem_shared_memory = 0x2500000
                0x08200000                __alt_mem_processorM_0_scratchpad = 0x8200000

.entry          0x00400000       0x20
 *(.entry)
 .entry         0x00400000       0x20 ../ucosMon_bsp//obj/HAL/src/crt0.o
                0x00400000                __reset

.exceptions     0x00400020      0x19c
                0x00400020                PROVIDE (__ram_exceptions_start, ABSOLUTE (.))
                0x00400020                . = ALIGN (0x20)
 *(.irq)
 *(.exceptions.entry.label)
 .exceptions.entry.label
                0x00400020        0x0 ../ucosMon_bsp//libucosii_bsp.a(alt_irq_entry.o)
                0x00400020                alt_irq_entry
 .exceptions.entry.label
                0x00400020        0x0 ../ucosMon_bsp//libucosii_bsp.a(alt_exception_entry.o)
                0x00400020                alt_exception
 *(.exceptions.entry.user)
 *(.exceptions.entry.ecc_fatal)
 *(.exceptions.entry)
 .exceptions.entry
                0x00400020       0x54 ../ucosMon_bsp//libucosii_bsp.a(alt_exception_entry.o)
 *(.exceptions.irqtest.user)
 *(.exceptions.irqtest)
 .exceptions.irqtest
                0x00400074       0x10 ../ucosMon_bsp//libucosii_bsp.a(alt_irq_entry.o)
 *(.exceptions.irqhandler.user)
 *(.exceptions.irqhandler)
 .exceptions.irqhandler
                0x00400084        0x4 ../ucosMon_bsp//libucosii_bsp.a(alt_irq_entry.o)
 *(.exceptions.irqreturn.user)
 *(.exceptions.irqreturn)
 .exceptions.irqreturn
                0x00400088        0x4 ../ucosMon_bsp//libucosii_bsp.a(alt_irq_entry.o)
 *(.exceptions.notirq.label)
 .exceptions.notirq.label
                0x0040008c        0x0 ../ucosMon_bsp//libucosii_bsp.a(alt_irq_entry.o)
 *(.exceptions.notirq.user)
 *(.exceptions.notirq)
 .exceptions.notirq
                0x0040008c        0x8 ../ucosMon_bsp//libucosii_bsp.a(alt_exception_entry.o)
 *(.exceptions.soft.user)
 *(.exceptions.soft)
 *(.exceptions.unknown.user)
 *(.exceptions.unknown)
 .exceptions.unknown
                0x00400094        0x4 ../ucosMon_bsp//libucosii_bsp.a(alt_exception_entry.o)
 *(.exceptions.exit.label)
 .exceptions.exit.label
                0x00400098        0x0 ../ucosMon_bsp//libucosii_bsp.a(alt_irq_entry.o)
 .exceptions.exit.label
                0x00400098        0x0 ../ucosMon_bsp//libucosii_bsp.a(alt_exception_entry.o)
 *(.exceptions.exit.user)
 *(.exceptions.exit)
 .exceptions.exit
                0x00400098       0x54 ../ucosMon_bsp//libucosii_bsp.a(alt_exception_entry.o)
 *(.exceptions)
 .exceptions    0x004000ec       0xd0 ../ucosMon_bsp//libucosii_bsp.a(alt_irq_handler.o)
                0x004000ec                alt_irq_handler
                0x004001bc                PROVIDE (__ram_exceptions_end, ABSOLUTE (.))
                0x00400020                PROVIDE (__flash_exceptions_start, LOADADDR (.exceptions))

.critical       0x08200000     0x2400
                0x08200000                PROVIDE (_alt_partition_critical_start, ABSOLUTE (.))
 *(.critical .critical.*)
 .critical      0x08200000     0x2400 obj/default/Monitor.o
                0x08200000                schedule_task_stk
                0x08200c00                print_status_stk
                0x08201800                print_execution_times_stk
                0x08202400                . = ALIGN (0x4)
                0x08202400                PROVIDE (_alt_partition_critical_end, ABSOLUTE (.))

.global_data    0x00431000        0x0
                0x00431000                PROVIDE (_alt_partition_global_data_start, ABSOLUTE (.))
 *(.global_data .global_data.*)
                0x00431000                . = ALIGN (0x4)
                0x00431000                PROVIDE (_alt_partition_global_data_end, ABSOLUTE (.))

.text           0x004001bc    0x19418
                0x004001bc                PROVIDE (stext, ABSOLUTE (.))
 *(.interp)
 *(.hash)
 *(.dynsym)
 *(.dynstr)
 *(.gnu.version)
 *(.gnu.version_d)
 *(.gnu.version_r)
 *(.rel.init)
 *(.rela.init)
 *(.rel.text .rel.text.* .rel.gnu.linkonce.t.*)
 *(.rela.text .rela.text.* .rela.gnu.linkonce.t.*)
 *(.rel.fini)
 *(.rela.fini)
 *(.rel.rodata .rel.rodata.* .rel.gnu.linkonce.r.*)
 *(.rela.rodata .rela.rodata.* .rela.gnu.linkonce.r.*)
 *(.rel.data .rel.data.* .rel.gnu.linkonce.d.*)
 *(.rela.data .rela.data.* .rela.gnu.linkonce.d.*)
 *(.rel.tdata .rel.tdata.* .rel.gnu.linkonce.td.*)
 *(.rela.tdata .rela.tdata.* .rela.gnu.linkonce.td.*)
 *(.rel.tbss .rel.tbss.* .rel.gnu.linkonce.tb.*)
 *(.rela.tbss .rela.tbss.* .rela.gnu.linkonce.tb.*)
 *(.rel.ctors)
 *(.rela.ctors)
 *(.rel.dtors)
 *(.rela.dtors)
 *(.rel.got)
 *(.rela.got)
 *(.rel.sdata .rel.sdata.* .rel.gnu.linkonce.s.*)
 *(.rela.sdata .rela.sdata.* .rela.gnu.linkonce.s.*)
 *(.rel.sbss .rel.sbss.* .rel.gnu.linkonce.sb.*)
 *(.rela.sbss .rela.sbss.* .rela.gnu.linkonce.sb.*)
 *(.rel.sdata2 .rel.sdata2.* .rel.gnu.linkonce.s2.*)
 *(.rela.sdata2 .rela.sdata2.* .rela.gnu.linkonce.s2.*)
 *(.rel.sbss2 .rel.sbss2.* .rel.gnu.linkonce.sb2.*)
 *(.rela.sbss2 .rela.sbss2.* .rela.gnu.linkonce.sb2.*)
 *(.rel.bss .rel.bss.* .rel.gnu.linkonce.b.*)
 *(.rela.bss .rela.bss.* .rela.gnu.linkonce.b.*)
 *(.rel.plt)
 *(.rela.plt)
 *(.rel.dyn)
 *(.init)
 *(.plt)
 *(.text .stub .text.* .gnu.linkonce.t.*)
 .text          0x004001bc       0x3c ../ucosMon_bsp//obj/HAL/src/crt0.o
                0x004001bc                _start
 .text          0x004001f8      0x988 obj/default/Monitor.o
                0x004002c8                schedule_task
                0x00400378                print_status_task
                0x00400490                print_execution_times
                0x00400694                dma
                0x00400898                main
 .text          0x00400b80       0x24 obj/default/gp.o
                0x00400b80                get_gp
                0x00400b8c                set_gp
                0x00400b98                restore_gp
 .text          0x00400ba4       0x6c ../critical_library/libcritical_library.a(critical.o)
                0x00400ba4                write_led
                0x00400bc0                critical_task
                0x00400be8                preempt_task
 .text          0x00400c10      0x260 ../critical_library/libcritical_library.a(fingerprint.o)
                0x00400c10                set_task_directory
                0x00400ca8                enable_fprint_task
                0x00400cd4                disable_fprint_task
                0x00400cf8                fprint_reset_irq
                0x00400d18                fprint_status
                0x00400d68                fprint_set_block_size
                0x00400d90                set_core_assignment
                0x00400ddc                set_core_assignment_table
 .text          0x00400e70       0x28 /CMC/tools/altera/13.1/nios2eds/bin/gnu/H-i686-pc-linux-gnu/bin/../lib/gcc/nios2-elf/4.7.3/mno-hw-mul/libgcc.a(lib2-mul.o)
                0x00400e70                __mulsi3
 .text          0x00400e98       0x4c /CMC/tools/altera/13.1/nios2eds/bin/gnu/H-i686-pc-linux-gnu/bin/../lib/gcc/nios2-elf/4.7.3/../../../../../H-i686-pc-linux-gnu/nios2-elf/lib/mno-hw-mul/libc.a(lib_a-clock.o)
                0x00400e98                clock
 .text          0x00400ee4       0x38 /CMC/tools/altera/13.1/nios2eds/bin/gnu/H-i686-pc-linux-gnu/bin/../lib/gcc/nios2-elf/4.7.3/../../../../../H-i686-pc-linux-gnu/nios2-elf/lib/mno-hw-mul/libc.a(lib_a-exit.o)
                0x00400ee4                exit
 .text          0x00400f1c        0x0 /CMC/tools/altera/13.1/nios2eds/bin/gnu/H-i686-pc-linux-gnu/bin/../lib/gcc/nios2-elf/4.7.3/../../../../../H-i686-pc-linux-gnu/nios2-elf/lib/mno-hw-mul/libc.a(lib_a-impure.o)
 .text          0x00400f1c      0x140 /CMC/tools/altera/13.1/nios2eds/bin/gnu/H-i686-pc-linux-gnu/bin/../lib/gcc/nios2-elf/4.7.3/../../../../../H-i686-pc-linux-gnu/nios2-elf/lib/mno-hw-mul/libc.a(lib_a-memcpy.o)
                0x00400f1c                memcpy
 .text          0x0040105c       0x68 /CMC/tools/altera/13.1/nios2eds/bin/gnu/H-i686-pc-linux-gnu/bin/../lib/gcc/nios2-elf/4.7.3/../../../../../H-i686-pc-linux-gnu/nios2-elf/lib/mno-hw-mul/libc.a(lib_a-printf.o)
                0x0040105c                _printf_r
                0x00401088                printf
 .text          0x004010c4       0x98 /CMC/tools/altera/13.1/nios2eds/bin/gnu/H-i686-pc-linux-gnu/bin/../lib/gcc/nios2-elf/4.7.3/../../../../../H-i686-pc-linux-gnu/nios2-elf/lib/mno-hw-mul/libc.a(lib_a-puts.o)
                0x004010c4                _puts_r
                0x00401148                puts
 .text          0x0040115c       0x8c /CMC/tools/altera/13.1/nios2eds/bin/gnu/H-i686-pc-linux-gnu/bin/../lib/gcc/nios2-elf/4.7.3/../../../../../H-i686-pc-linux-gnu/nios2-elf/lib/mno-hw-mul/libc.a(lib_a-strlen.o)
                0x0040115c                strlen
 .text          0x004011e8        0x8 /CMC/tools/altera/13.1/nios2eds/bin/gnu/H-i686-pc-linux-gnu/bin/../lib/gcc/nios2-elf/4.7.3/../../../../../H-i686-pc-linux-gnu/nios2-elf/lib/mno-hw-mul/libc.a(lib_a-timesr.o)
                0x004011e8                _times_r
 .text          0x004011f0     0x1ed4 /CMC/tools/altera/13.1/nios2eds/bin/gnu/H-i686-pc-linux-gnu/bin/../lib/gcc/nios2-elf/4.7.3/../../../../../H-i686-pc-linux-gnu/nios2-elf/lib/mno-hw-mul/libc.a(lib_a-vfprintf.o)
                0x00401224                ___vfprintf_internal_r
                0x004030a0                __vfprintf_internal
 .text          0x004030c4      0x174 /CMC/tools/altera/13.1/nios2eds/bin/gnu/H-i686-pc-linux-gnu/bin/../lib/gcc/nios2-elf/4.7.3/../../../../../H-i686-pc-linux-gnu/nios2-elf/lib/mno-hw-mul/libc.a(lib_a-wsetup.o)
                0x004030c4                __swsetup_r
 .text          0x00403238      0x1a0 /CMC/tools/altera/13.1/nios2eds/bin/gnu/H-i686-pc-linux-gnu/bin/../lib/gcc/nios2-elf/4.7.3/../../../../../H-i686-pc-linux-gnu/nios2-elf/lib/mno-hw-mul/libc.a(lib_a-__call_atexit.o)
                0x00403238                __call_exitprocs
 .text          0x004033d8     0x1858 /CMC/tools/altera/13.1/nios2eds/bin/gnu/H-i686-pc-linux-gnu/bin/../lib/gcc/nios2-elf/4.7.3/../../../../../H-i686-pc-linux-gnu/nios2-elf/lib/mno-hw-mul/libc.a(lib_a-dtoa.o)
                0x00403614                _dtoa_r
 .text          0x00404c30      0x218 /CMC/tools/altera/13.1/nios2eds/bin/gnu/H-i686-pc-linux-gnu/bin/../lib/gcc/nios2-elf/4.7.3/../../../../../H-i686-pc-linux-gnu/nios2-elf/lib/mno-hw-mul/libc.a(lib_a-fflush.o)
                0x00404c30                _fflush_r
                0x00404e18                fflush
 .text          0x00404e48      0x2ec /CMC/tools/altera/13.1/nios2eds/bin/gnu/H-i686-pc-linux-gnu/bin/../lib/gcc/nios2-elf/4.7.3/../../../../../H-i686-pc-linux-gnu/nios2-elf/lib/mno-hw-mul/libc.a(lib_a-findfp.o)
                0x00404e58                _cleanup_r
                0x00404e64                __sfmoreglue
                0x00404edc                _cleanup
                0x00404eec                __sinit
                0x00404ff8                __sfp
                0x004050f4                __sfp_lock_acquire
                0x004050f8                __sfp_lock_release
                0x004050fc                __sinit_lock_acquire
                0x00405100                __sinit_lock_release
                0x00405104                __fp_lock_all
                0x0040511c                __fp_unlock_all
 .text          0x00405134      0x40c /CMC/tools/altera/13.1/nios2eds/bin/gnu/H-i686-pc-linux-gnu/bin/../lib/gcc/nios2-elf/4.7.3/../../../../../H-i686-pc-linux-gnu/nios2-elf/lib/mno-hw-mul/libc.a(lib_a-freer.o)
                0x00405134                _malloc_trim_r
                0x00405270                _free_r
 .text          0x00405540      0x4e4 /CMC/tools/altera/13.1/nios2eds/bin/gnu/H-i686-pc-linux-gnu/bin/../lib/gcc/nios2-elf/4.7.3/../../../../../H-i686-pc-linux-gnu/nios2-elf/lib/mno-hw-mul/libc.a(lib_a-fvwrite.o)
                0x00405540                __sfvwrite_r
 .text          0x00405a24      0x160 /CMC/tools/altera/13.1/nios2eds/bin/gnu/H-i686-pc-linux-gnu/bin/../lib/gcc/nios2-elf/4.7.3/../../../../../H-i686-pc-linux-gnu/nios2-elf/lib/mno-hw-mul/libc.a(lib_a-fwalk.o)
                0x00405a24                _fwalk
                0x00405acc                _fwalk_reent
 .text          0x00405b84       0xdc /CMC/tools/altera/13.1/nios2eds/bin/gnu/H-i686-pc-linux-gnu/bin/../lib/gcc/nios2-elf/4.7.3/../../../../../H-i686-pc-linux-gnu/nios2-elf/lib/mno-hw-mul/libc.a(lib_a-locale.o)
                0x00405b84                _setlocale_r
                0x00405c20                __locale_charset
                0x00405c2c                _localeconv_r
                0x00405c38                setlocale
                0x00405c54                localeconv
 .text          0x00405c60      0x1a8 /CMC/tools/altera/13.1/nios2eds/bin/gnu/H-i686-pc-linux-gnu/bin/../lib/gcc/nios2-elf/4.7.3/../../../../../H-i686-pc-linux-gnu/nios2-elf/lib/mno-hw-mul/libc.a(lib_a-makebuf.o)
                0x00405c60                __smakebuf_r
 .text          0x00405e08      0x784 /CMC/tools/altera/13.1/nios2eds/bin/gnu/H-i686-pc-linux-gnu/bin/../lib/gcc/nios2-elf/4.7.3/../../../../../H-i686-pc-linux-gnu/nios2-elf/lib/mno-hw-mul/libc.a(lib_a-mallocr.o)
                0x00405e08                _malloc_r
 .text          0x0040658c       0xf8 /CMC/tools/altera/13.1/nios2eds/bin/gnu/H-i686-pc-linux-gnu/bin/../lib/gcc/nios2-elf/4.7.3/../../../../../H-i686-pc-linux-gnu/nios2-elf/lib/mno-hw-mul/libc.a(lib_a-memchr.o)
                0x0040658c                memchr
 .text          0x00406684      0x18c /CMC/tools/altera/13.1/nios2eds/bin/gnu/H-i686-pc-linux-gnu/bin/../lib/gcc/nios2-elf/4.7.3/../../../../../H-i686-pc-linux-gnu/nios2-elf/lib/mno-hw-mul/libc.a(lib_a-memmove.o)
                0x00406684                memmove
 .text          0x00406810       0xdc /CMC/tools/altera/13.1/nios2eds/bin/gnu/H-i686-pc-linux-gnu/bin/../lib/gcc/nios2-elf/4.7.3/../../../../../H-i686-pc-linux-gnu/nios2-elf/lib/mno-hw-mul/libc.a(lib_a-memset.o)
                0x00406810                memset
 .text          0x004068ec     0x1050 /CMC/tools/altera/13.1/nios2eds/bin/gnu/H-i686-pc-linux-gnu/bin/../lib/gcc/nios2-elf/4.7.3/../../../../../H-i686-pc-linux-gnu/nios2-elf/lib/mno-hw-mul/libc.a(lib_a-mprec.o)
                0x004068ec                _Balloc
                0x00406994                _Bfree
                0x004069bc                __multadd
                0x00406b00                __s2b
                0x00406c04                __hi0bits
                0x00406c6c                __lo0bits
                0x00406d1c                __i2b
                0x00406d58                __multiply
                0x00406fb0                __pow5mult
                0x004070dc                __lshift
                0x00407238                __mcmp
                0x00407290                __mdiff
                0x00407438                __ulp
                0x00407498                __b2d
                0x004075e0                __d2b
                0x00407724                __ratio
                0x004077c8                _mprec_log10
                0x0040783c                __copybits
                0x004078b8                __any_on
 .text          0x0040793c      0x5fc /CMC/tools/altera/13.1/nios2eds/bin/gnu/H-i686-pc-linux-gnu/bin/../lib/gcc/nios2-elf/4.7.3/../../../../../H-i686-pc-linux-gnu/nios2-elf/lib/mno-hw-mul/libc.a(lib_a-reallocr.o)
                0x0040793c                _realloc_r
 .text          0x00407f38       0x38 /CMC/tools/altera/13.1/nios2eds/bin/gnu/H-i686-pc-linux-gnu/bin/../lib/gcc/nios2-elf/4.7.3/../../../../../H-i686-pc-linux-gnu/nios2-elf/lib/mno-hw-mul/libc.a(lib_a-s_isinfd.o)
                0x00407f38                __isinfd
 .text          0x00407f70       0x2c /CMC/tools/altera/13.1/nios2eds/bin/gnu/H-i686-pc-linux-gnu/bin/../lib/gcc/nios2-elf/4.7.3/../../../../../H-i686-pc-linux-gnu/nios2-elf/lib/mno-hw-mul/libc.a(lib_a-s_isnand.o)
                0x00407f70                __isnand
 .text          0x00407f9c       0x64 /CMC/tools/altera/13.1/nios2eds/bin/gnu/H-i686-pc-linux-gnu/bin/../lib/gcc/nios2-elf/4.7.3/../../../../../H-i686-pc-linux-gnu/nios2-elf/lib/mno-hw-mul/libc.a(lib_a-sbrkr.o)
                0x00407f9c                _sbrk_r
 .text          0x00408000      0x140 /CMC/tools/altera/13.1/nios2eds/bin/gnu/H-i686-pc-linux-gnu/bin/../lib/gcc/nios2-elf/4.7.3/../../../../../H-i686-pc-linux-gnu/nios2-elf/lib/mno-hw-mul/libc.a(lib_a-stdio.o)
                0x00408000                __sread
                0x00408054                __swrite
                0x004080dc                __sseek
                0x00408138                __sclose
 .text          0x00408140       0xa4 /CMC/tools/altera/13.1/nios2eds/bin/gnu/H-i686-pc-linux-gnu/bin/../lib/gcc/nios2-elf/4.7.3/../../../../../H-i686-pc-linux-gnu/nios2-elf/lib/mno-hw-mul/libc.a(lib_a-strcmp.o)
                0x00408140                strcmp
 .text          0x004081e4       0x6c /CMC/tools/altera/13.1/nios2eds/bin/gnu/H-i686-pc-linux-gnu/bin/../lib/gcc/nios2-elf/4.7.3/../../../../../H-i686-pc-linux-gnu/nios2-elf/lib/mno-hw-mul/libc.a(lib_a-writer.o)
                0x004081e4                _write_r
 .text          0x00408250       0xcc /CMC/tools/altera/13.1/nios2eds/bin/gnu/H-i686-pc-linux-gnu/bin/../lib/gcc/nios2-elf/4.7.3/../../../../../H-i686-pc-linux-gnu/nios2-elf/lib/mno-hw-mul/libc.a(lib_a-callocr.o)
                0x00408250                _calloc_r
 .text          0x0040831c       0x64 /CMC/tools/altera/13.1/nios2eds/bin/gnu/H-i686-pc-linux-gnu/bin/../lib/gcc/nios2-elf/4.7.3/../../../../../H-i686-pc-linux-gnu/nios2-elf/lib/mno-hw-mul/libc.a(lib_a-closer.o)
                0x0040831c                _close_r
 .text          0x00408380      0x150 /CMC/tools/altera/13.1/nios2eds/bin/gnu/H-i686-pc-linux-gnu/bin/../lib/gcc/nios2-elf/4.7.3/../../../../../H-i686-pc-linux-gnu/nios2-elf/lib/mno-hw-mul/libc.a(lib_a-fclose.o)
                0x00408380                _fclose_r
                0x004084bc                fclose
 .text          0x004084d0       0x68 /CMC/tools/altera/13.1/nios2eds/bin/gnu/H-i686-pc-linux-gnu/bin/../lib/gcc/nios2-elf/4.7.3/../../../../../H-i686-pc-linux-gnu/nios2-elf/lib/mno-hw-mul/libc.a(lib_a-fstatr.o)
                0x004084d0                _fstat_r
 .text          0x00408538        0x0 /CMC/tools/altera/13.1/nios2eds/bin/gnu/H-i686-pc-linux-gnu/bin/../lib/gcc/nios2-elf/4.7.3/../../../../../H-i686-pc-linux-gnu/nios2-elf/lib/mno-hw-mul/libc.a(lib_a-int_errno.o)
 .text          0x00408538       0x64 /CMC/tools/altera/13.1/nios2eds/bin/gnu/H-i686-pc-linux-gnu/bin/../lib/gcc/nios2-elf/4.7.3/../../../../../H-i686-pc-linux-gnu/nios2-elf/lib/mno-hw-mul/libc.a(lib_a-isattyr.o)
                0x00408538                _isatty_r
 .text          0x0040859c       0x6c /CMC/tools/altera/13.1/nios2eds/bin/gnu/H-i686-pc-linux-gnu/bin/../lib/gcc/nios2-elf/4.7.3/../../../../../H-i686-pc-linux-gnu/nios2-elf/lib/mno-hw-mul/libc.a(lib_a-lseekr.o)
                0x0040859c                _lseek_r
 .text          0x00408608       0x6c /CMC/tools/altera/13.1/nios2eds/bin/gnu/H-i686-pc-linux-gnu/bin/../lib/gcc/nios2-elf/4.7.3/../../../../../H-i686-pc-linux-gnu/nios2-elf/lib/mno-hw-mul/libc.a(lib_a-readr.o)
                0x00408608                _read_r
 .text          0x00408674      0x650 /CMC/tools/altera/13.1/nios2eds/bin/gnu/H-i686-pc-linux-gnu/bin/../lib/gcc/nios2-elf/4.7.3/mno-hw-mul/libgcc.a(_udivdi3.o)
                0x00408674                __udivdi3
 .text          0x00408cc4      0x628 /CMC/tools/altera/13.1/nios2eds/bin/gnu/H-i686-pc-linux-gnu/bin/../lib/gcc/nios2-elf/4.7.3/mno-hw-mul/libgcc.a(_umoddi3.o)
                0x00408cc4                __umoddi3
 .text          0x004092ec      0x408 /CMC/tools/altera/13.1/nios2eds/bin/gnu/H-i686-pc-linux-gnu/bin/../lib/gcc/nios2-elf/4.7.3/mno-hw-mul/libgcc.a(_addsub_df.o)
                0x00409640                __adddf3
                0x00409694                __subdf3
 .text          0x004096f4      0x2e4 /CMC/tools/altera/13.1/nios2eds/bin/gnu/H-i686-pc-linux-gnu/bin/../lib/gcc/nios2-elf/4.7.3/mno-hw-mul/libgcc.a(_mul_df.o)
                0x004096f4                __muldf3
 .text          0x004099d8      0x1b4 /CMC/tools/altera/13.1/nios2eds/bin/gnu/H-i686-pc-linux-gnu/bin/../lib/gcc/nios2-elf/4.7.3/mno-hw-mul/libgcc.a(_div_df.o)
                0x004099d8                __divdf3
 .text          0x00409b8c       0x5c /CMC/tools/altera/13.1/nios2eds/bin/gnu/H-i686-pc-linux-gnu/bin/../lib/gcc/nios2-elf/4.7.3/mno-hw-mul/libgcc.a(_eq_df.o)
                0x00409b8c                __eqdf2
 .text          0x00409be8       0x5c /CMC/tools/altera/13.1/nios2eds/bin/gnu/H-i686-pc-linux-gnu/bin/../lib/gcc/nios2-elf/4.7.3/mno-hw-mul/libgcc.a(_ne_df.o)
                0x00409be8                __nedf2
 .text          0x00409c44       0x64 /CMC/tools/altera/13.1/nios2eds/bin/gnu/H-i686-pc-linux-gnu/bin/../lib/gcc/nios2-elf/4.7.3/mno-hw-mul/libgcc.a(_gt_df.o)
                0x00409c44                __gtdf2
 .text          0x00409ca8       0x64 /CMC/tools/altera/13.1/nios2eds/bin/gnu/H-i686-pc-linux-gnu/bin/../lib/gcc/nios2-elf/4.7.3/mno-hw-mul/libgcc.a(_ge_df.o)
                0x00409ca8                __gedf2
 .text          0x00409d0c       0x5c /CMC/tools/altera/13.1/nios2eds/bin/gnu/H-i686-pc-linux-gnu/bin/../lib/gcc/nios2-elf/4.7.3/mno-hw-mul/libgcc.a(_lt_df.o)
                0x00409d0c                __ltdf2
 .text          0x00409d68       0xd4 /CMC/tools/altera/13.1/nios2eds/bin/gnu/H-i686-pc-linux-gnu/bin/../lib/gcc/nios2-elf/4.7.3/mno-hw-mul/libgcc.a(_si_to_df.o)
                0x00409d68                __floatsidf
 .text          0x00409e3c       0xd4 /CMC/tools/altera/13.1/nios2eds/bin/gnu/H-i686-pc-linux-gnu/bin/../lib/gcc/nios2-elf/4.7.3/mno-hw-mul/libgcc.a(_df_to_si.o)
                0x00409e3c                __fixdfsi
 .text          0x00409f10        0x0 /CMC/tools/altera/13.1/nios2eds/bin/gnu/H-i686-pc-linux-gnu/bin/../lib/gcc/nios2-elf/4.7.3/mno-hw-mul/libgcc.a(_thenan_df.o)
 .text          0x00409f10      0x11c /CMC/tools/altera/13.1/nios2eds/bin/gnu/H-i686-pc-linux-gnu/bin/../lib/gcc/nios2-elf/4.7.3/mno-hw-mul/libgcc.a(_usi_to_df.o)
                0x00409f10                __floatunsidf
 .text          0x0040a02c      0x130 /CMC/tools/altera/13.1/nios2eds/bin/gnu/H-i686-pc-linux-gnu/bin/../lib/gcc/nios2-elf/4.7.3/mno-hw-mul/libgcc.a(lib2-divmod.o)
                0x0040a0a0                __divsi3
                0x0040a0f0                __modsi3
                0x0040a14c                __udivsi3
                0x0040a154                __umodsi3
 .text          0x0040a15c      0x110 /CMC/tools/altera/13.1/nios2eds/bin/gnu/H-i686-pc-linux-gnu/bin/../lib/gcc/nios2-elf/4.7.3/mno-hw-mul/libgcc.a(_muldi3.o)
                0x0040a15c                __muldi3
 .text          0x0040a26c        0x0 /CMC/tools/altera/13.1/nios2eds/bin/gnu/H-i686-pc-linux-gnu/bin/../lib/gcc/nios2-elf/4.7.3/mno-hw-mul/libgcc.a(_clz.o)
 .text          0x0040a26c       0xac /CMC/tools/altera/13.1/nios2eds/bin/gnu/H-i686-pc-linux-gnu/bin/../lib/gcc/nios2-elf/4.7.3/mno-hw-mul/libgcc.a(_clzsi2.o)
                0x0040a26c                __clzsi2
 .text          0x0040a318      0x224 /CMC/tools/altera/13.1/nios2eds/bin/gnu/H-i686-pc-linux-gnu/bin/../lib/gcc/nios2-elf/4.7.3/mno-hw-mul/libgcc.a(_pack_df.o)
                0x0040a318                __pack_d
 .text          0x0040a53c      0x104 /CMC/tools/altera/13.1/nios2eds/bin/gnu/H-i686-pc-linux-gnu/bin/../lib/gcc/nios2-elf/4.7.3/mno-hw-mul/libgcc.a(_unpack_df.o)
                0x0040a53c                __unpack_d
 .text          0x0040a640       0xd0 /CMC/tools/altera/13.1/nios2eds/bin/gnu/H-i686-pc-linux-gnu/bin/../lib/gcc/nios2-elf/4.7.3/mno-hw-mul/libgcc.a(_fpcmp_parts_df.o)
                0x0040a640                __fpcmp_parts_d
 .text          0x0040a710       0x44 /CMC/tools/altera/13.1/nios2eds/bin/gnu/H-i686-pc-linux-gnu/bin/../lib/gcc/nios2-elf/4.7.3/mno-hw-mul/libgcc.a(_lshrdi3.o)
                0x0040a710                __lshrdi3
 .text          0x0040a754       0x44 /CMC/tools/altera/13.1/nios2eds/bin/gnu/H-i686-pc-linux-gnu/bin/../lib/gcc/nios2-elf/4.7.3/mno-hw-mul/libgcc.a(_ashldi3.o)
                0x0040a754                __ashldi3
 .text          0x0040a798      0x11c ../ucosMon_bsp//libucosii_bsp.a(alt_close.o)
                0x0040a7e8                close
 .text          0x0040a8b4       0x2c ../ucosMon_bsp//libucosii_bsp.a(alt_dev.o)
 .text          0x0040a8e0       0xa0 ../ucosMon_bsp//libucosii_bsp.a(alt_dma_rxchan_open.o)
                0x0040a930                alt_dma_rxchan_open
 .text          0x0040a980       0xa0 ../ucosMon_bsp//libucosii_bsp.a(alt_dma_txchan_open.o)
                0x0040a9d0                alt_dma_txchan_open
 .text          0x0040aa20        0x0 ../ucosMon_bsp//libucosii_bsp.a(alt_errno.o)
 .text          0x0040aa20       0x44 ../ucosMon_bsp//libucosii_bsp.a(alt_exit.o)
                0x0040aa20                _exit
 .text          0x0040aa64       0x90 ../ucosMon_bsp//libucosii_bsp.a(alt_find_dev.o)
                0x0040aa64                alt_find_dev
 .text          0x0040aaf4      0x100 ../ucosMon_bsp//libucosii_bsp.a(alt_fstat.o)
                0x0040ab44                fstat
 .text          0x0040abf4      0x230 ../ucosMon_bsp//libucosii_bsp.a(alt_iic.o)
                0x0040abf4                alt_ic_isr_register
                0x0040ac44                alt_ic_irq_enable
                0x0040ad0c                alt_ic_irq_disable
                0x0040add8                alt_ic_irq_enabled
 .text          0x0040ae24      0x11c ../ucosMon_bsp//libucosii_bsp.a(alt_iic_isr_register.o)
                0x0040ae24                alt_iic_isr_register
 .text          0x0040af40        0x0 ../ucosMon_bsp//libucosii_bsp.a(alt_irq_entry.o)
 .text          0x0040af40        0x0 ../ucosMon_bsp//libucosii_bsp.a(alt_irq_handler.o)
 .text          0x0040af40        0x0 ../ucosMon_bsp//libucosii_bsp.a(alt_irq_vars.o)
 .text          0x0040af40       0xf4 ../ucosMon_bsp//libucosii_bsp.a(alt_isatty.o)
                0x0040af90                isatty
 .text          0x0040b034       0xec ../ucosMon_bsp//libucosii_bsp.a(alt_load.o)
                0x0040b0a0                alt_load
 .text          0x0040b120      0x124 ../ucosMon_bsp//libucosii_bsp.a(alt_lseek.o)
                0x0040b170                lseek
 .text          0x0040b244       0xcc ../ucosMon_bsp//libucosii_bsp.a(alt_main.o)
                0x0040b244                alt_main
 .text          0x0040b310      0x144 ../ucosMon_bsp//libucosii_bsp.a(alt_read.o)
                0x0040b360                read
 .text          0x0040b454       0x80 ../ucosMon_bsp//libucosii_bsp.a(alt_release_fd.o)
                0x0040b454                alt_release_fd
 .text          0x0040b4d4      0x108 ../ucosMon_bsp//libucosii_bsp.a(alt_sbrk.o)
                0x0040b4d4                sbrk
 .text          0x0040b5dc       0xd4 ../ucosMon_bsp//libucosii_bsp.a(alt_times.o)
                0x0040b62c                times
 .text          0x0040b6b0      0x140 ../ucosMon_bsp//libucosii_bsp.a(alt_write.o)
                0x0040b700                write
 .text          0x0040b7f0      0x118 ../ucosMon_bsp//libucosii_bsp.a(alt_env_lock.o)
                0x0040b7f0                __env_lock
                0x0040b8a8                __env_unlock
 .text          0x0040b908      0x2c4 ../ucosMon_bsp//libucosii_bsp.a(alt_malloc_lock.o)
                0x0040b908                __malloc_lock
                0x0040ba74                __malloc_unlock
 .text          0x0040bbcc     0x2470 ../ucosMon_bsp//libucosii_bsp.a(os_core.o)
                0x0040bbcc                OSEventNameGet
                0x0040bd18                OSEventNameSet
                0x0040beb4                OSEventPendMulti
                0x0040c5cc                OSInit
                0x0040c620                OSIntEnter
                0x0040c6c8                OSIntExit
                0x0040c7e8                OSSchedLock
                0x0040c89c                OSSchedUnlock
                0x0040ca24                OSStart
                0x0040ca90                OSStatInit
                0x0040cb94                OSTimeTick
                0x0040ce0c                OSVersion
                0x0040ce2c                OS_Dummy
                0x0040ce48                OS_EventTaskRdy
                0x0040cfe0                OS_EventTaskWait
                0x0040d0e8                OS_EventTaskWaitMulti
                0x0040d230                OS_EventTaskRemove
                0x0040d2e0                OS_EventTaskRemoveMulti
                0x0040d3d8                OS_EventWaitListInit
                0x0040d7a4                OS_MemClr
                0x0040d7f8                OS_MemCopy
                0x0040d864                OS_Sched
                0x0040d9cc                OS_StrCopy
                0x0040da48                OS_StrLen
                0x0040da9c                OS_TaskIdle
                0x0040db24                OS_TaskStat
                0x0040dc18                OS_TaskStatStkChk
                0x0040dce0                OS_TCBInit
 .text          0x0040e03c      0x18c ../ucosMon_bsp//libucosii_bsp.a(os_dbg.o)
                0x0040e03c                OSDebugInit
 .text          0x0040e1c8     0x1e0c ../ucosMon_bsp//libucosii_bsp.a(os_flag.o)
                0x0040e1c8                OSFlagAccept
                0x0040e5ac                OSFlagCreate
                0x0040e72c                OSFlagDel
                0x0040ea4c                OSFlagNameGet
                0x0040ebd4                OSFlagNameSet
                0x0040edac                OSFlagPend
                0x0040f5bc                OSFlagPendGetFlagsRdy
                0x0040f650                OSFlagPost
                0x0040fa94                OSFlagQuery
                0x0040fd44                OS_FlagInit
                0x0040ff34                OS_FlagUnlink
 .text          0x0040ffd4      0x91c ../ucosMon_bsp//libucosii_bsp.a(os_mem.o)
                0x0040ffd4                OSMemCreate
                0x004101f4                OSMemGet
                0x0041033c                OSMemNameGet
                0x00410460                OSMemNameSet
                0x004105d4                OSMemPut
                0x00410704                OSMemQuery
                0x00410818                OS_MemInit
 .text          0x004108f0     0x1644 ../ucosMon_bsp//libucosii_bsp.a(os_q.o)
                0x004108f0                OSQAccept
                0x00410a5c                OSQCreate
                0x00410cd8                OSQDel
                0x00411058                OSQFlush
                0x0041113c                OSQPend
                0x004114bc                OSQPendAbort
                0x00411688                OSQPost
                0x00411874                OSQPostFront
                0x00411a68                OSQPostOpt
                0x00411cf8                OSQQuery
                0x00411e88                OS_QInit
 .text          0x00411f34      0xde8 ../ucosMon_bsp//libucosii_bsp.a(os_sem.o)
                0x00411f34                OSSemAccept
                0x00412010                OSSemCreate
                0x0041213c                OSSemDel
                0x0041245c                OSSemPend
                0x0041274c                OSSemPendAbort
                0x00412918                OSSemPost
                0x00412aac                OSSemQuery
                0x00412bf0                OSSemSet
 .text          0x00412d1c     0x2050 ../ucosMon_bsp//libucosii_bsp.a(os_task.o)
                0x00412d1c                OSTaskChangePrio
                0x004132f4                OSTaskCreate
                0x00413560                OSTaskCreateExt
                0x00413804                OSTaskDel
                0x00413c90                OSTaskDelReq
                0x00413e98                OSTaskNameGet
                0x004140c4                OSTaskNameSet
                0x00414338                OSTaskResume
                0x00414634                OSTaskStkChk
                0x004148b8                OSTaskSuspend
                0x00414b4c                OSTaskQuery
                0x00414cfc                OS_TaskStkClr
 .text          0x00414d6c      0x7a0 ../ucosMon_bsp//libucosii_bsp.a(os_time.o)
                0x00414d6c                OSTimeDly
                0x00414ee0                OSTimeDlyHMSM
                0x00415124                OSTimeDlyResume
                0x004153ec                OSTimeGet
                0x0041547c                OSTimeSet
 .text          0x0041550c      0x254 ../ucosMon_bsp//libucosii_bsp.a(alt_sys_init.o)
                0x00415638                alt_irq_init
                0x0041566c                alt_sys_init
 .text          0x00415760      0xc14 ../ucosMon_bsp//libucosii_bsp.a(altera_avalon_dma.o)
                0x004157d0                alt_avalon_dma_launch_bidir
                0x00415d38                alt_avalon_dma_tx_ioctl
                0x00415d80                alt_avalon_dma_rx_ioctl
                0x00415dc8                alt_avalon_dma_prepare
                0x00415f00                alt_avalon_dma_space
                0x00415f74                alt_avalon_dma_send
                0x004162c4                alt_avalon_dma_init
 .text          0x00416374      0x164 ../ucosMon_bsp//libucosii_bsp.a(altera_avalon_jtag_uart_fd.o)
                0x00416374                altera_avalon_jtag_uart_read_fd
                0x004163d4                altera_avalon_jtag_uart_write_fd
                0x00416434                altera_avalon_jtag_uart_close_fd
                0x00416484                altera_avalon_jtag_uart_ioctl_fd
 .text          0x004164d8      0x55c ../ucosMon_bsp//libucosii_bsp.a(altera_avalon_jtag_uart_init.o)
                0x004164d8                altera_avalon_jtag_uart_init
                0x004169cc                altera_avalon_jtag_uart_close
 .text          0x00416a34       0xf4 ../ucosMon_bsp//libucosii_bsp.a(altera_avalon_jtag_uart_ioctl.o)
                0x00416a34                altera_avalon_jtag_uart_ioctl
 .text          0x00416b28      0x2f0 ../ucosMon_bsp//libucosii_bsp.a(altera_avalon_jtag_uart_read.o)
                0x00416b28                altera_avalon_jtag_uart_read
 .text          0x00416e18      0x2fc ../ucosMon_bsp//libucosii_bsp.a(altera_avalon_jtag_uart_write.o)
                0x00416e18                altera_avalon_jtag_uart_write
 .text          0x00417114      0x354 ../ucosMon_bsp//libucosii_bsp.a(altera_avalon_mutex.o)
                0x004171e0                altera_avalon_mutex_open
                0x00417230                altera_avalon_mutex_close
                0x00417254                altera_avalon_mutex_lock
                0x004172bc                altera_avalon_mutex_trylock
                0x0041733c                altera_avalon_mutex_unlock
                0x004173a4                altera_avalon_mutex_is_mine
                0x00417418                altera_avalon_mutex_first_lock
 .text          0x00417468      0x128 ../ucosMon_bsp//libucosii_bsp.a(altera_avalon_timer_sc.o)
                0x00417508                alt_avalon_timer_sc_init
 .text          0x00417590        0x0 ../ucosMon_bsp//libucosii_bsp.a(altera_avalon_timer_vars.o)
 .text          0x00417590      0xbc8 ../ucosMon_bsp//libucosii_bsp.a(altera_ro_zipfs.o)
                0x00417810                check_directory_header
                0x00417da0                alt_ro_zipfs_open
                0x00417e30                alt_ro_zipfs_read
                0x00417f4c                alt_ro_zipfs_seek
                0x00418088                alt_ro_zipfs_fstat
                0x00418100                alt_ro_zipfs_check_valid
 .text          0x00418158      0x16c ../ucosMon_bsp//libucosii_bsp.a(alt_alarm_start.o)
                0x00418158                alt_alarm_start
 .text          0x004182c4       0x1c ../ucosMon_bsp//libucosii_bsp.a(alt_dcache_flush_all.o)
                0x004182c4                alt_dcache_flush_all
 .text          0x004182e0       0xf0 ../ucosMon_bsp//libucosii_bsp.a(alt_dev_llist_insert.o)
                0x00418330                alt_dev_llist_insert
 .text          0x004183d0       0x5c ../ucosMon_bsp//libucosii_bsp.a(alt_do_ctors.o)
                0x004183d0                _do_ctors
 .text          0x0041842c       0x5c ../ucosMon_bsp//libucosii_bsp.a(alt_do_dtors.o)
                0x0041842c                _do_dtors
 .text          0x00418488        0x0 ../ucosMon_bsp//libucosii_bsp.a(alt_exception_entry.o)
 .text          0x00418488       0x84 ../ucosMon_bsp//libucosii_bsp.a(alt_fs_reg.o)
                0x00418488                alt_fs_reg
 .text          0x0041850c       0x30 ../ucosMon_bsp//libucosii_bsp.a(alt_icache_flush_all.o)
                0x0041850c                alt_icache_flush_all
 .text          0x0041853c      0x158 ../ucosMon_bsp//libucosii_bsp.a(alt_io_redirect.o)
                0x0041861c                alt_io_redirect
 .text          0x00418694      0x298 ../ucosMon_bsp//libucosii_bsp.a(alt_open.o)
                0x004187d4                open
 .text          0x0041892c      0x1c8 ../ucosMon_bsp//libucosii_bsp.a(alt_tick.o)
                0x0041892c                alt_alarm_stop
                0x004189f0                alt_tick
 .text          0x00418af4       0x20 ../ucosMon_bsp//libucosii_bsp.a(altera_nios2_qsys_irq.o)
                0x00418af4                altera_nios2_qsys_irq_init
 .text          0x00418b14       0xd0 ../ucosMon_bsp//libucosii_bsp.a(os_cpu_a.o)
                0x00418b14                OSCtxSw
                0x00418b14                OSIntCtxSw
                0x00418ba0                OSStartHighRdy
                0x00418bc0                OSStartTsk
 .text          0x00418be4      0x3fc ../ucosMon_bsp//libucosii_bsp.a(os_cpu_c.o)
                0x00418be4                OSTaskStkInit
                0x00418ed8                OSTaskCreateHook
                0x00418ef8                OSTaskDelHook
                0x00418f18                OSTaskSwHook
                0x00418f34                OSTaskStatHook
                0x00418f50                OSTimeTickHook
                0x00418f6c                OSInitHookBegin
                0x00418f88                OSInitHookEnd
                0x00418fa4                OSTaskIdleHook
                0x00418fc0                OSTCBInitHook
 .text          0x00418fe0      0x114 ../ucosMon_bsp//libucosii_bsp.a(alt_find_file.o)
                0x00418fe0                alt_find_file
 .text          0x004190f4      0x114 ../ucosMon_bsp//libucosii_bsp.a(alt_get_fd.o)
                0x004190f4                alt_get_fd
 .text          0x00419208       0x8c ../ucosMon_bsp//libucosii_bsp.a(alt_icache_flush.o)
                0x00419208                alt_icache_flush
 .text          0x00419294       0x14 /CMC/tools/altera/13.1/nios2eds/bin/gnu/H-i686-pc-linux-gnu/bin/../lib/gcc/nios2-elf/4.7.3/../../../../../H-i686-pc-linux-gnu/nios2-elf/lib/mno-hw-mul/libc.a(lib_a-atexit.o)
                0x00419294                atexit
 .text          0x004192a8       0x7c /CMC/tools/altera/13.1/nios2eds/bin/gnu/H-i686-pc-linux-gnu/bin/../lib/gcc/nios2-elf/4.7.3/../../../../../H-i686-pc-linux-gnu/nios2-elf/lib/mno-hw-mul/libc.a(lib_a-memcmp.o)
                0x004192a8                memcmp
 .text          0x00419324       0xfc /CMC/tools/altera/13.1/nios2eds/bin/gnu/H-i686-pc-linux-gnu/bin/../lib/gcc/nios2-elf/4.7.3/../../../../../H-i686-pc-linux-gnu/nios2-elf/lib/mno-hw-mul/libc.a(lib_a-strncmp.o)
                0x00419324                strncmp
 .text          0x00419420      0x130 /CMC/tools/altera/13.1/nios2eds/bin/gnu/H-i686-pc-linux-gnu/bin/../lib/gcc/nios2-elf/4.7.3/../../../../../H-i686-pc-linux-gnu/nios2-elf/lib/mno-hw-mul/libc.a(lib_a-__atexit.o)
                0x00419420                __register_exitproc
 .text          0x00419550       0x84 /CMC/tools/altera/13.1/nios2eds/bin/gnu/H-i686-pc-linux-gnu/bin/../lib/gcc/nios2-elf/4.7.3/mno-hw-mul/libgcc.a(_fixunsdfsi.o)
                0x00419550                __fixunsdfsi
 *(.gnu.warning.*)
 *(.fini)
                0x004195d4                PROVIDE (__etext, ABSOLUTE (.))
                0x004195d4                PROVIDE (_etext, ABSOLUTE (.))
                0x004195d4                PROVIDE (etext, ABSOLUTE (.))
 *(.eh_frame_hdr)
                0x004195d4                . = ALIGN (0x4)
                0x004195d4                PROVIDE (__preinit_array_start, ABSOLUTE (.))
 *(.preinit_array)
                0x004195d4                PROVIDE (__preinit_array_end, ABSOLUTE (.))
                0x004195d4                PROVIDE (__init_array_start, ABSOLUTE (.))
 *(.init_array)
                0x004195d4                PROVIDE (__init_array_end, ABSOLUTE (.))
                0x004195d4                PROVIDE (__fini_array_start, ABSOLUTE (.))
 *(.fini_array)
                0x004195d4                PROVIDE (__fini_array_end, ABSOLUTE (.))
 *(.eh_frame)
 *(.gcc_except_table .gcc_except_table.*)
 *(.dynamic)
                0x004195d4                PROVIDE (__CTOR_LIST__, ABSOLUTE (.))
 *(.ctors)
 *(SORT(.ctors.*))
                0x004195d4                PROVIDE (__CTOR_END__, ABSOLUTE (.))
                0x004195d4                PROVIDE (__DTOR_LIST__, ABSOLUTE (.))
 *(.dtors)
 *(SORT(.dtors.*))
                0x004195d4                PROVIDE (__DTOR_END__, ABSOLUTE (.))
 *(.jcr)
                0x004195d4                . = ALIGN (0x4)

.rodata         0x004195d4      0x614
                0x004195d4                PROVIDE (__ram_rodata_start, ABSOLUTE (.))
                0x004195d4                . = ALIGN (0x4)
 *(.rodata .rodata.* .gnu.linkonce.r.*)
 .rodata        0x004195d4      0x168 obj/default/Monitor.o
 .rodata.str1.4
                0x0041973c        0x2 /CMC/tools/altera/13.1/nios2eds/bin/gnu/H-i686-pc-linux-gnu/bin/../lib/gcc/nios2-elf/4.7.3/../../../../../H-i686-pc-linux-gnu/nios2-elf/lib/mno-hw-mul/libc.a(lib_a-impure.o)
                                  0x4 (size before relaxing)
 *fill*         0x0041973e        0x2 
 .rodata.str1.4
                0x00419740        0x2 /CMC/tools/altera/13.1/nios2eds/bin/gnu/H-i686-pc-linux-gnu/bin/../lib/gcc/nios2-elf/4.7.3/../../../../../H-i686-pc-linux-gnu/nios2-elf/lib/mno-hw-mul/libc.a(lib_a-puts.o)
                                  0x4 (size before relaxing)
 *fill*         0x00419742        0x2 
 .rodata.str1.4
                0x00419744       0x42 /CMC/tools/altera/13.1/nios2eds/bin/gnu/H-i686-pc-linux-gnu/bin/../lib/gcc/nios2-elf/4.7.3/../../../../../H-i686-pc-linux-gnu/nios2-elf/lib/mno-hw-mul/libc.a(lib_a-vfprintf.o)
                                 0x44 (size before relaxing)
 .rodata        0x00419786       0x20 /CMC/tools/altera/13.1/nios2eds/bin/gnu/H-i686-pc-linux-gnu/bin/../lib/gcc/nios2-elf/4.7.3/../../../../../H-i686-pc-linux-gnu/nios2-elf/lib/mno-hw-mul/libc.a(lib_a-vfprintf.o)
 *fill*         0x004197a6        0x2 
 .rodata.str1.4
                0x004197a8       0x10 /CMC/tools/altera/13.1/nios2eds/bin/gnu/H-i686-pc-linux-gnu/bin/../lib/gcc/nios2-elf/4.7.3/../../../../../H-i686-pc-linux-gnu/nios2-elf/lib/mno-hw-mul/libc.a(lib_a-dtoa.o)
                                 0x14 (size before relaxing)
 .rodata.str1.4
                0x004197b8       0x10 /CMC/tools/altera/13.1/nios2eds/bin/gnu/H-i686-pc-linux-gnu/bin/../lib/gcc/nios2-elf/4.7.3/../../../../../H-i686-pc-linux-gnu/nios2-elf/lib/mno-hw-mul/libc.a(lib_a-locale.o)
                                 0x18 (size before relaxing)
 .rodata        0x004197c8       0x30 /CMC/tools/altera/13.1/nios2eds/bin/gnu/H-i686-pc-linux-gnu/bin/../lib/gcc/nios2-elf/4.7.3/../../../../../H-i686-pc-linux-gnu/nios2-elf/lib/mno-hw-mul/libc.a(lib_a-locale.o)
 .rodata        0x004197f8      0x124 /CMC/tools/altera/13.1/nios2eds/bin/gnu/H-i686-pc-linux-gnu/bin/../lib/gcc/nios2-elf/4.7.3/../../../../../H-i686-pc-linux-gnu/nios2-elf/lib/mno-hw-mul/libc.a(lib_a-mprec.o)
                0x004197f8                __mprec_tinytens
                0x00419820                __mprec_bigtens
                0x00419848                __mprec_tens
 .rodata        0x0041991c       0x14 /CMC/tools/altera/13.1/nios2eds/bin/gnu/H-i686-pc-linux-gnu/bin/../lib/gcc/nios2-elf/4.7.3/mno-hw-mul/libgcc.a(_thenan_df.o)
                0x0041991c                __thenan_df
 .rodata        0x00419930      0x100 /CMC/tools/altera/13.1/nios2eds/bin/gnu/H-i686-pc-linux-gnu/bin/../lib/gcc/nios2-elf/4.7.3/mno-hw-mul/libgcc.a(_clz.o)
                0x00419930                __clz_tab
 .rodata        0x00419a30        0xc ../ucosMon_bsp//libucosii_bsp.a(alt_dev.o)
 .rodata        0x00419a3c       0x1c ../ucosMon_bsp//libucosii_bsp.a(alt_main.o)
 .rodata        0x00419a58      0x120 ../ucosMon_bsp//libucosii_bsp.a(os_core.o)
                0x00419a58                OSUnMapTbl
 .rodata        0x00419b78       0x6c ../ucosMon_bsp//libucosii_bsp.a(alt_sys_init.o)
 .rodata        0x00419be4        0x4 ../ucosMon_bsp//libucosii_bsp.a(os_cpu_c.o)
 *(.rodata1)
                0x00419be8                . = ALIGN (0x4)
                0x00419be8                PROVIDE (__ram_rodata_end, ABSOLUTE (.))
                0x004195d4                PROVIDE (__flash_rodata_start, LOADADDR (.rodata))

.rwdata         0x00419be8     0x1cfc load address 0x0041b8e4
                0x00419be8                PROVIDE (__ram_rwdata_start, ABSOLUTE (.))
                0x00419be8                . = ALIGN (0x4)
 *(.got.plt)
 *(.got)
 *(.data1)
 *(.data .data.* .gnu.linkonce.d.*)
 .data          0x00419be8        0x0 ../ucosMon_bsp//obj/HAL/src/crt0.o
 .data          0x00419be8        0x0 obj/default/Monitor.o
 .data          0x00419be8        0x0 obj/default/gp.o
 .data          0x00419be8        0x0 ../critical_library/libcritical_library.a(critical.o)
 .data          0x00419be8        0x0 ../critical_library/libcritical_library.a(fingerprint.o)
 .data          0x00419be8        0x0 /CMC/tools/altera/13.1/nios2eds/bin/gnu/H-i686-pc-linux-gnu/bin/../lib/gcc/nios2-elf/4.7.3/mno-hw-mul/libgcc.a(lib2-mul.o)
 .data          0x00419be8        0x0 /CMC/tools/altera/13.1/nios2eds/bin/gnu/H-i686-pc-linux-gnu/bin/../lib/gcc/nios2-elf/4.7.3/../../../../../H-i686-pc-linux-gnu/nios2-elf/lib/mno-hw-mul/libc.a(lib_a-clock.o)
 .data          0x00419be8        0x0 /CMC/tools/altera/13.1/nios2eds/bin/gnu/H-i686-pc-linux-gnu/bin/../lib/gcc/nios2-elf/4.7.3/../../../../../H-i686-pc-linux-gnu/nios2-elf/lib/mno-hw-mul/libc.a(lib_a-exit.o)
 .data          0x00419be8      0x400 /CMC/tools/altera/13.1/nios2eds/bin/gnu/H-i686-pc-linux-gnu/bin/../lib/gcc/nios2-elf/4.7.3/../../../../../H-i686-pc-linux-gnu/nios2-elf/lib/mno-hw-mul/libc.a(lib_a-impure.o)
 .data          0x00419fe8        0x0 /CMC/tools/altera/13.1/nios2eds/bin/gnu/H-i686-pc-linux-gnu/bin/../lib/gcc/nios2-elf/4.7.3/../../../../../H-i686-pc-linux-gnu/nios2-elf/lib/mno-hw-mul/libc.a(lib_a-memcpy.o)
 .data          0x00419fe8        0x0 /CMC/tools/altera/13.1/nios2eds/bin/gnu/H-i686-pc-linux-gnu/bin/../lib/gcc/nios2-elf/4.7.3/../../../../../H-i686-pc-linux-gnu/nios2-elf/lib/mno-hw-mul/libc.a(lib_a-printf.o)
 .data          0x00419fe8        0x0 /CMC/tools/altera/13.1/nios2eds/bin/gnu/H-i686-pc-linux-gnu/bin/../lib/gcc/nios2-elf/4.7.3/../../../../../H-i686-pc-linux-gnu/nios2-elf/lib/mno-hw-mul/libc.a(lib_a-puts.o)
 .data          0x00419fe8        0x0 /CMC/tools/altera/13.1/nios2eds/bin/gnu/H-i686-pc-linux-gnu/bin/../lib/gcc/nios2-elf/4.7.3/../../../../../H-i686-pc-linux-gnu/nios2-elf/lib/mno-hw-mul/libc.a(lib_a-strlen.o)
 .data          0x00419fe8        0x0 /CMC/tools/altera/13.1/nios2eds/bin/gnu/H-i686-pc-linux-gnu/bin/../lib/gcc/nios2-elf/4.7.3/../../../../../H-i686-pc-linux-gnu/nios2-elf/lib/mno-hw-mul/libc.a(lib_a-timesr.o)
 .data          0x00419fe8        0x0 /CMC/tools/altera/13.1/nios2eds/bin/gnu/H-i686-pc-linux-gnu/bin/../lib/gcc/nios2-elf/4.7.3/../../../../../H-i686-pc-linux-gnu/nios2-elf/lib/mno-hw-mul/libc.a(lib_a-vfprintf.o)
 .data          0x00419fe8        0x0 /CMC/tools/altera/13.1/nios2eds/bin/gnu/H-i686-pc-linux-gnu/bin/../lib/gcc/nios2-elf/4.7.3/../../../../../H-i686-pc-linux-gnu/nios2-elf/lib/mno-hw-mul/libc.a(lib_a-wsetup.o)
 .data          0x00419fe8        0x0 /CMC/tools/altera/13.1/nios2eds/bin/gnu/H-i686-pc-linux-gnu/bin/../lib/gcc/nios2-elf/4.7.3/../../../../../H-i686-pc-linux-gnu/nios2-elf/lib/mno-hw-mul/libc.a(lib_a-__call_atexit.o)
 .data          0x00419fe8        0x0 /CMC/tools/altera/13.1/nios2eds/bin/gnu/H-i686-pc-linux-gnu/bin/../lib/gcc/nios2-elf/4.7.3/../../../../../H-i686-pc-linux-gnu/nios2-elf/lib/mno-hw-mul/libc.a(lib_a-dtoa.o)
 .data          0x00419fe8        0x0 /CMC/tools/altera/13.1/nios2eds/bin/gnu/H-i686-pc-linux-gnu/bin/../lib/gcc/nios2-elf/4.7.3/../../../../../H-i686-pc-linux-gnu/nios2-elf/lib/mno-hw-mul/libc.a(lib_a-fflush.o)
 .data          0x00419fe8        0x0 /CMC/tools/altera/13.1/nios2eds/bin/gnu/H-i686-pc-linux-gnu/bin/../lib/gcc/nios2-elf/4.7.3/../../../../../H-i686-pc-linux-gnu/nios2-elf/lib/mno-hw-mul/libc.a(lib_a-findfp.o)
 .data          0x00419fe8        0x0 /CMC/tools/altera/13.1/nios2eds/bin/gnu/H-i686-pc-linux-gnu/bin/../lib/gcc/nios2-elf/4.7.3/../../../../../H-i686-pc-linux-gnu/nios2-elf/lib/mno-hw-mul/libc.a(lib_a-freer.o)
 .data          0x00419fe8        0x0 /CMC/tools/altera/13.1/nios2eds/bin/gnu/H-i686-pc-linux-gnu/bin/../lib/gcc/nios2-elf/4.7.3/../../../../../H-i686-pc-linux-gnu/nios2-elf/lib/mno-hw-mul/libc.a(lib_a-fvwrite.o)
 .data          0x00419fe8        0x0 /CMC/tools/altera/13.1/nios2eds/bin/gnu/H-i686-pc-linux-gnu/bin/../lib/gcc/nios2-elf/4.7.3/../../../../../H-i686-pc-linux-gnu/nios2-elf/lib/mno-hw-mul/libc.a(lib_a-fwalk.o)
 .data          0x00419fe8        0xc /CMC/tools/altera/13.1/nios2eds/bin/gnu/H-i686-pc-linux-gnu/bin/../lib/gcc/nios2-elf/4.7.3/../../../../../H-i686-pc-linux-gnu/nios2-elf/lib/mno-hw-mul/libc.a(lib_a-locale.o)
                0x00419fe8                __lc_ctype
 .data          0x00419ff4        0x0 /CMC/tools/altera/13.1/nios2eds/bin/gnu/H-i686-pc-linux-gnu/bin/../lib/gcc/nios2-elf/4.7.3/../../../../../H-i686-pc-linux-gnu/nios2-elf/lib/mno-hw-mul/libc.a(lib_a-makebuf.o)
 .data          0x00419ff4      0x408 /CMC/tools/altera/13.1/nios2eds/bin/gnu/H-i686-pc-linux-gnu/bin/../lib/gcc/nios2-elf/4.7.3/../../../../../H-i686-pc-linux-gnu/nios2-elf/lib/mno-hw-mul/libc.a(lib_a-mallocr.o)
                0x00419ff4                __malloc_av_
 .data          0x0041a3fc        0x0 /CMC/tools/altera/13.1/nios2eds/bin/gnu/H-i686-pc-linux-gnu/bin/../lib/gcc/nios2-elf/4.7.3/../../../../../H-i686-pc-linux-gnu/nios2-elf/lib/mno-hw-mul/libc.a(lib_a-memchr.o)
 .data          0x0041a3fc        0x0 /CMC/tools/altera/13.1/nios2eds/bin/gnu/H-i686-pc-linux-gnu/bin/../lib/gcc/nios2-elf/4.7.3/../../../../../H-i686-pc-linux-gnu/nios2-elf/lib/mno-hw-mul/libc.a(lib_a-memmove.o)
 .data          0x0041a3fc        0x0 /CMC/tools/altera/13.1/nios2eds/bin/gnu/H-i686-pc-linux-gnu/bin/../lib/gcc/nios2-elf/4.7.3/../../../../../H-i686-pc-linux-gnu/nios2-elf/lib/mno-hw-mul/libc.a(lib_a-memset.o)
 .data          0x0041a3fc        0x0 /CMC/tools/altera/13.1/nios2eds/bin/gnu/H-i686-pc-linux-gnu/bin/../lib/gcc/nios2-elf/4.7.3/../../../../../H-i686-pc-linux-gnu/nios2-elf/lib/mno-hw-mul/libc.a(lib_a-mprec.o)
 .data          0x0041a3fc        0x0 /CMC/tools/altera/13.1/nios2eds/bin/gnu/H-i686-pc-linux-gnu/bin/../lib/gcc/nios2-elf/4.7.3/../../../../../H-i686-pc-linux-gnu/nios2-elf/lib/mno-hw-mul/libc.a(lib_a-reallocr.o)
 .data          0x0041a3fc        0x0 /CMC/tools/altera/13.1/nios2eds/bin/gnu/H-i686-pc-linux-gnu/bin/../lib/gcc/nios2-elf/4.7.3/../../../../../H-i686-pc-linux-gnu/nios2-elf/lib/mno-hw-mul/libc.a(lib_a-s_isinfd.o)
 .data          0x0041a3fc        0x0 /CMC/tools/altera/13.1/nios2eds/bin/gnu/H-i686-pc-linux-gnu/bin/../lib/gcc/nios2-elf/4.7.3/../../../../../H-i686-pc-linux-gnu/nios2-elf/lib/mno-hw-mul/libc.a(lib_a-s_isnand.o)
 .data          0x0041a3fc        0x0 /CMC/tools/altera/13.1/nios2eds/bin/gnu/H-i686-pc-linux-gnu/bin/../lib/gcc/nios2-elf/4.7.3/../../../../../H-i686-pc-linux-gnu/nios2-elf/lib/mno-hw-mul/libc.a(lib_a-sbrkr.o)
 .data          0x0041a3fc        0x0 /CMC/tools/altera/13.1/nios2eds/bin/gnu/H-i686-pc-linux-gnu/bin/../lib/gcc/nios2-elf/4.7.3/../../../../../H-i686-pc-linux-gnu/nios2-elf/lib/mno-hw-mul/libc.a(lib_a-stdio.o)
 .data          0x0041a3fc        0x0 /CMC/tools/altera/13.1/nios2eds/bin/gnu/H-i686-pc-linux-gnu/bin/../lib/gcc/nios2-elf/4.7.3/../../../../../H-i686-pc-linux-gnu/nios2-elf/lib/mno-hw-mul/libc.a(lib_a-strcmp.o)
 .data          0x0041a3fc        0x0 /CMC/tools/altera/13.1/nios2eds/bin/gnu/H-i686-pc-linux-gnu/bin/../lib/gcc/nios2-elf/4.7.3/../../../../../H-i686-pc-linux-gnu/nios2-elf/lib/mno-hw-mul/libc.a(lib_a-writer.o)
 .data          0x0041a3fc        0x0 /CMC/tools/altera/13.1/nios2eds/bin/gnu/H-i686-pc-linux-gnu/bin/../lib/gcc/nios2-elf/4.7.3/../../../../../H-i686-pc-linux-gnu/nios2-elf/lib/mno-hw-mul/libc.a(lib_a-callocr.o)
 .data          0x0041a3fc        0x0 /CMC/tools/altera/13.1/nios2eds/bin/gnu/H-i686-pc-linux-gnu/bin/../lib/gcc/nios2-elf/4.7.3/../../../../../H-i686-pc-linux-gnu/nios2-elf/lib/mno-hw-mul/libc.a(lib_a-closer.o)
 .data          0x0041a3fc        0x0 /CMC/tools/altera/13.1/nios2eds/bin/gnu/H-i686-pc-linux-gnu/bin/../lib/gcc/nios2-elf/4.7.3/../../../../../H-i686-pc-linux-gnu/nios2-elf/lib/mno-hw-mul/libc.a(lib_a-fclose.o)
 .data          0x0041a3fc        0x0 /CMC/tools/altera/13.1/nios2eds/bin/gnu/H-i686-pc-linux-gnu/bin/../lib/gcc/nios2-elf/4.7.3/../../../../../H-i686-pc-linux-gnu/nios2-elf/lib/mno-hw-mul/libc.a(lib_a-fstatr.o)
 .data          0x0041a3fc        0x0 /CMC/tools/altera/13.1/nios2eds/bin/gnu/H-i686-pc-linux-gnu/bin/../lib/gcc/nios2-elf/4.7.3/../../../../../H-i686-pc-linux-gnu/nios2-elf/lib/mno-hw-mul/libc.a(lib_a-int_errno.o)
 .data          0x0041a3fc        0x0 /CMC/tools/altera/13.1/nios2eds/bin/gnu/H-i686-pc-linux-gnu/bin/../lib/gcc/nios2-elf/4.7.3/../../../../../H-i686-pc-linux-gnu/nios2-elf/lib/mno-hw-mul/libc.a(lib_a-isattyr.o)
 .data          0x0041a3fc        0x0 /CMC/tools/altera/13.1/nios2eds/bin/gnu/H-i686-pc-linux-gnu/bin/../lib/gcc/nios2-elf/4.7.3/../../../../../H-i686-pc-linux-gnu/nios2-elf/lib/mno-hw-mul/libc.a(lib_a-lseekr.o)
 .data          0x0041a3fc        0x0 /CMC/tools/altera/13.1/nios2eds/bin/gnu/H-i686-pc-linux-gnu/bin/../lib/gcc/nios2-elf/4.7.3/../../../../../H-i686-pc-linux-gnu/nios2-elf/lib/mno-hw-mul/libc.a(lib_a-readr.o)
 .data          0x0041a3fc        0x0 /CMC/tools/altera/13.1/nios2eds/bin/gnu/H-i686-pc-linux-gnu/bin/../lib/gcc/nios2-elf/4.7.3/mno-hw-mul/libgcc.a(_udivdi3.o)
 .data          0x0041a3fc        0x0 /CMC/tools/altera/13.1/nios2eds/bin/gnu/H-i686-pc-linux-gnu/bin/../lib/gcc/nios2-elf/4.7.3/mno-hw-mul/libgcc.a(_umoddi3.o)
 .data          0x0041a3fc        0x0 /CMC/tools/altera/13.1/nios2eds/bin/gnu/H-i686-pc-linux-gnu/bin/../lib/gcc/nios2-elf/4.7.3/mno-hw-mul/libgcc.a(_addsub_df.o)
 .data          0x0041a3fc        0x0 /CMC/tools/altera/13.1/nios2eds/bin/gnu/H-i686-pc-linux-gnu/bin/../lib/gcc/nios2-elf/4.7.3/mno-hw-mul/libgcc.a(_mul_df.o)
 .data          0x0041a3fc        0x0 /CMC/tools/altera/13.1/nios2eds/bin/gnu/H-i686-pc-linux-gnu/bin/../lib/gcc/nios2-elf/4.7.3/mno-hw-mul/libgcc.a(_div_df.o)
 .data          0x0041a3fc        0x0 /CMC/tools/altera/13.1/nios2eds/bin/gnu/H-i686-pc-linux-gnu/bin/../lib/gcc/nios2-elf/4.7.3/mno-hw-mul/libgcc.a(_eq_df.o)
 .data          0x0041a3fc        0x0 /CMC/tools/altera/13.1/nios2eds/bin/gnu/H-i686-pc-linux-gnu/bin/../lib/gcc/nios2-elf/4.7.3/mno-hw-mul/libgcc.a(_ne_df.o)
 .data          0x0041a3fc        0x0 /CMC/tools/altera/13.1/nios2eds/bin/gnu/H-i686-pc-linux-gnu/bin/../lib/gcc/nios2-elf/4.7.3/mno-hw-mul/libgcc.a(_gt_df.o)
 .data          0x0041a3fc        0x0 /CMC/tools/altera/13.1/nios2eds/bin/gnu/H-i686-pc-linux-gnu/bin/../lib/gcc/nios2-elf/4.7.3/mno-hw-mul/libgcc.a(_ge_df.o)
 .data          0x0041a3fc        0x0 /CMC/tools/altera/13.1/nios2eds/bin/gnu/H-i686-pc-linux-gnu/bin/../lib/gcc/nios2-elf/4.7.3/mno-hw-mul/libgcc.a(_lt_df.o)
 .data          0x0041a3fc        0x0 /CMC/tools/altera/13.1/nios2eds/bin/gnu/H-i686-pc-linux-gnu/bin/../lib/gcc/nios2-elf/4.7.3/mno-hw-mul/libgcc.a(_si_to_df.o)
 .data          0x0041a3fc        0x0 /CMC/tools/altera/13.1/nios2eds/bin/gnu/H-i686-pc-linux-gnu/bin/../lib/gcc/nios2-elf/4.7.3/mno-hw-mul/libgcc.a(_df_to_si.o)
 .data          0x0041a3fc        0x0 /CMC/tools/altera/13.1/nios2eds/bin/gnu/H-i686-pc-linux-gnu/bin/../lib/gcc/nios2-elf/4.7.3/mno-hw-mul/libgcc.a(_thenan_df.o)
 .data          0x0041a3fc        0x0 /CMC/tools/altera/13.1/nios2eds/bin/gnu/H-i686-pc-linux-gnu/bin/../lib/gcc/nios2-elf/4.7.3/mno-hw-mul/libgcc.a(_usi_to_df.o)
 .data          0x0041a3fc        0x0 /CMC/tools/altera/13.1/nios2eds/bin/gnu/H-i686-pc-linux-gnu/bin/../lib/gcc/nios2-elf/4.7.3/mno-hw-mul/libgcc.a(lib2-divmod.o)
 .data          0x0041a3fc        0x0 /CMC/tools/altera/13.1/nios2eds/bin/gnu/H-i686-pc-linux-gnu/bin/../lib/gcc/nios2-elf/4.7.3/mno-hw-mul/libgcc.a(_muldi3.o)
 .data          0x0041a3fc        0x0 /CMC/tools/altera/13.1/nios2eds/bin/gnu/H-i686-pc-linux-gnu/bin/../lib/gcc/nios2-elf/4.7.3/mno-hw-mul/libgcc.a(_clz.o)
 .data          0x0041a3fc        0x0 /CMC/tools/altera/13.1/nios2eds/bin/gnu/H-i686-pc-linux-gnu/bin/../lib/gcc/nios2-elf/4.7.3/mno-hw-mul/libgcc.a(_clzsi2.o)
 .data          0x0041a3fc        0x0 /CMC/tools/altera/13.1/nios2eds/bin/gnu/H-i686-pc-linux-gnu/bin/../lib/gcc/nios2-elf/4.7.3/mno-hw-mul/libgcc.a(_pack_df.o)
 .data          0x0041a3fc        0x0 /CMC/tools/altera/13.1/nios2eds/bin/gnu/H-i686-pc-linux-gnu/bin/../lib/gcc/nios2-elf/4.7.3/mno-hw-mul/libgcc.a(_unpack_df.o)
 .data          0x0041a3fc        0x0 /CMC/tools/altera/13.1/nios2eds/bin/gnu/H-i686-pc-linux-gnu/bin/../lib/gcc/nios2-elf/4.7.3/mno-hw-mul/libgcc.a(_fpcmp_parts_df.o)
 .data          0x0041a3fc        0x0 /CMC/tools/altera/13.1/nios2eds/bin/gnu/H-i686-pc-linux-gnu/bin/../lib/gcc/nios2-elf/4.7.3/mno-hw-mul/libgcc.a(_lshrdi3.o)
 .data          0x0041a3fc        0x0 /CMC/tools/altera/13.1/nios2eds/bin/gnu/H-i686-pc-linux-gnu/bin/../lib/gcc/nios2-elf/4.7.3/mno-hw-mul/libgcc.a(_ashldi3.o)
 .data          0x0041a3fc        0x0 ../ucosMon_bsp//libucosii_bsp.a(alt_close.o)
 .data          0x0041a3fc      0x1a8 ../ucosMon_bsp//libucosii_bsp.a(alt_dev.o)
                0x0041a3fc                alt_dev_null
                0x0041a424                alt_fd_list
 .data          0x0041a5a4        0x0 ../ucosMon_bsp//libucosii_bsp.a(alt_dma_rxchan_open.o)
 .data          0x0041a5a4        0x0 ../ucosMon_bsp//libucosii_bsp.a(alt_dma_txchan_open.o)
 .data          0x0041a5a4        0x0 ../ucosMon_bsp//libucosii_bsp.a(alt_errno.o)
 .data          0x0041a5a4        0x0 ../ucosMon_bsp//libucosii_bsp.a(alt_exit.o)
 .data          0x0041a5a4        0x0 ../ucosMon_bsp//libucosii_bsp.a(alt_find_dev.o)
 .data          0x0041a5a4        0x0 ../ucosMon_bsp//libucosii_bsp.a(alt_fstat.o)
 .data          0x0041a5a4        0x0 ../ucosMon_bsp//libucosii_bsp.a(alt_iic.o)
 .data          0x0041a5a4        0x0 ../ucosMon_bsp//libucosii_bsp.a(alt_iic_isr_register.o)
 .data          0x0041a5a4        0x0 ../ucosMon_bsp//libucosii_bsp.a(alt_irq_entry.o)
 .data          0x0041a5a4        0x0 ../ucosMon_bsp//libucosii_bsp.a(alt_irq_handler.o)
 .data          0x0041a5a4        0x0 ../ucosMon_bsp//libucosii_bsp.a(alt_irq_vars.o)
 .data          0x0041a5a4        0x0 ../ucosMon_bsp//libucosii_bsp.a(alt_isatty.o)
 .data          0x0041a5a4        0x0 ../ucosMon_bsp//libucosii_bsp.a(alt_load.o)
 .data          0x0041a5a4        0x0 ../ucosMon_bsp//libucosii_bsp.a(alt_lseek.o)
 .data          0x0041a5a4        0x0 ../ucosMon_bsp//libucosii_bsp.a(alt_main.o)
 .data          0x0041a5a4        0x0 ../ucosMon_bsp//libucosii_bsp.a(alt_read.o)
 .data          0x0041a5a4        0x0 ../ucosMon_bsp//libucosii_bsp.a(alt_release_fd.o)
 .data          0x0041a5a4        0x0 ../ucosMon_bsp//libucosii_bsp.a(alt_sbrk.o)
 .data          0x0041a5a4        0x0 ../ucosMon_bsp//libucosii_bsp.a(alt_times.o)
 .data          0x0041a5a4        0x0 ../ucosMon_bsp//libucosii_bsp.a(alt_write.o)
 .data          0x0041a5a4        0x0 ../ucosMon_bsp//libucosii_bsp.a(alt_env_lock.o)
 .data          0x0041a5a4        0x0 ../ucosMon_bsp//libucosii_bsp.a(alt_malloc_lock.o)
 .data          0x0041a5a4        0x0 ../ucosMon_bsp//libucosii_bsp.a(os_core.o)
 .data          0x0041a5a4        0x0 ../ucosMon_bsp//libucosii_bsp.a(os_dbg.o)
 .data          0x0041a5a4        0x0 ../ucosMon_bsp//libucosii_bsp.a(os_flag.o)
 .data          0x0041a5a4        0x0 ../ucosMon_bsp//libucosii_bsp.a(os_mem.o)
 .data          0x0041a5a4        0x0 ../ucosMon_bsp//libucosii_bsp.a(os_q.o)
 .data          0x0041a5a4        0x0 ../ucosMon_bsp//libucosii_bsp.a(os_sem.o)
 .data          0x0041a5a4        0x0 ../ucosMon_bsp//libucosii_bsp.a(os_task.o)
 .data          0x0041a5a4        0x0 ../ucosMon_bsp//libucosii_bsp.a(os_time.o)
 .data          0x0041a5a4     0x1268 ../ucosMon_bsp//libucosii_bsp.a(alt_sys_init.o)
 .data          0x0041b80c        0x0 ../ucosMon_bsp//libucosii_bsp.a(altera_avalon_dma.o)
 .data          0x0041b80c        0x0 ../ucosMon_bsp//libucosii_bsp.a(altera_avalon_jtag_uart_fd.o)
 .data          0x0041b80c        0x0 ../ucosMon_bsp//libucosii_bsp.a(altera_avalon_jtag_uart_init.o)
 .data          0x0041b80c        0x0 ../ucosMon_bsp//libucosii_bsp.a(altera_avalon_jtag_uart_ioctl.o)
 .data          0x0041b80c        0x0 ../ucosMon_bsp//libucosii_bsp.a(altera_avalon_jtag_uart_read.o)
 .data          0x0041b80c        0x0 ../ucosMon_bsp//libucosii_bsp.a(altera_avalon_jtag_uart_write.o)
 .data          0x0041b80c        0x0 ../ucosMon_bsp//libucosii_bsp.a(altera_avalon_mutex.o)
 .data          0x0041b80c        0x0 ../ucosMon_bsp//libucosii_bsp.a(altera_avalon_timer_sc.o)
 .data          0x0041b80c        0x0 ../ucosMon_bsp//libucosii_bsp.a(altera_avalon_timer_vars.o)
 .data          0x0041b80c        0x0 ../ucosMon_bsp//libucosii_bsp.a(altera_ro_zipfs.o)
 .data          0x0041b80c        0x0 ../ucosMon_bsp//libucosii_bsp.a(alt_alarm_start.o)
 .data          0x0041b80c        0x0 ../ucosMon_bsp//libucosii_bsp.a(alt_dcache_flush_all.o)
 .data          0x0041b80c        0x0 ../ucosMon_bsp//libucosii_bsp.a(alt_dev_llist_insert.o)
 .data          0x0041b80c        0x0 ../ucosMon_bsp//libucosii_bsp.a(alt_do_ctors.o)
 .data          0x0041b80c        0x0 ../ucosMon_bsp//libucosii_bsp.a(alt_do_dtors.o)
 .data          0x0041b80c        0x0 ../ucosMon_bsp//libucosii_bsp.a(alt_exception_entry.o)
 .data          0x0041b80c        0x0 ../ucosMon_bsp//libucosii_bsp.a(alt_fs_reg.o)
 .data          0x0041b80c        0x0 ../ucosMon_bsp//libucosii_bsp.a(alt_icache_flush_all.o)
 .data          0x0041b80c        0x0 ../ucosMon_bsp//libucosii_bsp.a(alt_io_redirect.o)
 .data          0x0041b80c        0x0 ../ucosMon_bsp//libucosii_bsp.a(alt_open.o)
 .data          0x0041b80c        0x0 ../ucosMon_bsp//libucosii_bsp.a(alt_tick.o)
 .data          0x0041b80c        0x0 ../ucosMon_bsp//libucosii_bsp.a(altera_nios2_qsys_irq.o)
 .data          0x0041b80c        0x0 ../ucosMon_bsp//libucosii_bsp.a(os_cpu_a.o)
 .data          0x0041b80c        0x0 ../ucosMon_bsp//libucosii_bsp.a(os_cpu_c.o)
 .data          0x0041b80c        0x0 ../ucosMon_bsp//libucosii_bsp.a(alt_find_file.o)
 .data          0x0041b80c        0x0 ../ucosMon_bsp//libucosii_bsp.a(alt_get_fd.o)
 .data          0x0041b80c        0x0 ../ucosMon_bsp//libucosii_bsp.a(alt_icache_flush.o)
 .data          0x0041b80c        0x0 /CMC/tools/altera/13.1/nios2eds/bin/gnu/H-i686-pc-linux-gnu/bin/../lib/gcc/nios2-elf/4.7.3/../../../../../H-i686-pc-linux-gnu/nios2-elf/lib/mno-hw-mul/libc.a(lib_a-atexit.o)
 .data          0x0041b80c        0x0 /CMC/tools/altera/13.1/nios2eds/bin/gnu/H-i686-pc-linux-gnu/bin/../lib/gcc/nios2-elf/4.7.3/../../../../../H-i686-pc-linux-gnu/nios2-elf/lib/mno-hw-mul/libc.a(lib_a-memcmp.o)
 .data          0x0041b80c        0x0 /CMC/tools/altera/13.1/nios2eds/bin/gnu/H-i686-pc-linux-gnu/bin/../lib/gcc/nios2-elf/4.7.3/../../../../../H-i686-pc-linux-gnu/nios2-elf/lib/mno-hw-mul/libc.a(lib_a-strncmp.o)
 .data          0x0041b80c        0x0 /CMC/tools/altera/13.1/nios2eds/bin/gnu/H-i686-pc-linux-gnu/bin/../lib/gcc/nios2-elf/4.7.3/../../../../../H-i686-pc-linux-gnu/nios2-elf/lib/mno-hw-mul/libc.a(lib_a-__atexit.o)
 .data          0x0041b80c        0x0 /CMC/tools/altera/13.1/nios2eds/bin/gnu/H-i686-pc-linux-gnu/bin/../lib/gcc/nios2-elf/4.7.3/mno-hw-mul/libgcc.a(_fixunsdfsi.o)
                0x0042380c                _gp = ABSOLUTE ((. + 0x8000))
                0x0042380c                PROVIDE (gp, _gp)
 *(.rwdata .rwdata.*)
 *(.sdata .sdata.* .gnu.linkonce.s.*)
 .sdata         0x0041b80c        0x8 obj/default/Monitor.o
                0x0041b80c                isr_0_ptr
                0x0041b810                isr_1_ptr
 .sdata         0x0041b814        0x8 /CMC/tools/altera/13.1/nios2eds/bin/gnu/H-i686-pc-linux-gnu/bin/../lib/gcc/nios2-elf/4.7.3/../../../../../H-i686-pc-linux-gnu/nios2-elf/lib/mno-hw-mul/libc.a(lib_a-impure.o)
                0x0041b814                _global_impure_ptr
                0x0041b818                _impure_ptr
 .sdata         0x0041b81c        0x4 /CMC/tools/altera/13.1/nios2eds/bin/gnu/H-i686-pc-linux-gnu/bin/../lib/gcc/nios2-elf/4.7.3/../../../../../H-i686-pc-linux-gnu/nios2-elf/lib/mno-hw-mul/libc.a(lib_a-locale.o)
                0x0041b81c                __mb_cur_max
 .sdata         0x0041b820        0x8 /CMC/tools/altera/13.1/nios2eds/bin/gnu/H-i686-pc-linux-gnu/bin/../lib/gcc/nios2-elf/4.7.3/../../../../../H-i686-pc-linux-gnu/nios2-elf/lib/mno-hw-mul/libc.a(lib_a-mallocr.o)
                0x0041b820                __malloc_sbrk_base
                0x0041b824                __malloc_trim_threshold
 .sdata         0x0041b828       0x14 ../ucosMon_bsp//libucosii_bsp.a(alt_dev.o)
                0x0041b828                alt_fs_list
                0x0041b830                alt_dev_list
                0x0041b838                alt_max_fd
 .sdata         0x0041b83c        0x8 ../ucosMon_bsp//libucosii_bsp.a(alt_dma_rxchan_open.o)
                0x0041b83c                alt_dma_rxchan_list
 .sdata         0x0041b844        0x8 ../ucosMon_bsp//libucosii_bsp.a(alt_dma_txchan_open.o)
                0x0041b844                alt_dma_txchan_list
 .sdata         0x0041b84c        0x4 ../ucosMon_bsp//libucosii_bsp.a(alt_errno.o)
                0x0041b84c                alt_errno
 .sdata         0x0041b850        0x4 ../ucosMon_bsp//libucosii_bsp.a(alt_irq_vars.o)
                0x0041b850                alt_priority_mask
 .sdata         0x0041b854        0x4 ../ucosMon_bsp//libucosii_bsp.a(alt_sbrk.o)
 .sdata         0x0041b858        0x4 ../ucosMon_bsp//libucosii_bsp.a(alt_env_lock.o)
 .sdata         0x0041b85c        0x4 ../ucosMon_bsp//libucosii_bsp.a(alt_malloc_lock.o)
 .sdata         0x0041b860       0x74 ../ucosMon_bsp//libucosii_bsp.a(os_dbg.o)
                0x0041b860                OSDebugEn
                0x0041b864                OSEndiannessTest
                0x0041b868                OSEventEn
                0x0041b86a                OSEventMax
                0x0041b86c                OSEventNameSize
                0x0041b86e                OSEventSize
                0x0041b870                OSEventTblSize
                0x0041b872                OSEventMultiEn
                0x0041b874                OSFlagEn
                0x0041b876                OSFlagGrpSize
                0x0041b878                OSFlagNodeSize
                0x0041b87a                OSFlagWidth
                0x0041b87c                OSFlagMax
                0x0041b87e                OSFlagNameSize
                0x0041b880                OSLowestPrio
                0x0041b882                OSMboxEn
                0x0041b884                OSMemEn
                0x0041b886                OSMemMax
                0x0041b888                OSMemNameSize
                0x0041b88a                OSMemSize
                0x0041b88c                OSMemTblSize
                0x0041b88e                OSMutexEn
                0x0041b890                OSPtrSize
                0x0041b892                OSQEn
                0x0041b894                OSQMax
                0x0041b896                OSQSize
                0x0041b898                OSRdyTblSize
                0x0041b89a                OSSemEn
                0x0041b89c                OSStkWidth
                0x0041b89e                OSTaskCreateEn
                0x0041b8a0                OSTaskCreateExtEn
                0x0041b8a2                OSTaskDelEn
                0x0041b8a4                OSTaskIdleStkSize
                0x0041b8a6                OSTaskProfileEn
                0x0041b8a8                OSTaskMax
                0x0041b8aa                OSTaskNameSize
                0x0041b8ac                OSTaskStatEn
                0x0041b8ae                OSTaskStatStkSize
                0x0041b8b0                OSTaskStatStkChkEn
                0x0041b8b2                OSTaskSwHookEn
                0x0041b8b4                OSTCBPrioTblMax
                0x0041b8b6                OSTCBSize
                0x0041b8b8                OSTicksPerSec
                0x0041b8ba                OSTimeTickHookEn
                0x0041b8bc                OSVersionNbr
                0x0041b8be                OSTmrEn
                0x0041b8c0                OSTmrCfgMax
                0x0041b8c2                OSTmrCfgNameSize
                0x0041b8c4                OSTmrCfgWheelSize
                0x0041b8c6                OSTmrCfgTicksPerSec
                0x0041b8c8                OSTmrSize
                0x0041b8ca                OSTmrTblSize
                0x0041b8cc                OSTmrWheelSize
                0x0041b8ce                OSTmrWheelTblSize
                0x0041b8d0                OSDataSize
 .sdata         0x0041b8d4        0x8 ../ucosMon_bsp//libucosii_bsp.a(altera_avalon_mutex.o)
                0x0041b8d4                alt_mutex_list
 .sdata         0x0041b8dc        0x8 ../ucosMon_bsp//libucosii_bsp.a(alt_tick.o)
                0x0041b8dc                alt_alarm_list
 *(.sdata2 .sdata2.* .gnu.linkonce.s2.*)
                0x0041b8e4                . = ALIGN (0x4)
                0x0041b8e4                _edata = ABSOLUTE (.)
                0x0041b8e4                PROVIDE (edata, ABSOLUTE (.))
                0x0041b8e4                PROVIDE (__ram_rwdata_end, ABSOLUTE (.))
                0x0041b8e4                PROVIDE (__flash_rwdata_start, LOADADDR (.rwdata))

.bss            0x0041d5e0     0x35c0
                0x0041d5e0                __bss_start = ABSOLUTE (.)
                0x0041d5e0                PROVIDE (__sbss_start, ABSOLUTE (.))
                0x0041d5e0                PROVIDE (___sbss_start, ABSOLUTE (.))
 *(.dynsbss)
 *(.sbss .sbss.* .gnu.linkonce.sb.*)
 .sbss          0x0041d5e0        0x8 obj/default/Monitor.o
                0x0041d5e0                count
 .sbss          0x0041d5e8       0x14 obj/default/Monitor.o
                0x0041d5e8                start_schedule
                0x0041d5ec                done
                0x0041d5f0                mutex
                0x0041d5f4                err
                0x0041d5f8                status
 .sbss          0x0041d5fc        0xc /CMC/tools/altera/13.1/nios2eds/bin/gnu/H-i686-pc-linux-gnu/bin/../lib/gcc/nios2-elf/4.7.3/../../../../../H-i686-pc-linux-gnu/nios2-elf/lib/mno-hw-mul/libc.a(lib_a-locale.o)
                0x0041d5fc                _PathLocale
                0x0041d600                __mlocale_changed
                0x0041d604                __nlocale_changed
 .sbss          0x0041d608        0xc /CMC/tools/altera/13.1/nios2eds/bin/gnu/H-i686-pc-linux-gnu/bin/../lib/gcc/nios2-elf/4.7.3/../../../../../H-i686-pc-linux-gnu/nios2-elf/lib/mno-hw-mul/libc.a(lib_a-mallocr.o)
                0x0041d608                __malloc_max_total_mem
                0x0041d60c                __malloc_max_sbrked_mem
                0x0041d610                __malloc_top_pad
 .sbss          0x0041d614        0x4 /CMC/tools/altera/13.1/nios2eds/bin/gnu/H-i686-pc-linux-gnu/bin/../lib/gcc/nios2-elf/4.7.3/../../../../../H-i686-pc-linux-gnu/nios2-elf/lib/mno-hw-mul/libc.a(lib_a-int_errno.o)
                0x0041d614                errno
 .sbss          0x0041d618        0x4 ../ucosMon_bsp//libucosii_bsp.a(alt_dev.o)
                0x0041d618                alt_fd_list_lock
 .sbss          0x0041d61c        0x4 ../ucosMon_bsp//libucosii_bsp.a(alt_irq_vars.o)
                0x0041d61c                alt_irq_active
 .sbss          0x0041d620        0xc ../ucosMon_bsp//libucosii_bsp.a(alt_main.o)
                0x0041d620                alt_argc
                0x0041d624                alt_argv
                0x0041d628                alt_envp
 .sbss          0x0041d62c        0x8 ../ucosMon_bsp//libucosii_bsp.a(alt_env_lock.o)
                0x0041d630                alt_envsem
 .sbss          0x0041d634        0x8 ../ucosMon_bsp//libucosii_bsp.a(alt_malloc_lock.o)
                0x0041d638                alt_heapsem
 .sbss          0x0041d63c       0x50 ../ucosMon_bsp//libucosii_bsp.a(os_core.o)
                0x0041d63c                OSLockNesting
                0x0041d63d                OSRunning
                0x0041d640                OSIdleCtr
                0x0041d644                OSPrioHighRdy
                0x0041d645                OSPrioCur
                0x0041d648                OSTCBList
                0x0041d64c                OSTickStepState
                0x0041d650                OSCtxSwCtr
                0x0041d654                OSIdleCtrMax
                0x0041d658                OSTCBFreeList
                0x0041d65c                OSCPUUsage
                0x0041d65d                OSTaskCtr
                0x0041d660                OSMemFreeList
                0x0041d664                OSTCBHighRdy
                0x0041d668                OSQFreeList
                0x0041d66c                OSRdyGrp
                0x0041d66d                OSRdyTbl
                0x0041d670                OSEventFreeList
                0x0041d674                OSIntNesting
                0x0041d678                OSTCBCur
                0x0041d67c                OSTime
                0x0041d680                OSFlagFreeList
                0x0041d684                OSStatRdy
                0x0041d688                OSIdleCtrRun
 .sbss          0x0041d68c        0x8 ../ucosMon_bsp//libucosii_bsp.a(altera_avalon_timer_vars.o)
                0x0041d68c                altera_avalon_timer_ts_base
                0x0041d690                altera_avalon_timer_ts_freq
 .sbss          0x0041d694        0x8 ../ucosMon_bsp//libucosii_bsp.a(alt_tick.o)
                0x0041d694                _alt_tick_rate
                0x0041d698                _alt_nticks
 *(.sbss2 .sbss2.* .gnu.linkonce.sb2.*)
 *(.scommon)
                0x0041d69c                PROVIDE (__sbss_end, ABSOLUTE (.))
                0x0041d69c                PROVIDE (___sbss_end, ABSOLUTE (.))
 *(.dynbss)
 *(.bss .bss.* .gnu.linkonce.b.*)
 .bss           0x0041d69c        0x0 ../ucosMon_bsp//obj/HAL/src/crt0.o
 .bss           0x0041d69c        0x0 obj/default/Monitor.o
 .bss           0x0041d69c        0x0 obj/default/gp.o
 .bss           0x0041d69c        0x0 ../critical_library/libcritical_library.a(critical.o)
 .bss           0x0041d69c        0x0 ../critical_library/libcritical_library.a(fingerprint.o)
 .bss           0x0041d69c        0x0 /CMC/tools/altera/13.1/nios2eds/bin/gnu/H-i686-pc-linux-gnu/bin/../lib/gcc/nios2-elf/4.7.3/mno-hw-mul/libgcc.a(lib2-mul.o)
 .bss           0x0041d69c        0x0 /CMC/tools/altera/13.1/nios2eds/bin/gnu/H-i686-pc-linux-gnu/bin/../lib/gcc/nios2-elf/4.7.3/../../../../../H-i686-pc-linux-gnu/nios2-elf/lib/mno-hw-mul/libc.a(lib_a-clock.o)
 .bss           0x0041d69c        0x0 /CMC/tools/altera/13.1/nios2eds/bin/gnu/H-i686-pc-linux-gnu/bin/../lib/gcc/nios2-elf/4.7.3/../../../../../H-i686-pc-linux-gnu/nios2-elf/lib/mno-hw-mul/libc.a(lib_a-exit.o)
 .bss           0x0041d69c        0x0 /CMC/tools/altera/13.1/nios2eds/bin/gnu/H-i686-pc-linux-gnu/bin/../lib/gcc/nios2-elf/4.7.3/../../../../../H-i686-pc-linux-gnu/nios2-elf/lib/mno-hw-mul/libc.a(lib_a-impure.o)
 .bss           0x0041d69c        0x0 /CMC/tools/altera/13.1/nios2eds/bin/gnu/H-i686-pc-linux-gnu/bin/../lib/gcc/nios2-elf/4.7.3/../../../../../H-i686-pc-linux-gnu/nios2-elf/lib/mno-hw-mul/libc.a(lib_a-memcpy.o)
 .bss           0x0041d69c        0x0 /CMC/tools/altera/13.1/nios2eds/bin/gnu/H-i686-pc-linux-gnu/bin/../lib/gcc/nios2-elf/4.7.3/../../../../../H-i686-pc-linux-gnu/nios2-elf/lib/mno-hw-mul/libc.a(lib_a-printf.o)
 .bss           0x0041d69c        0x0 /CMC/tools/altera/13.1/nios2eds/bin/gnu/H-i686-pc-linux-gnu/bin/../lib/gcc/nios2-elf/4.7.3/../../../../../H-i686-pc-linux-gnu/nios2-elf/lib/mno-hw-mul/libc.a(lib_a-puts.o)
 .bss           0x0041d69c        0x0 /CMC/tools/altera/13.1/nios2eds/bin/gnu/H-i686-pc-linux-gnu/bin/../lib/gcc/nios2-elf/4.7.3/../../../../../H-i686-pc-linux-gnu/nios2-elf/lib/mno-hw-mul/libc.a(lib_a-strlen.o)
 .bss           0x0041d69c        0x0 /CMC/tools/altera/13.1/nios2eds/bin/gnu/H-i686-pc-linux-gnu/bin/../lib/gcc/nios2-elf/4.7.3/../../../../../H-i686-pc-linux-gnu/nios2-elf/lib/mno-hw-mul/libc.a(lib_a-timesr.o)
 .bss           0x0041d69c        0x0 /CMC/tools/altera/13.1/nios2eds/bin/gnu/H-i686-pc-linux-gnu/bin/../lib/gcc/nios2-elf/4.7.3/../../../../../H-i686-pc-linux-gnu/nios2-elf/lib/mno-hw-mul/libc.a(lib_a-vfprintf.o)
 .bss           0x0041d69c        0x0 /CMC/tools/altera/13.1/nios2eds/bin/gnu/H-i686-pc-linux-gnu/bin/../lib/gcc/nios2-elf/4.7.3/../../../../../H-i686-pc-linux-gnu/nios2-elf/lib/mno-hw-mul/libc.a(lib_a-wsetup.o)
 .bss           0x0041d69c        0x0 /CMC/tools/altera/13.1/nios2eds/bin/gnu/H-i686-pc-linux-gnu/bin/../lib/gcc/nios2-elf/4.7.3/../../../../../H-i686-pc-linux-gnu/nios2-elf/lib/mno-hw-mul/libc.a(lib_a-__call_atexit.o)
 .bss           0x0041d69c        0x0 /CMC/tools/altera/13.1/nios2eds/bin/gnu/H-i686-pc-linux-gnu/bin/../lib/gcc/nios2-elf/4.7.3/../../../../../H-i686-pc-linux-gnu/nios2-elf/lib/mno-hw-mul/libc.a(lib_a-dtoa.o)
 .bss           0x0041d69c        0x0 /CMC/tools/altera/13.1/nios2eds/bin/gnu/H-i686-pc-linux-gnu/bin/../lib/gcc/nios2-elf/4.7.3/../../../../../H-i686-pc-linux-gnu/nios2-elf/lib/mno-hw-mul/libc.a(lib_a-fflush.o)
 .bss           0x0041d69c        0x0 /CMC/tools/altera/13.1/nios2eds/bin/gnu/H-i686-pc-linux-gnu/bin/../lib/gcc/nios2-elf/4.7.3/../../../../../H-i686-pc-linux-gnu/nios2-elf/lib/mno-hw-mul/libc.a(lib_a-findfp.o)
 .bss           0x0041d69c        0x0 /CMC/tools/altera/13.1/nios2eds/bin/gnu/H-i686-pc-linux-gnu/bin/../lib/gcc/nios2-elf/4.7.3/../../../../../H-i686-pc-linux-gnu/nios2-elf/lib/mno-hw-mul/libc.a(lib_a-freer.o)
 .bss           0x0041d69c        0x0 /CMC/tools/altera/13.1/nios2eds/bin/gnu/H-i686-pc-linux-gnu/bin/../lib/gcc/nios2-elf/4.7.3/../../../../../H-i686-pc-linux-gnu/nios2-elf/lib/mno-hw-mul/libc.a(lib_a-fvwrite.o)
 .bss           0x0041d69c        0x0 /CMC/tools/altera/13.1/nios2eds/bin/gnu/H-i686-pc-linux-gnu/bin/../lib/gcc/nios2-elf/4.7.3/../../../../../H-i686-pc-linux-gnu/nios2-elf/lib/mno-hw-mul/libc.a(lib_a-fwalk.o)
 .bss           0x0041d69c        0x0 /CMC/tools/altera/13.1/nios2eds/bin/gnu/H-i686-pc-linux-gnu/bin/../lib/gcc/nios2-elf/4.7.3/../../../../../H-i686-pc-linux-gnu/nios2-elf/lib/mno-hw-mul/libc.a(lib_a-locale.o)
 .bss           0x0041d69c        0x0 /CMC/tools/altera/13.1/nios2eds/bin/gnu/H-i686-pc-linux-gnu/bin/../lib/gcc/nios2-elf/4.7.3/../../../../../H-i686-pc-linux-gnu/nios2-elf/lib/mno-hw-mul/libc.a(lib_a-makebuf.o)
 .bss           0x0041d69c       0x28 /CMC/tools/altera/13.1/nios2eds/bin/gnu/H-i686-pc-linux-gnu/bin/../lib/gcc/nios2-elf/4.7.3/../../../../../H-i686-pc-linux-gnu/nios2-elf/lib/mno-hw-mul/libc.a(lib_a-mallocr.o)
                0x0041d69c                __malloc_current_mallinfo
 .bss           0x0041d6c4        0x0 /CMC/tools/altera/13.1/nios2eds/bin/gnu/H-i686-pc-linux-gnu/bin/../lib/gcc/nios2-elf/4.7.3/../../../../../H-i686-pc-linux-gnu/nios2-elf/lib/mno-hw-mul/libc.a(lib_a-memchr.o)
 .bss           0x0041d6c4        0x0 /CMC/tools/altera/13.1/nios2eds/bin/gnu/H-i686-pc-linux-gnu/bin/../lib/gcc/nios2-elf/4.7.3/../../../../../H-i686-pc-linux-gnu/nios2-elf/lib/mno-hw-mul/libc.a(lib_a-memmove.o)
 .bss           0x0041d6c4        0x0 /CMC/tools/altera/13.1/nios2eds/bin/gnu/H-i686-pc-linux-gnu/bin/../lib/gcc/nios2-elf/4.7.3/../../../../../H-i686-pc-linux-gnu/nios2-elf/lib/mno-hw-mul/libc.a(lib_a-memset.o)
 .bss           0x0041d6c4        0x0 /CMC/tools/altera/13.1/nios2eds/bin/gnu/H-i686-pc-linux-gnu/bin/../lib/gcc/nios2-elf/4.7.3/../../../../../H-i686-pc-linux-gnu/nios2-elf/lib/mno-hw-mul/libc.a(lib_a-mprec.o)
 .bss           0x0041d6c4        0x0 /CMC/tools/altera/13.1/nios2eds/bin/gnu/H-i686-pc-linux-gnu/bin/../lib/gcc/nios2-elf/4.7.3/../../../../../H-i686-pc-linux-gnu/nios2-elf/lib/mno-hw-mul/libc.a(lib_a-reallocr.o)
 .bss           0x0041d6c4        0x0 /CMC/tools/altera/13.1/nios2eds/bin/gnu/H-i686-pc-linux-gnu/bin/../lib/gcc/nios2-elf/4.7.3/../../../../../H-i686-pc-linux-gnu/nios2-elf/lib/mno-hw-mul/libc.a(lib_a-s_isinfd.o)
 .bss           0x0041d6c4        0x0 /CMC/tools/altera/13.1/nios2eds/bin/gnu/H-i686-pc-linux-gnu/bin/../lib/gcc/nios2-elf/4.7.3/../../../../../H-i686-pc-linux-gnu/nios2-elf/lib/mno-hw-mul/libc.a(lib_a-s_isnand.o)
 .bss           0x0041d6c4        0x0 /CMC/tools/altera/13.1/nios2eds/bin/gnu/H-i686-pc-linux-gnu/bin/../lib/gcc/nios2-elf/4.7.3/../../../../../H-i686-pc-linux-gnu/nios2-elf/lib/mno-hw-mul/libc.a(lib_a-sbrkr.o)
 .bss           0x0041d6c4        0x0 /CMC/tools/altera/13.1/nios2eds/bin/gnu/H-i686-pc-linux-gnu/bin/../lib/gcc/nios2-elf/4.7.3/../../../../../H-i686-pc-linux-gnu/nios2-elf/lib/mno-hw-mul/libc.a(lib_a-stdio.o)
 .bss           0x0041d6c4        0x0 /CMC/tools/altera/13.1/nios2eds/bin/gnu/H-i686-pc-linux-gnu/bin/../lib/gcc/nios2-elf/4.7.3/../../../../../H-i686-pc-linux-gnu/nios2-elf/lib/mno-hw-mul/libc.a(lib_a-strcmp.o)
 .bss           0x0041d6c4        0x0 /CMC/tools/altera/13.1/nios2eds/bin/gnu/H-i686-pc-linux-gnu/bin/../lib/gcc/nios2-elf/4.7.3/../../../../../H-i686-pc-linux-gnu/nios2-elf/lib/mno-hw-mul/libc.a(lib_a-writer.o)
 .bss           0x0041d6c4        0x0 /CMC/tools/altera/13.1/nios2eds/bin/gnu/H-i686-pc-linux-gnu/bin/../lib/gcc/nios2-elf/4.7.3/../../../../../H-i686-pc-linux-gnu/nios2-elf/lib/mno-hw-mul/libc.a(lib_a-callocr.o)
 .bss           0x0041d6c4        0x0 /CMC/tools/altera/13.1/nios2eds/bin/gnu/H-i686-pc-linux-gnu/bin/../lib/gcc/nios2-elf/4.7.3/../../../../../H-i686-pc-linux-gnu/nios2-elf/lib/mno-hw-mul/libc.a(lib_a-closer.o)
 .bss           0x0041d6c4        0x0 /CMC/tools/altera/13.1/nios2eds/bin/gnu/H-i686-pc-linux-gnu/bin/../lib/gcc/nios2-elf/4.7.3/../../../../../H-i686-pc-linux-gnu/nios2-elf/lib/mno-hw-mul/libc.a(lib_a-fclose.o)
 .bss           0x0041d6c4        0x0 /CMC/tools/altera/13.1/nios2eds/bin/gnu/H-i686-pc-linux-gnu/bin/../lib/gcc/nios2-elf/4.7.3/../../../../../H-i686-pc-linux-gnu/nios2-elf/lib/mno-hw-mul/libc.a(lib_a-fstatr.o)
 .bss           0x0041d6c4        0x0 /CMC/tools/altera/13.1/nios2eds/bin/gnu/H-i686-pc-linux-gnu/bin/../lib/gcc/nios2-elf/4.7.3/../../../../../H-i686-pc-linux-gnu/nios2-elf/lib/mno-hw-mul/libc.a(lib_a-int_errno.o)
 .bss           0x0041d6c4        0x0 /CMC/tools/altera/13.1/nios2eds/bin/gnu/H-i686-pc-linux-gnu/bin/../lib/gcc/nios2-elf/4.7.3/../../../../../H-i686-pc-linux-gnu/nios2-elf/lib/mno-hw-mul/libc.a(lib_a-isattyr.o)
 .bss           0x0041d6c4        0x0 /CMC/tools/altera/13.1/nios2eds/bin/gnu/H-i686-pc-linux-gnu/bin/../lib/gcc/nios2-elf/4.7.3/../../../../../H-i686-pc-linux-gnu/nios2-elf/lib/mno-hw-mul/libc.a(lib_a-lseekr.o)
 .bss           0x0041d6c4        0x0 /CMC/tools/altera/13.1/nios2eds/bin/gnu/H-i686-pc-linux-gnu/bin/../lib/gcc/nios2-elf/4.7.3/../../../../../H-i686-pc-linux-gnu/nios2-elf/lib/mno-hw-mul/libc.a(lib_a-readr.o)
 .bss           0x0041d6c4        0x0 /CMC/tools/altera/13.1/nios2eds/bin/gnu/H-i686-pc-linux-gnu/bin/../lib/gcc/nios2-elf/4.7.3/mno-hw-mul/libgcc.a(_udivdi3.o)
 .bss           0x0041d6c4        0x0 /CMC/tools/altera/13.1/nios2eds/bin/gnu/H-i686-pc-linux-gnu/bin/../lib/gcc/nios2-elf/4.7.3/mno-hw-mul/libgcc.a(_umoddi3.o)
 .bss           0x0041d6c4        0x0 /CMC/tools/altera/13.1/nios2eds/bin/gnu/H-i686-pc-linux-gnu/bin/../lib/gcc/nios2-elf/4.7.3/mno-hw-mul/libgcc.a(_addsub_df.o)
 .bss           0x0041d6c4        0x0 /CMC/tools/altera/13.1/nios2eds/bin/gnu/H-i686-pc-linux-gnu/bin/../lib/gcc/nios2-elf/4.7.3/mno-hw-mul/libgcc.a(_mul_df.o)
 .bss           0x0041d6c4        0x0 /CMC/tools/altera/13.1/nios2eds/bin/gnu/H-i686-pc-linux-gnu/bin/../lib/gcc/nios2-elf/4.7.3/mno-hw-mul/libgcc.a(_div_df.o)
 .bss           0x0041d6c4        0x0 /CMC/tools/altera/13.1/nios2eds/bin/gnu/H-i686-pc-linux-gnu/bin/../lib/gcc/nios2-elf/4.7.3/mno-hw-mul/libgcc.a(_eq_df.o)
 .bss           0x0041d6c4        0x0 /CMC/tools/altera/13.1/nios2eds/bin/gnu/H-i686-pc-linux-gnu/bin/../lib/gcc/nios2-elf/4.7.3/mno-hw-mul/libgcc.a(_ne_df.o)
 .bss           0x0041d6c4        0x0 /CMC/tools/altera/13.1/nios2eds/bin/gnu/H-i686-pc-linux-gnu/bin/../lib/gcc/nios2-elf/4.7.3/mno-hw-mul/libgcc.a(_gt_df.o)
 .bss           0x0041d6c4        0x0 /CMC/tools/altera/13.1/nios2eds/bin/gnu/H-i686-pc-linux-gnu/bin/../lib/gcc/nios2-elf/4.7.3/mno-hw-mul/libgcc.a(_ge_df.o)
 .bss           0x0041d6c4        0x0 /CMC/tools/altera/13.1/nios2eds/bin/gnu/H-i686-pc-linux-gnu/bin/../lib/gcc/nios2-elf/4.7.3/mno-hw-mul/libgcc.a(_lt_df.o)
 .bss           0x0041d6c4        0x0 /CMC/tools/altera/13.1/nios2eds/bin/gnu/H-i686-pc-linux-gnu/bin/../lib/gcc/nios2-elf/4.7.3/mno-hw-mul/libgcc.a(_si_to_df.o)
 .bss           0x0041d6c4        0x0 /CMC/tools/altera/13.1/nios2eds/bin/gnu/H-i686-pc-linux-gnu/bin/../lib/gcc/nios2-elf/4.7.3/mno-hw-mul/libgcc.a(_df_to_si.o)
 .bss           0x0041d6c4        0x0 /CMC/tools/altera/13.1/nios2eds/bin/gnu/H-i686-pc-linux-gnu/bin/../lib/gcc/nios2-elf/4.7.3/mno-hw-mul/libgcc.a(_thenan_df.o)
 .bss           0x0041d6c4        0x0 /CMC/tools/altera/13.1/nios2eds/bin/gnu/H-i686-pc-linux-gnu/bin/../lib/gcc/nios2-elf/4.7.3/mno-hw-mul/libgcc.a(_usi_to_df.o)
 .bss           0x0041d6c4        0x0 /CMC/tools/altera/13.1/nios2eds/bin/gnu/H-i686-pc-linux-gnu/bin/../lib/gcc/nios2-elf/4.7.3/mno-hw-mul/libgcc.a(lib2-divmod.o)
 .bss           0x0041d6c4        0x0 /CMC/tools/altera/13.1/nios2eds/bin/gnu/H-i686-pc-linux-gnu/bin/../lib/gcc/nios2-elf/4.7.3/mno-hw-mul/libgcc.a(_muldi3.o)
 .bss           0x0041d6c4        0x0 /CMC/tools/altera/13.1/nios2eds/bin/gnu/H-i686-pc-linux-gnu/bin/../lib/gcc/nios2-elf/4.7.3/mno-hw-mul/libgcc.a(_clz.o)
 .bss           0x0041d6c4        0x0 /CMC/tools/altera/13.1/nios2eds/bin/gnu/H-i686-pc-linux-gnu/bin/../lib/gcc/nios2-elf/4.7.3/mno-hw-mul/libgcc.a(_clzsi2.o)
 .bss           0x0041d6c4        0x0 /CMC/tools/altera/13.1/nios2eds/bin/gnu/H-i686-pc-linux-gnu/bin/../lib/gcc/nios2-elf/4.7.3/mno-hw-mul/libgcc.a(_pack_df.o)
 .bss           0x0041d6c4        0x0 /CMC/tools/altera/13.1/nios2eds/bin/gnu/H-i686-pc-linux-gnu/bin/../lib/gcc/nios2-elf/4.7.3/mno-hw-mul/libgcc.a(_unpack_df.o)
 .bss           0x0041d6c4        0x0 /CMC/tools/altera/13.1/nios2eds/bin/gnu/H-i686-pc-linux-gnu/bin/../lib/gcc/nios2-elf/4.7.3/mno-hw-mul/libgcc.a(_fpcmp_parts_df.o)
 .bss           0x0041d6c4        0x0 /CMC/tools/altera/13.1/nios2eds/bin/gnu/H-i686-pc-linux-gnu/bin/../lib/gcc/nios2-elf/4.7.3/mno-hw-mul/libgcc.a(_lshrdi3.o)
 .bss           0x0041d6c4        0x0 /CMC/tools/altera/13.1/nios2eds/bin/gnu/H-i686-pc-linux-gnu/bin/../lib/gcc/nios2-elf/4.7.3/mno-hw-mul/libgcc.a(_ashldi3.o)
 .bss           0x0041d6c4        0x0 ../ucosMon_bsp//libucosii_bsp.a(alt_close.o)
 .bss           0x0041d6c4        0x0 ../ucosMon_bsp//libucosii_bsp.a(alt_dev.o)
 .bss           0x0041d6c4        0x0 ../ucosMon_bsp//libucosii_bsp.a(alt_dma_rxchan_open.o)
 .bss           0x0041d6c4        0x0 ../ucosMon_bsp//libucosii_bsp.a(alt_dma_txchan_open.o)
 .bss           0x0041d6c4        0x0 ../ucosMon_bsp//libucosii_bsp.a(alt_errno.o)
 .bss           0x0041d6c4        0x0 ../ucosMon_bsp//libucosii_bsp.a(alt_exit.o)
 .bss           0x0041d6c4        0x0 ../ucosMon_bsp//libucosii_bsp.a(alt_find_dev.o)
 .bss           0x0041d6c4        0x0 ../ucosMon_bsp//libucosii_bsp.a(alt_fstat.o)
 .bss           0x0041d6c4        0x0 ../ucosMon_bsp//libucosii_bsp.a(alt_iic.o)
 .bss           0x0041d6c4        0x0 ../ucosMon_bsp//libucosii_bsp.a(alt_iic_isr_register.o)
 .bss           0x0041d6c4        0x0 ../ucosMon_bsp//libucosii_bsp.a(alt_irq_entry.o)
 .bss           0x0041d6c4        0x0 ../ucosMon_bsp//libucosii_bsp.a(alt_irq_handler.o)
 .bss           0x0041d6c4        0x0 ../ucosMon_bsp//libucosii_bsp.a(alt_irq_vars.o)
 .bss           0x0041d6c4        0x0 ../ucosMon_bsp//libucosii_bsp.a(alt_isatty.o)
 .bss           0x0041d6c4        0x0 ../ucosMon_bsp//libucosii_bsp.a(alt_load.o)
 .bss           0x0041d6c4        0x0 ../ucosMon_bsp//libucosii_bsp.a(alt_lseek.o)
 .bss           0x0041d6c4        0x0 ../ucosMon_bsp//libucosii_bsp.a(alt_main.o)
 .bss           0x0041d6c4        0x0 ../ucosMon_bsp//libucosii_bsp.a(alt_read.o)
 .bss           0x0041d6c4        0x0 ../ucosMon_bsp//libucosii_bsp.a(alt_release_fd.o)
 .bss           0x0041d6c4        0x0 ../ucosMon_bsp//libucosii_bsp.a(alt_sbrk.o)
 .bss           0x0041d6c4        0x0 ../ucosMon_bsp//libucosii_bsp.a(alt_times.o)
 .bss           0x0041d6c4        0x0 ../ucosMon_bsp//libucosii_bsp.a(alt_write.o)
 .bss           0x0041d6c4        0x0 ../ucosMon_bsp//libucosii_bsp.a(alt_env_lock.o)
 .bss           0x0041d6c4        0x0 ../ucosMon_bsp//libucosii_bsp.a(alt_malloc_lock.o)
 .bss           0x0041d6c4        0x0 ../ucosMon_bsp//libucosii_bsp.a(os_core.o)
 .bss           0x0041d6c4        0x0 ../ucosMon_bsp//libucosii_bsp.a(os_dbg.o)
 .bss           0x0041d6c4        0x0 ../ucosMon_bsp//libucosii_bsp.a(os_flag.o)
 .bss           0x0041d6c4        0x0 ../ucosMon_bsp//libucosii_bsp.a(os_mem.o)
 .bss           0x0041d6c4        0x0 ../ucosMon_bsp//libucosii_bsp.a(os_q.o)
 .bss           0x0041d6c4        0x0 ../ucosMon_bsp//libucosii_bsp.a(os_sem.o)
 .bss           0x0041d6c4        0x0 ../ucosMon_bsp//libucosii_bsp.a(os_task.o)
 .bss           0x0041d6c4        0x0 ../ucosMon_bsp//libucosii_bsp.a(os_time.o)
 .bss           0x0041d6c4        0x0 ../ucosMon_bsp//libucosii_bsp.a(alt_sys_init.o)
 .bss           0x0041d6c4        0x0 ../ucosMon_bsp//libucosii_bsp.a(altera_avalon_dma.o)
 .bss           0x0041d6c4        0x0 ../ucosMon_bsp//libucosii_bsp.a(altera_avalon_jtag_uart_fd.o)
 .bss           0x0041d6c4        0x0 ../ucosMon_bsp//libucosii_bsp.a(altera_avalon_jtag_uart_init.o)
 .bss           0x0041d6c4        0x0 ../ucosMon_bsp//libucosii_bsp.a(altera_avalon_jtag_uart_ioctl.o)
 .bss           0x0041d6c4        0x0 ../ucosMon_bsp//libucosii_bsp.a(altera_avalon_jtag_uart_read.o)
 .bss           0x0041d6c4        0x0 ../ucosMon_bsp//libucosii_bsp.a(altera_avalon_jtag_uart_write.o)
 .bss           0x0041d6c4        0x0 ../ucosMon_bsp//libucosii_bsp.a(altera_avalon_mutex.o)
 .bss           0x0041d6c4        0x0 ../ucosMon_bsp//libucosii_bsp.a(altera_avalon_timer_sc.o)
 .bss           0x0041d6c4        0x0 ../ucosMon_bsp//libucosii_bsp.a(altera_avalon_timer_vars.o)
 .bss           0x0041d6c4        0x0 ../ucosMon_bsp//libucosii_bsp.a(altera_ro_zipfs.o)
 .bss           0x0041d6c4        0x0 ../ucosMon_bsp//libucosii_bsp.a(alt_alarm_start.o)
 .bss           0x0041d6c4        0x0 ../ucosMon_bsp//libucosii_bsp.a(alt_dcache_flush_all.o)
 .bss           0x0041d6c4        0x0 ../ucosMon_bsp//libucosii_bsp.a(alt_dev_llist_insert.o)
 .bss           0x0041d6c4        0x0 ../ucosMon_bsp//libucosii_bsp.a(alt_do_ctors.o)
 .bss           0x0041d6c4        0x0 ../ucosMon_bsp//libucosii_bsp.a(alt_do_dtors.o)
 .bss           0x0041d6c4        0x0 ../ucosMon_bsp//libucosii_bsp.a(alt_exception_entry.o)
 .bss           0x0041d6c4        0x0 ../ucosMon_bsp//libucosii_bsp.a(alt_fs_reg.o)
 .bss           0x0041d6c4        0x0 ../ucosMon_bsp//libucosii_bsp.a(alt_icache_flush_all.o)
 .bss           0x0041d6c4        0x0 ../ucosMon_bsp//libucosii_bsp.a(alt_io_redirect.o)
 .bss           0x0041d6c4        0x0 ../ucosMon_bsp//libucosii_bsp.a(alt_open.o)
 .bss           0x0041d6c4        0x0 ../ucosMon_bsp//libucosii_bsp.a(alt_tick.o)
 .bss           0x0041d6c4        0x0 ../ucosMon_bsp//libucosii_bsp.a(altera_nios2_qsys_irq.o)
 .bss           0x0041d6c4        0x0 ../ucosMon_bsp//libucosii_bsp.a(os_cpu_a.o)
 .bss           0x0041d6c4        0x0 ../ucosMon_bsp//libucosii_bsp.a(os_cpu_c.o)
 .bss           0x0041d6c4        0x0 ../ucosMon_bsp//libucosii_bsp.a(alt_find_file.o)
 .bss           0x0041d6c4        0x0 ../ucosMon_bsp//libucosii_bsp.a(alt_get_fd.o)
 .bss           0x0041d6c4        0x0 ../ucosMon_bsp//libucosii_bsp.a(alt_icache_flush.o)
 .bss           0x0041d6c4        0x0 /CMC/tools/altera/13.1/nios2eds/bin/gnu/H-i686-pc-linux-gnu/bin/../lib/gcc/nios2-elf/4.7.3/../../../../../H-i686-pc-linux-gnu/nios2-elf/lib/mno-hw-mul/libc.a(lib_a-atexit.o)
 .bss           0x0041d6c4        0x0 /CMC/tools/altera/13.1/nios2eds/bin/gnu/H-i686-pc-linux-gnu/bin/../lib/gcc/nios2-elf/4.7.3/../../../../../H-i686-pc-linux-gnu/nios2-elf/lib/mno-hw-mul/libc.a(lib_a-memcmp.o)
 .bss           0x0041d6c4        0x0 /CMC/tools/altera/13.1/nios2eds/bin/gnu/H-i686-pc-linux-gnu/bin/../lib/gcc/nios2-elf/4.7.3/../../../../../H-i686-pc-linux-gnu/nios2-elf/lib/mno-hw-mul/libc.a(lib_a-strncmp.o)
 .bss           0x0041d6c4        0x0 /CMC/tools/altera/13.1/nios2eds/bin/gnu/H-i686-pc-linux-gnu/bin/../lib/gcc/nios2-elf/4.7.3/../../../../../H-i686-pc-linux-gnu/nios2-elf/lib/mno-hw-mul/libc.a(lib_a-__atexit.o)
 .bss           0x0041d6c4        0x0 /CMC/tools/altera/13.1/nios2eds/bin/gnu/H-i686-pc-linux-gnu/bin/../lib/gcc/nios2-elf/4.7.3/mno-hw-mul/libgcc.a(_fixunsdfsi.o)
 *(COMMON)
 COMMON         0x0041d6c4       0x28 obj/default/Monitor.o
                0x0041d6c4                endstate
 COMMON         0x0041d6ec      0x100 ../ucosMon_bsp//libucosii_bsp.a(alt_irq_handler.o)
                0x0041d6ec                alt_irq
 COMMON         0x0041d7ec     0x3224 ../ucosMon_bsp//libucosii_bsp.a(os_core.o)
                0x0041d7ec                OSFlagTbl
                0x0041db5c                OSMemTbl
                0x0041e78c                OSTaskStatStk
                0x0041ef8c                OSQTbl
                0x0041f16c                OSTaskIdleStk
                0x0041f96c                OSEventTbl
                0x004204ac                OSTCBTbl
                0x004209bc                OSTCBPrioTbl
 COMMON         0x00420a10      0x190 /CMC/tools/altera/13.1/nios2eds/bin/gnu/H-i686-pc-linux-gnu/bin/../lib/gcc/nios2-elf/4.7.3/../../../../../H-i686-pc-linux-gnu/nios2-elf/lib/mno-hw-mul/libc.a(lib_a-atexit.o)
                0x00420a10                _atexit0
                0x00420ba0                . = ALIGN (0x4)
                0x00420ba0                __bss_end = ABSOLUTE (.)

.memory_0_onchip_memoryMain
                0x00420ba0        0x0
                0x00420ba0                PROVIDE (_alt_partition_memory_0_onchip_memoryMain_start, ABSOLUTE (.))
 *(.memory_0_onchip_memoryMain .memory_0_onchip_memoryMain. memory_0_onchip_memoryMain.*)
                0x00420ba0                . = ALIGN (0x4)
                0x00420ba0                PROVIDE (_alt_partition_memory_0_onchip_memoryMain_end, ABSOLUTE (.))
                0x00420ba0                _end = ABSOLUTE (.)
                0x00420ba0                end = ABSOLUTE (.)
                0x00420ba0                __alt_stack_base = ABSOLUTE (.)
                0x00420ba0                PROVIDE (_alt_partition_memory_0_onchip_memoryMain_load_addr, LOADADDR (.memory_0_onchip_memoryMain))

.shared_memory  0x02500000        0x0 load address 0x00420ba0
                0x02500000                PROVIDE (_alt_partition_shared_memory_start, ABSOLUTE (.))
 *(.shared_memory .shared_memory. shared_memory.*)
                0x02500000                . = ALIGN (0x4)
                0x02500000                PROVIDE (_alt_partition_shared_memory_end, ABSOLUTE (.))
                0x00420ba0                PROVIDE (_alt_partition_shared_memory_load_addr, LOADADDR (.shared_memory))

.processorM_0_scratchpad
                0x08202400        0x0 load address 0x00420ba0
                0x08202400                PROVIDE (_alt_partition_processorM_0_scratchpad_start, ABSOLUTE (.))
 *(.processorM_0_scratchpad .processorM_0_scratchpad. processorM_0_scratchpad.*)
                0x08202400                . = ALIGN (0x4)
                0x08202400                PROVIDE (_alt_partition_processorM_0_scratchpad_end, ABSOLUTE (.))
                0x00420ba0                PROVIDE (_alt_partition_processorM_0_scratchpad_load_addr, LOADADDR (.processorM_0_scratchpad))

.stab
 *(.stab)

.stabstr
 *(.stabstr)

.stab.excl
 *(.stab.excl)

.stab.exclstr
 *(.stab.exclstr)

.stab.index
 *(.stab.index)

.stab.indexstr
 *(.stab.indexstr)

.comment        0x00000000       0x23
 *(.comment)
 .comment       0x00000000       0x23 obj/default/Monitor.o
                                 0x24 (size before relaxing)
 .comment       0x00000000       0x24 ../critical_library/libcritical_library.a(critical.o)
 .comment       0x00000000       0x24 ../critical_library/libcritical_library.a(fingerprint.o)
 .comment       0x00000000       0x24 /CMC/tools/altera/13.1/nios2eds/bin/gnu/H-i686-pc-linux-gnu/bin/../lib/gcc/nios2-elf/4.7.3/mno-hw-mul/libgcc.a(lib2-mul.o)
 .comment       0x00000000       0x24 /CMC/tools/altera/13.1/nios2eds/bin/gnu/H-i686-pc-linux-gnu/bin/../lib/gcc/nios2-elf/4.7.3/../../../../../H-i686-pc-linux-gnu/nios2-elf/lib/mno-hw-mul/libc.a(lib_a-clock.o)
 .comment       0x00000000       0x24 /CMC/tools/altera/13.1/nios2eds/bin/gnu/H-i686-pc-linux-gnu/bin/../lib/gcc/nios2-elf/4.7.3/../../../../../H-i686-pc-linux-gnu/nios2-elf/lib/mno-hw-mul/libc.a(lib_a-exit.o)
 .comment       0x00000000       0x24 /CMC/tools/altera/13.1/nios2eds/bin/gnu/H-i686-pc-linux-gnu/bin/../lib/gcc/nios2-elf/4.7.3/../../../../../H-i686-pc-linux-gnu/nios2-elf/lib/mno-hw-mul/libc.a(lib_a-impure.o)
 .comment       0x00000000       0x24 /CMC/tools/altera/13.1/nios2eds/bin/gnu/H-i686-pc-linux-gnu/bin/../lib/gcc/nios2-elf/4.7.3/../../../../../H-i686-pc-linux-gnu/nios2-elf/lib/mno-hw-mul/libc.a(lib_a-memcpy.o)
 .comment       0x00000000       0x24 /CMC/tools/altera/13.1/nios2eds/bin/gnu/H-i686-pc-linux-gnu/bin/../lib/gcc/nios2-elf/4.7.3/../../../../../H-i686-pc-linux-gnu/nios2-elf/lib/mno-hw-mul/libc.a(lib_a-printf.o)
 .comment       0x00000000       0x24 /CMC/tools/altera/13.1/nios2eds/bin/gnu/H-i686-pc-linux-gnu/bin/../lib/gcc/nios2-elf/4.7.3/../../../../../H-i686-pc-linux-gnu/nios2-elf/lib/mno-hw-mul/libc.a(lib_a-puts.o)
 .comment       0x00000000       0x24 /CMC/tools/altera/13.1/nios2eds/bin/gnu/H-i686-pc-linux-gnu/bin/../lib/gcc/nios2-elf/4.7.3/../../../../../H-i686-pc-linux-gnu/nios2-elf/lib/mno-hw-mul/libc.a(lib_a-strlen.o)
 .comment       0x00000000       0x24 /CMC/tools/altera/13.1/nios2eds/bin/gnu/H-i686-pc-linux-gnu/bin/../lib/gcc/nios2-elf/4.7.3/../../../../../H-i686-pc-linux-gnu/nios2-elf/lib/mno-hw-mul/libc.a(lib_a-timesr.o)
 .comment       0x00000000       0x24 /CMC/tools/altera/13.1/nios2eds/bin/gnu/H-i686-pc-linux-gnu/bin/../lib/gcc/nios2-elf/4.7.3/../../../../../H-i686-pc-linux-gnu/nios2-elf/lib/mno-hw-mul/libc.a(lib_a-vfprintf.o)
 .comment       0x00000000       0x24 /CMC/tools/altera/13.1/nios2eds/bin/gnu/H-i686-pc-linux-gnu/bin/../lib/gcc/nios2-elf/4.7.3/../../../../../H-i686-pc-linux-gnu/nios2-elf/lib/mno-hw-mul/libc.a(lib_a-wsetup.o)
 .comment       0x00000000       0x24 /CMC/tools/altera/13.1/nios2eds/bin/gnu/H-i686-pc-linux-gnu/bin/../lib/gcc/nios2-elf/4.7.3/../../../../../H-i686-pc-linux-gnu/nios2-elf/lib/mno-hw-mul/libc.a(lib_a-__call_atexit.o)
 .comment       0x00000000       0x24 /CMC/tools/altera/13.1/nios2eds/bin/gnu/H-i686-pc-linux-gnu/bin/../lib/gcc/nios2-elf/4.7.3/../../../../../H-i686-pc-linux-gnu/nios2-elf/lib/mno-hw-mul/libc.a(lib_a-dtoa.o)
 .comment       0x00000000       0x24 /CMC/tools/altera/13.1/nios2eds/bin/gnu/H-i686-pc-linux-gnu/bin/../lib/gcc/nios2-elf/4.7.3/../../../../../H-i686-pc-linux-gnu/nios2-elf/lib/mno-hw-mul/libc.a(lib_a-fflush.o)
 .comment       0x00000000       0x24 /CMC/tools/altera/13.1/nios2eds/bin/gnu/H-i686-pc-linux-gnu/bin/../lib/gcc/nios2-elf/4.7.3/../../../../../H-i686-pc-linux-gnu/nios2-elf/lib/mno-hw-mul/libc.a(lib_a-findfp.o)
 .comment       0x00000000       0x24 /CMC/tools/altera/13.1/nios2eds/bin/gnu/H-i686-pc-linux-gnu/bin/../lib/gcc/nios2-elf/4.7.3/../../../../../H-i686-pc-linux-gnu/nios2-elf/lib/mno-hw-mul/libc.a(lib_a-freer.o)
 .comment       0x00000000       0x24 /CMC/tools/altera/13.1/nios2eds/bin/gnu/H-i686-pc-linux-gnu/bin/../lib/gcc/nios2-elf/4.7.3/../../../../../H-i686-pc-linux-gnu/nios2-elf/lib/mno-hw-mul/libc.a(lib_a-fvwrite.o)
 .comment       0x00000000       0x24 /CMC/tools/altera/13.1/nios2eds/bin/gnu/H-i686-pc-linux-gnu/bin/../lib/gcc/nios2-elf/4.7.3/../../../../../H-i686-pc-linux-gnu/nios2-elf/lib/mno-hw-mul/libc.a(lib_a-fwalk.o)
 .comment       0x00000000       0x24 /CMC/tools/altera/13.1/nios2eds/bin/gnu/H-i686-pc-linux-gnu/bin/../lib/gcc/nios2-elf/4.7.3/../../../../../H-i686-pc-linux-gnu/nios2-elf/lib/mno-hw-mul/libc.a(lib_a-locale.o)
 .comment       0x00000000       0x24 /CMC/tools/altera/13.1/nios2eds/bin/gnu/H-i686-pc-linux-gnu/bin/../lib/gcc/nios2-elf/4.7.3/../../../../../H-i686-pc-linux-gnu/nios2-elf/lib/mno-hw-mul/libc.a(lib_a-makebuf.o)
 .comment       0x00000000       0x24 /CMC/tools/altera/13.1/nios2eds/bin/gnu/H-i686-pc-linux-gnu/bin/../lib/gcc/nios2-elf/4.7.3/../../../../../H-i686-pc-linux-gnu/nios2-elf/lib/mno-hw-mul/libc.a(lib_a-mallocr.o)
 .comment       0x00000000       0x24 /CMC/tools/altera/13.1/nios2eds/bin/gnu/H-i686-pc-linux-gnu/bin/../lib/gcc/nios2-elf/4.7.3/../../../../../H-i686-pc-linux-gnu/nios2-elf/lib/mno-hw-mul/libc.a(lib_a-memchr.o)
 .comment       0x00000000       0x24 /CMC/tools/altera/13.1/nios2eds/bin/gnu/H-i686-pc-linux-gnu/bin/../lib/gcc/nios2-elf/4.7.3/../../../../../H-i686-pc-linux-gnu/nios2-elf/lib/mno-hw-mul/libc.a(lib_a-memmove.o)
 .comment       0x00000000       0x24 /CMC/tools/altera/13.1/nios2eds/bin/gnu/H-i686-pc-linux-gnu/bin/../lib/gcc/nios2-elf/4.7.3/../../../../../H-i686-pc-linux-gnu/nios2-elf/lib/mno-hw-mul/libc.a(lib_a-memset.o)
 .comment       0x00000000       0x24 /CMC/tools/altera/13.1/nios2eds/bin/gnu/H-i686-pc-linux-gnu/bin/../lib/gcc/nios2-elf/4.7.3/../../../../../H-i686-pc-linux-gnu/nios2-elf/lib/mno-hw-mul/libc.a(lib_a-mprec.o)
 .comment       0x00000000       0x24 /CMC/tools/altera/13.1/nios2eds/bin/gnu/H-i686-pc-linux-gnu/bin/../lib/gcc/nios2-elf/4.7.3/../../../../../H-i686-pc-linux-gnu/nios2-elf/lib/mno-hw-mul/libc.a(lib_a-reallocr.o)
 .comment       0x00000000       0x24 /CMC/tools/altera/13.1/nios2eds/bin/gnu/H-i686-pc-linux-gnu/bin/../lib/gcc/nios2-elf/4.7.3/../../../../../H-i686-pc-linux-gnu/nios2-elf/lib/mno-hw-mul/libc.a(lib_a-s_isinfd.o)
 .comment       0x00000000       0x24 /CMC/tools/altera/13.1/nios2eds/bin/gnu/H-i686-pc-linux-gnu/bin/../lib/gcc/nios2-elf/4.7.3/../../../../../H-i686-pc-linux-gnu/nios2-elf/lib/mno-hw-mul/libc.a(lib_a-s_isnand.o)
 .comment       0x00000000       0x24 /CMC/tools/altera/13.1/nios2eds/bin/gnu/H-i686-pc-linux-gnu/bin/../lib/gcc/nios2-elf/4.7.3/../../../../../H-i686-pc-linux-gnu/nios2-elf/lib/mno-hw-mul/libc.a(lib_a-sbrkr.o)
 .comment       0x00000000       0x24 /CMC/tools/altera/13.1/nios2eds/bin/gnu/H-i686-pc-linux-gnu/bin/../lib/gcc/nios2-elf/4.7.3/../../../../../H-i686-pc-linux-gnu/nios2-elf/lib/mno-hw-mul/libc.a(lib_a-stdio.o)
 .comment       0x00000000       0x24 /CMC/tools/altera/13.1/nios2eds/bin/gnu/H-i686-pc-linux-gnu/bin/../lib/gcc/nios2-elf/4.7.3/../../../../../H-i686-pc-linux-gnu/nios2-elf/lib/mno-hw-mul/libc.a(lib_a-strcmp.o)
 .comment       0x00000000       0x24 /CMC/tools/altera/13.1/nios2eds/bin/gnu/H-i686-pc-linux-gnu/bin/../lib/gcc/nios2-elf/4.7.3/../../../../../H-i686-pc-linux-gnu/nios2-elf/lib/mno-hw-mul/libc.a(lib_a-writer.o)
 .comment       0x00000000       0x24 /CMC/tools/altera/13.1/nios2eds/bin/gnu/H-i686-pc-linux-gnu/bin/../lib/gcc/nios2-elf/4.7.3/../../../../../H-i686-pc-linux-gnu/nios2-elf/lib/mno-hw-mul/libc.a(lib_a-callocr.o)
 .comment       0x00000000       0x24 /CMC/tools/altera/13.1/nios2eds/bin/gnu/H-i686-pc-linux-gnu/bin/../lib/gcc/nios2-elf/4.7.3/../../../../../H-i686-pc-linux-gnu/nios2-elf/lib/mno-hw-mul/libc.a(lib_a-closer.o)
 .comment       0x00000000       0x24 /CMC/tools/altera/13.1/nios2eds/bin/gnu/H-i686-pc-linux-gnu/bin/../lib/gcc/nios2-elf/4.7.3/../../../../../H-i686-pc-linux-gnu/nios2-elf/lib/mno-hw-mul/libc.a(lib_a-fclose.o)
 .comment       0x00000000       0x24 /CMC/tools/altera/13.1/nios2eds/bin/gnu/H-i686-pc-linux-gnu/bin/../lib/gcc/nios2-elf/4.7.3/../../../../../H-i686-pc-linux-gnu/nios2-elf/lib/mno-hw-mul/libc.a(lib_a-fstatr.o)
 .comment       0x00000000       0x24 /CMC/tools/altera/13.1/nios2eds/bin/gnu/H-i686-pc-linux-gnu/bin/../lib/gcc/nios2-elf/4.7.3/../../../../../H-i686-pc-linux-gnu/nios2-elf/lib/mno-hw-mul/libc.a(lib_a-int_errno.o)
 .comment       0x00000000       0x24 /CMC/tools/altera/13.1/nios2eds/bin/gnu/H-i686-pc-linux-gnu/bin/../lib/gcc/nios2-elf/4.7.3/../../../../../H-i686-pc-linux-gnu/nios2-elf/lib/mno-hw-mul/libc.a(lib_a-isattyr.o)
 .comment       0x00000000       0x24 /CMC/tools/altera/13.1/nios2eds/bin/gnu/H-i686-pc-linux-gnu/bin/../lib/gcc/nios2-elf/4.7.3/../../../../../H-i686-pc-linux-gnu/nios2-elf/lib/mno-hw-mul/libc.a(lib_a-lseekr.o)
 .comment       0x00000000       0x24 /CMC/tools/altera/13.1/nios2eds/bin/gnu/H-i686-pc-linux-gnu/bin/../lib/gcc/nios2-elf/4.7.3/../../../../../H-i686-pc-linux-gnu/nios2-elf/lib/mno-hw-mul/libc.a(lib_a-readr.o)
 .comment       0x00000000       0x24 /CMC/tools/altera/13.1/nios2eds/bin/gnu/H-i686-pc-linux-gnu/bin/../lib/gcc/nios2-elf/4.7.3/mno-hw-mul/libgcc.a(_udivdi3.o)
 .comment       0x00000000       0x24 /CMC/tools/altera/13.1/nios2eds/bin/gnu/H-i686-pc-linux-gnu/bin/../lib/gcc/nios2-elf/4.7.3/mno-hw-mul/libgcc.a(_umoddi3.o)
 .comment       0x00000000       0x24 /CMC/tools/altera/13.1/nios2eds/bin/gnu/H-i686-pc-linux-gnu/bin/../lib/gcc/nios2-elf/4.7.3/mno-hw-mul/libgcc.a(_addsub_df.o)
 .comment       0x00000000       0x24 /CMC/tools/altera/13.1/nios2eds/bin/gnu/H-i686-pc-linux-gnu/bin/../lib/gcc/nios2-elf/4.7.3/mno-hw-mul/libgcc.a(_mul_df.o)
 .comment       0x00000000       0x24 /CMC/tools/altera/13.1/nios2eds/bin/gnu/H-i686-pc-linux-gnu/bin/../lib/gcc/nios2-elf/4.7.3/mno-hw-mul/libgcc.a(_div_df.o)
 .comment       0x00000000       0x24 /CMC/tools/altera/13.1/nios2eds/bin/gnu/H-i686-pc-linux-gnu/bin/../lib/gcc/nios2-elf/4.7.3/mno-hw-mul/libgcc.a(_eq_df.o)
 .comment       0x00000000       0x24 /CMC/tools/altera/13.1/nios2eds/bin/gnu/H-i686-pc-linux-gnu/bin/../lib/gcc/nios2-elf/4.7.3/mno-hw-mul/libgcc.a(_ne_df.o)
 .comment       0x00000000       0x24 /CMC/tools/altera/13.1/nios2eds/bin/gnu/H-i686-pc-linux-gnu/bin/../lib/gcc/nios2-elf/4.7.3/mno-hw-mul/libgcc.a(_gt_df.o)
 .comment       0x00000000       0x24 /CMC/tools/altera/13.1/nios2eds/bin/gnu/H-i686-pc-linux-gnu/bin/../lib/gcc/nios2-elf/4.7.3/mno-hw-mul/libgcc.a(_ge_df.o)
 .comment       0x00000000       0x24 /CMC/tools/altera/13.1/nios2eds/bin/gnu/H-i686-pc-linux-gnu/bin/../lib/gcc/nios2-elf/4.7.3/mno-hw-mul/libgcc.a(_lt_df.o)
 .comment       0x00000000       0x24 /CMC/tools/altera/13.1/nios2eds/bin/gnu/H-i686-pc-linux-gnu/bin/../lib/gcc/nios2-elf/4.7.3/mno-hw-mul/libgcc.a(_si_to_df.o)
 .comment       0x00000000       0x24 /CMC/tools/altera/13.1/nios2eds/bin/gnu/H-i686-pc-linux-gnu/bin/../lib/gcc/nios2-elf/4.7.3/mno-hw-mul/libgcc.a(_df_to_si.o)
 .comment       0x00000000       0x24 /CMC/tools/altera/13.1/nios2eds/bin/gnu/H-i686-pc-linux-gnu/bin/../lib/gcc/nios2-elf/4.7.3/mno-hw-mul/libgcc.a(_thenan_df.o)
 .comment       0x00000000       0x24 /CMC/tools/altera/13.1/nios2eds/bin/gnu/H-i686-pc-linux-gnu/bin/../lib/gcc/nios2-elf/4.7.3/mno-hw-mul/libgcc.a(_usi_to_df.o)
 .comment       0x00000000       0x24 /CMC/tools/altera/13.1/nios2eds/bin/gnu/H-i686-pc-linux-gnu/bin/../lib/gcc/nios2-elf/4.7.3/mno-hw-mul/libgcc.a(lib2-divmod.o)
 .comment       0x00000000       0x24 /CMC/tools/altera/13.1/nios2eds/bin/gnu/H-i686-pc-linux-gnu/bin/../lib/gcc/nios2-elf/4.7.3/mno-hw-mul/libgcc.a(_muldi3.o)
 .comment       0x00000000       0x24 /CMC/tools/altera/13.1/nios2eds/bin/gnu/H-i686-pc-linux-gnu/bin/../lib/gcc/nios2-elf/4.7.3/mno-hw-mul/libgcc.a(_clz.o)
 .comment       0x00000000       0x24 /CMC/tools/altera/13.1/nios2eds/bin/gnu/H-i686-pc-linux-gnu/bin/../lib/gcc/nios2-elf/4.7.3/mno-hw-mul/libgcc.a(_clzsi2.o)
 .comment       0x00000000       0x24 /CMC/tools/altera/13.1/nios2eds/bin/gnu/H-i686-pc-linux-gnu/bin/../lib/gcc/nios2-elf/4.7.3/mno-hw-mul/libgcc.a(_pack_df.o)
 .comment       0x00000000       0x24 /CMC/tools/altera/13.1/nios2eds/bin/gnu/H-i686-pc-linux-gnu/bin/../lib/gcc/nios2-elf/4.7.3/mno-hw-mul/libgcc.a(_unpack_df.o)
 .comment       0x00000000       0x24 /CMC/tools/altera/13.1/nios2eds/bin/gnu/H-i686-pc-linux-gnu/bin/../lib/gcc/nios2-elf/4.7.3/mno-hw-mul/libgcc.a(_fpcmp_parts_df.o)
 .comment       0x00000000       0x24 /CMC/tools/altera/13.1/nios2eds/bin/gnu/H-i686-pc-linux-gnu/bin/../lib/gcc/nios2-elf/4.7.3/mno-hw-mul/libgcc.a(_lshrdi3.o)
 .comment       0x00000000       0x24 /CMC/tools/altera/13.1/nios2eds/bin/gnu/H-i686-pc-linux-gnu/bin/../lib/gcc/nios2-elf/4.7.3/mno-hw-mul/libgcc.a(_ashldi3.o)
 .comment       0x00000000       0x24 ../ucosMon_bsp//libucosii_bsp.a(alt_close.o)
 .comment       0x00000000       0x24 ../ucosMon_bsp//libucosii_bsp.a(alt_dev.o)
 .comment       0x00000000       0x24 ../ucosMon_bsp//libucosii_bsp.a(alt_dma_rxchan_open.o)
 .comment       0x00000000       0x24 ../ucosMon_bsp//libucosii_bsp.a(alt_dma_txchan_open.o)
 .comment       0x00000000       0x24 ../ucosMon_bsp//libucosii_bsp.a(alt_errno.o)
 .comment       0x00000000       0x24 ../ucosMon_bsp//libucosii_bsp.a(alt_exit.o)
 .comment       0x00000000       0x24 ../ucosMon_bsp//libucosii_bsp.a(alt_find_dev.o)
 .comment       0x00000000       0x24 ../ucosMon_bsp//libucosii_bsp.a(alt_fstat.o)
 .comment       0x00000000       0x24 ../ucosMon_bsp//libucosii_bsp.a(alt_iic.o)
 .comment       0x00000000       0x24 ../ucosMon_bsp//libucosii_bsp.a(alt_iic_isr_register.o)
 .comment       0x00000000       0x24 ../ucosMon_bsp//libucosii_bsp.a(alt_irq_handler.o)
 .comment       0x00000000       0x24 ../ucosMon_bsp//libucosii_bsp.a(alt_irq_vars.o)
 .comment       0x00000000       0x24 ../ucosMon_bsp//libucosii_bsp.a(alt_isatty.o)
 .comment       0x00000000       0x24 ../ucosMon_bsp//libucosii_bsp.a(alt_load.o)
 .comment       0x00000000       0x24 ../ucosMon_bsp//libucosii_bsp.a(alt_lseek.o)
 .comment       0x00000000       0x24 ../ucosMon_bsp//libucosii_bsp.a(alt_main.o)
 .comment       0x00000000       0x24 ../ucosMon_bsp//libucosii_bsp.a(alt_read.o)
 .comment       0x00000000       0x24 ../ucosMon_bsp//libucosii_bsp.a(alt_release_fd.o)
 .comment       0x00000000       0x24 ../ucosMon_bsp//libucosii_bsp.a(alt_sbrk.o)
 .comment       0x00000000       0x24 ../ucosMon_bsp//libucosii_bsp.a(alt_times.o)
 .comment       0x00000000       0x24 ../ucosMon_bsp//libucosii_bsp.a(alt_write.o)
 .comment       0x00000000       0x24 ../ucosMon_bsp//libucosii_bsp.a(alt_env_lock.o)
 .comment       0x00000000       0x24 ../ucosMon_bsp//libucosii_bsp.a(alt_malloc_lock.o)
 .comment       0x00000000       0x24 ../ucosMon_bsp//libucosii_bsp.a(os_core.o)
 .comment       0x00000000       0x24 ../ucosMon_bsp//libucosii_bsp.a(os_dbg.o)
 .comment       0x00000000       0x24 ../ucosMon_bsp//libucosii_bsp.a(os_flag.o)
 .comment       0x00000000       0x24 ../ucosMon_bsp//libucosii_bsp.a(os_mem.o)
 .comment       0x00000000       0x24 ../ucosMon_bsp//libucosii_bsp.a(os_q.o)
 .comment       0x00000000       0x24 ../ucosMon_bsp//libucosii_bsp.a(os_sem.o)
 .comment       0x00000000       0x24 ../ucosMon_bsp//libucosii_bsp.a(os_task.o)
 .comment       0x00000000       0x24 ../ucosMon_bsp//libucosii_bsp.a(os_time.o)
 .comment       0x00000000       0x24 ../ucosMon_bsp//libucosii_bsp.a(alt_sys_init.o)
 .comment       0x00000000       0x24 ../ucosMon_bsp//libucosii_bsp.a(altera_avalon_dma.o)
 .comment       0x00000000       0x24 ../ucosMon_bsp//libucosii_bsp.a(altera_avalon_jtag_uart_fd.o)
 .comment       0x00000000       0x24 ../ucosMon_bsp//libucosii_bsp.a(altera_avalon_jtag_uart_init.o)
 .comment       0x00000000       0x24 ../ucosMon_bsp//libucosii_bsp.a(altera_avalon_jtag_uart_ioctl.o)
 .comment       0x00000000       0x24 ../ucosMon_bsp//libucosii_bsp.a(altera_avalon_jtag_uart_read.o)
 .comment       0x00000000       0x24 ../ucosMon_bsp//libucosii_bsp.a(altera_avalon_jtag_uart_write.o)
 .comment       0x00000000       0x24 ../ucosMon_bsp//libucosii_bsp.a(altera_avalon_mutex.o)
 .comment       0x00000000       0x24 ../ucosMon_bsp//libucosii_bsp.a(altera_avalon_timer_sc.o)
 .comment       0x00000000       0x24 ../ucosMon_bsp//libucosii_bsp.a(altera_avalon_timer_vars.o)
 .comment       0x00000000       0x24 ../ucosMon_bsp//libucosii_bsp.a(altera_ro_zipfs.o)
 .comment       0x00000000       0x24 ../ucosMon_bsp//libucosii_bsp.a(alt_alarm_start.o)
 .comment       0x00000000       0x24 ../ucosMon_bsp//libucosii_bsp.a(alt_dcache_flush_all.o)
 .comment       0x00000000       0x24 ../ucosMon_bsp//libucosii_bsp.a(alt_dev_llist_insert.o)
 .comment       0x00000000       0x24 ../ucosMon_bsp//libucosii_bsp.a(alt_do_ctors.o)
 .comment       0x00000000       0x24 ../ucosMon_bsp//libucosii_bsp.a(alt_do_dtors.o)
 .comment       0x00000000       0x24 ../ucosMon_bsp//libucosii_bsp.a(alt_fs_reg.o)
 .comment       0x00000000       0x24 ../ucosMon_bsp//libucosii_bsp.a(alt_icache_flush_all.o)
 .comment       0x00000000       0x24 ../ucosMon_bsp//libucosii_bsp.a(alt_io_redirect.o)
 .comment       0x00000000       0x24 ../ucosMon_bsp//libucosii_bsp.a(alt_open.o)
 .comment       0x00000000       0x24 ../ucosMon_bsp//libucosii_bsp.a(alt_tick.o)
 .comment       0x00000000       0x24 ../ucosMon_bsp//libucosii_bsp.a(altera_nios2_qsys_irq.o)
 .comment       0x00000000       0x24 ../ucosMon_bsp//libucosii_bsp.a(os_cpu_c.o)
 .comment       0x00000000       0x24 ../ucosMon_bsp//libucosii_bsp.a(alt_find_file.o)
 .comment       0x00000000       0x24 ../ucosMon_bsp//libucosii_bsp.a(alt_get_fd.o)
 .comment       0x00000000       0x24 ../ucosMon_bsp//libucosii_bsp.a(alt_icache_flush.o)
 .comment       0x00000000       0x24 /CMC/tools/altera/13.1/nios2eds/bin/gnu/H-i686-pc-linux-gnu/bin/../lib/gcc/nios2-elf/4.7.3/../../../../../H-i686-pc-linux-gnu/nios2-elf/lib/mno-hw-mul/libc.a(lib_a-atexit.o)
 .comment       0x00000000       0x24 /CMC/tools/altera/13.1/nios2eds/bin/gnu/H-i686-pc-linux-gnu/bin/../lib/gcc/nios2-elf/4.7.3/../../../../../H-i686-pc-linux-gnu/nios2-elf/lib/mno-hw-mul/libc.a(lib_a-memcmp.o)
 .comment       0x00000000       0x24 /CMC/tools/altera/13.1/nios2eds/bin/gnu/H-i686-pc-linux-gnu/bin/../lib/gcc/nios2-elf/4.7.3/../../../../../H-i686-pc-linux-gnu/nios2-elf/lib/mno-hw-mul/libc.a(lib_a-strncmp.o)
 .comment       0x00000000       0x24 /CMC/tools/altera/13.1/nios2eds/bin/gnu/H-i686-pc-linux-gnu/bin/../lib/gcc/nios2-elf/4.7.3/../../../../../H-i686-pc-linux-gnu/nios2-elf/lib/mno-hw-mul/libc.a(lib_a-__atexit.o)
 .comment       0x00000000       0x24 /CMC/tools/altera/13.1/nios2eds/bin/gnu/H-i686-pc-linux-gnu/bin/../lib/gcc/nios2-elf/4.7.3/mno-hw-mul/libgcc.a(_fixunsdfsi.o)

.debug
 *(.debug)

.line
 *(.line)

.debug_srcinfo
 *(.debug_srcinfo)

.debug_sfnames
 *(.debug_sfnames)

.debug_aranges  0x00000000     0x1098
 *(.debug_aranges)
 .debug_aranges
                0x00000000       0x28 ../ucosMon_bsp//obj/HAL/src/crt0.o
 .debug_aranges
                0x00000028       0x20 obj/default/Monitor.o
 .debug_aranges
                0x00000048       0x20 obj/default/gp.o
 .debug_aranges
                0x00000068       0x20 ../critical_library/libcritical_library.a(critical.o)
 .debug_aranges
                0x00000088       0x20 ../critical_library/libcritical_library.a(fingerprint.o)
 .debug_aranges
                0x000000a8       0x20 /CMC/tools/altera/13.1/nios2eds/bin/gnu/H-i686-pc-linux-gnu/bin/../lib/gcc/nios2-elf/4.7.3/mno-hw-mul/libgcc.a(lib2-mul.o)
 .debug_aranges
                0x000000c8       0x20 /CMC/tools/altera/13.1/nios2eds/bin/gnu/H-i686-pc-linux-gnu/bin/../lib/gcc/nios2-elf/4.7.3/../../../../../H-i686-pc-linux-gnu/nios2-elf/lib/mno-hw-mul/libc.a(lib_a-clock.o)
 .debug_aranges
                0x000000e8       0x20 /CMC/tools/altera/13.1/nios2eds/bin/gnu/H-i686-pc-linux-gnu/bin/../lib/gcc/nios2-elf/4.7.3/../../../../../H-i686-pc-linux-gnu/nios2-elf/lib/mno-hw-mul/libc.a(lib_a-exit.o)
 .debug_aranges
                0x00000108       0x18 /CMC/tools/altera/13.1/nios2eds/bin/gnu/H-i686-pc-linux-gnu/bin/../lib/gcc/nios2-elf/4.7.3/../../../../../H-i686-pc-linux-gnu/nios2-elf/lib/mno-hw-mul/libc.a(lib_a-impure.o)
 .debug_aranges
                0x00000120       0x20 /CMC/tools/altera/13.1/nios2eds/bin/gnu/H-i686-pc-linux-gnu/bin/../lib/gcc/nios2-elf/4.7.3/../../../../../H-i686-pc-linux-gnu/nios2-elf/lib/mno-hw-mul/libc.a(lib_a-memcpy.o)
 .debug_aranges
                0x00000140       0x20 /CMC/tools/altera/13.1/nios2eds/bin/gnu/H-i686-pc-linux-gnu/bin/../lib/gcc/nios2-elf/4.7.3/../../../../../H-i686-pc-linux-gnu/nios2-elf/lib/mno-hw-mul/libc.a(lib_a-printf.o)
 .debug_aranges
                0x00000160       0x20 /CMC/tools/altera/13.1/nios2eds/bin/gnu/H-i686-pc-linux-gnu/bin/../lib/gcc/nios2-elf/4.7.3/../../../../../H-i686-pc-linux-gnu/nios2-elf/lib/mno-hw-mul/libc.a(lib_a-puts.o)
 .debug_aranges
                0x00000180       0x20 /CMC/tools/altera/13.1/nios2eds/bin/gnu/H-i686-pc-linux-gnu/bin/../lib/gcc/nios2-elf/4.7.3/../../../../../H-i686-pc-linux-gnu/nios2-elf/lib/mno-hw-mul/libc.a(lib_a-strlen.o)
 .debug_aranges
                0x000001a0       0x20 /CMC/tools/altera/13.1/nios2eds/bin/gnu/H-i686-pc-linux-gnu/bin/../lib/gcc/nios2-elf/4.7.3/../../../../../H-i686-pc-linux-gnu/nios2-elf/lib/mno-hw-mul/libc.a(lib_a-timesr.o)
 .debug_aranges
                0x000001c0       0x20 /CMC/tools/altera/13.1/nios2eds/bin/gnu/H-i686-pc-linux-gnu/bin/../lib/gcc/nios2-elf/4.7.3/../../../../../H-i686-pc-linux-gnu/nios2-elf/lib/mno-hw-mul/libc.a(lib_a-vfprintf.o)
 .debug_aranges
                0x000001e0       0x20 /CMC/tools/altera/13.1/nios2eds/bin/gnu/H-i686-pc-linux-gnu/bin/../lib/gcc/nios2-elf/4.7.3/../../../../../H-i686-pc-linux-gnu/nios2-elf/lib/mno-hw-mul/libc.a(lib_a-wsetup.o)
 .debug_aranges
                0x00000200       0x20 /CMC/tools/altera/13.1/nios2eds/bin/gnu/H-i686-pc-linux-gnu/bin/../lib/gcc/nios2-elf/4.7.3/../../../../../H-i686-pc-linux-gnu/nios2-elf/lib/mno-hw-mul/libc.a(lib_a-__call_atexit.o)
 .debug_aranges
                0x00000220       0x20 /CMC/tools/altera/13.1/nios2eds/bin/gnu/H-i686-pc-linux-gnu/bin/../lib/gcc/nios2-elf/4.7.3/../../../../../H-i686-pc-linux-gnu/nios2-elf/lib/mno-hw-mul/libc.a(lib_a-dtoa.o)
 .debug_aranges
                0x00000240       0x20 /CMC/tools/altera/13.1/nios2eds/bin/gnu/H-i686-pc-linux-gnu/bin/../lib/gcc/nios2-elf/4.7.3/../../../../../H-i686-pc-linux-gnu/nios2-elf/lib/mno-hw-mul/libc.a(lib_a-fflush.o)
 .debug_aranges
                0x00000260       0x20 /CMC/tools/altera/13.1/nios2eds/bin/gnu/H-i686-pc-linux-gnu/bin/../lib/gcc/nios2-elf/4.7.3/../../../../../H-i686-pc-linux-gnu/nios2-elf/lib/mno-hw-mul/libc.a(lib_a-findfp.o)
 .debug_aranges
                0x00000280       0x20 /CMC/tools/altera/13.1/nios2eds/bin/gnu/H-i686-pc-linux-gnu/bin/../lib/gcc/nios2-elf/4.7.3/../../../../../H-i686-pc-linux-gnu/nios2-elf/lib/mno-hw-mul/libc.a(lib_a-freer.o)
 .debug_aranges
                0x000002a0       0x20 /CMC/tools/altera/13.1/nios2eds/bin/gnu/H-i686-pc-linux-gnu/bin/../lib/gcc/nios2-elf/4.7.3/../../../../../H-i686-pc-linux-gnu/nios2-elf/lib/mno-hw-mul/libc.a(lib_a-fvwrite.o)
 .debug_aranges
                0x000002c0       0x20 /CMC/tools/altera/13.1/nios2eds/bin/gnu/H-i686-pc-linux-gnu/bin/../lib/gcc/nios2-elf/4.7.3/../../../../../H-i686-pc-linux-gnu/nios2-elf/lib/mno-hw-mul/libc.a(lib_a-fwalk.o)
 .debug_aranges
                0x000002e0       0x20 /CMC/tools/altera/13.1/nios2eds/bin/gnu/H-i686-pc-linux-gnu/bin/../lib/gcc/nios2-elf/4.7.3/../../../../../H-i686-pc-linux-gnu/nios2-elf/lib/mno-hw-mul/libc.a(lib_a-locale.o)
 .debug_aranges
                0x00000300       0x20 /CMC/tools/altera/13.1/nios2eds/bin/gnu/H-i686-pc-linux-gnu/bin/../lib/gcc/nios2-elf/4.7.3/../../../../../H-i686-pc-linux-gnu/nios2-elf/lib/mno-hw-mul/libc.a(lib_a-makebuf.o)
 .debug_aranges
                0x00000320       0x20 /CMC/tools/altera/13.1/nios2eds/bin/gnu/H-i686-pc-linux-gnu/bin/../lib/gcc/nios2-elf/4.7.3/../../../../../H-i686-pc-linux-gnu/nios2-elf/lib/mno-hw-mul/libc.a(lib_a-mallocr.o)
 .debug_aranges
                0x00000340       0x20 /CMC/tools/altera/13.1/nios2eds/bin/gnu/H-i686-pc-linux-gnu/bin/../lib/gcc/nios2-elf/4.7.3/../../../../../H-i686-pc-linux-gnu/nios2-elf/lib/mno-hw-mul/libc.a(lib_a-memchr.o)
 .debug_aranges
                0x00000360       0x20 /CMC/tools/altera/13.1/nios2eds/bin/gnu/H-i686-pc-linux-gnu/bin/../lib/gcc/nios2-elf/4.7.3/../../../../../H-i686-pc-linux-gnu/nios2-elf/lib/mno-hw-mul/libc.a(lib_a-memmove.o)
 .debug_aranges
                0x00000380       0x20 /CMC/tools/altera/13.1/nios2eds/bin/gnu/H-i686-pc-linux-gnu/bin/../lib/gcc/nios2-elf/4.7.3/../../../../../H-i686-pc-linux-gnu/nios2-elf/lib/mno-hw-mul/libc.a(lib_a-memset.o)
 .debug_aranges
                0x000003a0       0x20 /CMC/tools/altera/13.1/nios2eds/bin/gnu/H-i686-pc-linux-gnu/bin/../lib/gcc/nios2-elf/4.7.3/../../../../../H-i686-pc-linux-gnu/nios2-elf/lib/mno-hw-mul/libc.a(lib_a-mprec.o)
 .debug_aranges
                0x000003c0       0x20 /CMC/tools/altera/13.1/nios2eds/bin/gnu/H-i686-pc-linux-gnu/bin/../lib/gcc/nios2-elf/4.7.3/../../../../../H-i686-pc-linux-gnu/nios2-elf/lib/mno-hw-mul/libc.a(lib_a-reallocr.o)
 .debug_aranges
                0x000003e0       0x20 /CMC/tools/altera/13.1/nios2eds/bin/gnu/H-i686-pc-linux-gnu/bin/../lib/gcc/nios2-elf/4.7.3/../../../../../H-i686-pc-linux-gnu/nios2-elf/lib/mno-hw-mul/libc.a(lib_a-s_isinfd.o)
 .debug_aranges
                0x00000400       0x20 /CMC/tools/altera/13.1/nios2eds/bin/gnu/H-i686-pc-linux-gnu/bin/../lib/gcc/nios2-elf/4.7.3/../../../../../H-i686-pc-linux-gnu/nios2-elf/lib/mno-hw-mul/libc.a(lib_a-s_isnand.o)
 .debug_aranges
                0x00000420       0x20 /CMC/tools/altera/13.1/nios2eds/bin/gnu/H-i686-pc-linux-gnu/bin/../lib/gcc/nios2-elf/4.7.3/../../../../../H-i686-pc-linux-gnu/nios2-elf/lib/mno-hw-mul/libc.a(lib_a-sbrkr.o)
 .debug_aranges
                0x00000440       0x20 /CMC/tools/altera/13.1/nios2eds/bin/gnu/H-i686-pc-linux-gnu/bin/../lib/gcc/nios2-elf/4.7.3/../../../../../H-i686-pc-linux-gnu/nios2-elf/lib/mno-hw-mul/libc.a(lib_a-stdio.o)
 .debug_aranges
                0x00000460       0x20 /CMC/tools/altera/13.1/nios2eds/bin/gnu/H-i686-pc-linux-gnu/bin/../lib/gcc/nios2-elf/4.7.3/../../../../../H-i686-pc-linux-gnu/nios2-elf/lib/mno-hw-mul/libc.a(lib_a-strcmp.o)
 .debug_aranges
                0x00000480       0x20 /CMC/tools/altera/13.1/nios2eds/bin/gnu/H-i686-pc-linux-gnu/bin/../lib/gcc/nios2-elf/4.7.3/../../../../../H-i686-pc-linux-gnu/nios2-elf/lib/mno-hw-mul/libc.a(lib_a-writer.o)
 .debug_aranges
                0x000004a0       0x20 /CMC/tools/altera/13.1/nios2eds/bin/gnu/H-i686-pc-linux-gnu/bin/../lib/gcc/nios2-elf/4.7.3/../../../../../H-i686-pc-linux-gnu/nios2-elf/lib/mno-hw-mul/libc.a(lib_a-callocr.o)
 .debug_aranges
                0x000004c0       0x20 /CMC/tools/altera/13.1/nios2eds/bin/gnu/H-i686-pc-linux-gnu/bin/../lib/gcc/nios2-elf/4.7.3/../../../../../H-i686-pc-linux-gnu/nios2-elf/lib/mno-hw-mul/libc.a(lib_a-closer.o)
 .debug_aranges
                0x000004e0       0x20 /CMC/tools/altera/13.1/nios2eds/bin/gnu/H-i686-pc-linux-gnu/bin/../lib/gcc/nios2-elf/4.7.3/../../../../../H-i686-pc-linux-gnu/nios2-elf/lib/mno-hw-mul/libc.a(lib_a-fclose.o)
 .debug_aranges
                0x00000500       0x20 /CMC/tools/altera/13.1/nios2eds/bin/gnu/H-i686-pc-linux-gnu/bin/../lib/gcc/nios2-elf/4.7.3/../../../../../H-i686-pc-linux-gnu/nios2-elf/lib/mno-hw-mul/libc.a(lib_a-fstatr.o)
 .debug_aranges
                0x00000520       0x18 /CMC/tools/altera/13.1/nios2eds/bin/gnu/H-i686-pc-linux-gnu/bin/../lib/gcc/nios2-elf/4.7.3/../../../../../H-i686-pc-linux-gnu/nios2-elf/lib/mno-hw-mul/libc.a(lib_a-int_errno.o)
 .debug_aranges
                0x00000538       0x20 /CMC/tools/altera/13.1/nios2eds/bin/gnu/H-i686-pc-linux-gnu/bin/../lib/gcc/nios2-elf/4.7.3/../../../../../H-i686-pc-linux-gnu/nios2-elf/lib/mno-hw-mul/libc.a(lib_a-isattyr.o)
 .debug_aranges
                0x00000558       0x20 /CMC/tools/altera/13.1/nios2eds/bin/gnu/H-i686-pc-linux-gnu/bin/../lib/gcc/nios2-elf/4.7.3/../../../../../H-i686-pc-linux-gnu/nios2-elf/lib/mno-hw-mul/libc.a(lib_a-lseekr.o)
 .debug_aranges
                0x00000578       0x20 /CMC/tools/altera/13.1/nios2eds/bin/gnu/H-i686-pc-linux-gnu/bin/../lib/gcc/nios2-elf/4.7.3/../../../../../H-i686-pc-linux-gnu/nios2-elf/lib/mno-hw-mul/libc.a(lib_a-readr.o)
 .debug_aranges
                0x00000598       0x20 /CMC/tools/altera/13.1/nios2eds/bin/gnu/H-i686-pc-linux-gnu/bin/../lib/gcc/nios2-elf/4.7.3/mno-hw-mul/libgcc.a(_udivdi3.o)
 .debug_aranges
                0x000005b8       0x20 /CMC/tools/altera/13.1/nios2eds/bin/gnu/H-i686-pc-linux-gnu/bin/../lib/gcc/nios2-elf/4.7.3/mno-hw-mul/libgcc.a(_umoddi3.o)
 .debug_aranges
                0x000005d8       0x20 /CMC/tools/altera/13.1/nios2eds/bin/gnu/H-i686-pc-linux-gnu/bin/../lib/gcc/nios2-elf/4.7.3/mno-hw-mul/libgcc.a(_addsub_df.o)
 .debug_aranges
                0x000005f8       0x20 /CMC/tools/altera/13.1/nios2eds/bin/gnu/H-i686-pc-linux-gnu/bin/../lib/gcc/nios2-elf/4.7.3/mno-hw-mul/libgcc.a(_mul_df.o)
 .debug_aranges
                0x00000618       0x20 /CMC/tools/altera/13.1/nios2eds/bin/gnu/H-i686-pc-linux-gnu/bin/../lib/gcc/nios2-elf/4.7.3/mno-hw-mul/libgcc.a(_div_df.o)
 .debug_aranges
                0x00000638       0x20 /CMC/tools/altera/13.1/nios2eds/bin/gnu/H-i686-pc-linux-gnu/bin/../lib/gcc/nios2-elf/4.7.3/mno-hw-mul/libgcc.a(_eq_df.o)
 .debug_aranges
                0x00000658       0x20 /CMC/tools/altera/13.1/nios2eds/bin/gnu/H-i686-pc-linux-gnu/bin/../lib/gcc/nios2-elf/4.7.3/mno-hw-mul/libgcc.a(_ne_df.o)
 .debug_aranges
                0x00000678       0x20 /CMC/tools/altera/13.1/nios2eds/bin/gnu/H-i686-pc-linux-gnu/bin/../lib/gcc/nios2-elf/4.7.3/mno-hw-mul/libgcc.a(_gt_df.o)
 .debug_aranges
                0x00000698       0x20 /CMC/tools/altera/13.1/nios2eds/bin/gnu/H-i686-pc-linux-gnu/bin/../lib/gcc/nios2-elf/4.7.3/mno-hw-mul/libgcc.a(_ge_df.o)
 .debug_aranges
                0x000006b8       0x20 /CMC/tools/altera/13.1/nios2eds/bin/gnu/H-i686-pc-linux-gnu/bin/../lib/gcc/nios2-elf/4.7.3/mno-hw-mul/libgcc.a(_lt_df.o)
 .debug_aranges
                0x000006d8       0x20 /CMC/tools/altera/13.1/nios2eds/bin/gnu/H-i686-pc-linux-gnu/bin/../lib/gcc/nios2-elf/4.7.3/mno-hw-mul/libgcc.a(_si_to_df.o)
 .debug_aranges
                0x000006f8       0x20 /CMC/tools/altera/13.1/nios2eds/bin/gnu/H-i686-pc-linux-gnu/bin/../lib/gcc/nios2-elf/4.7.3/mno-hw-mul/libgcc.a(_df_to_si.o)
 .debug_aranges
                0x00000718       0x18 /CMC/tools/altera/13.1/nios2eds/bin/gnu/H-i686-pc-linux-gnu/bin/../lib/gcc/nios2-elf/4.7.3/mno-hw-mul/libgcc.a(_thenan_df.o)
 .debug_aranges
                0x00000730       0x20 /CMC/tools/altera/13.1/nios2eds/bin/gnu/H-i686-pc-linux-gnu/bin/../lib/gcc/nios2-elf/4.7.3/mno-hw-mul/libgcc.a(_usi_to_df.o)
 .debug_aranges
                0x00000750       0x20 /CMC/tools/altera/13.1/nios2eds/bin/gnu/H-i686-pc-linux-gnu/bin/../lib/gcc/nios2-elf/4.7.3/mno-hw-mul/libgcc.a(lib2-divmod.o)
 .debug_aranges
                0x00000770       0x20 /CMC/tools/altera/13.1/nios2eds/bin/gnu/H-i686-pc-linux-gnu/bin/../lib/gcc/nios2-elf/4.7.3/mno-hw-mul/libgcc.a(_muldi3.o)
 .debug_aranges
                0x00000790       0x18 /CMC/tools/altera/13.1/nios2eds/bin/gnu/H-i686-pc-linux-gnu/bin/../lib/gcc/nios2-elf/4.7.3/mno-hw-mul/libgcc.a(_clz.o)
 .debug_aranges
                0x000007a8       0x20 /CMC/tools/altera/13.1/nios2eds/bin/gnu/H-i686-pc-linux-gnu/bin/../lib/gcc/nios2-elf/4.7.3/mno-hw-mul/libgcc.a(_clzsi2.o)
 .debug_aranges
                0x000007c8       0x20 /CMC/tools/altera/13.1/nios2eds/bin/gnu/H-i686-pc-linux-gnu/bin/../lib/gcc/nios2-elf/4.7.3/mno-hw-mul/libgcc.a(_pack_df.o)
 .debug_aranges
                0x000007e8       0x20 /CMC/tools/altera/13.1/nios2eds/bin/gnu/H-i686-pc-linux-gnu/bin/../lib/gcc/nios2-elf/4.7.3/mno-hw-mul/libgcc.a(_unpack_df.o)
 .debug_aranges
                0x00000808       0x20 /CMC/tools/altera/13.1/nios2eds/bin/gnu/H-i686-pc-linux-gnu/bin/../lib/gcc/nios2-elf/4.7.3/mno-hw-mul/libgcc.a(_fpcmp_parts_df.o)
 .debug_aranges
                0x00000828       0x20 /CMC/tools/altera/13.1/nios2eds/bin/gnu/H-i686-pc-linux-gnu/bin/../lib/gcc/nios2-elf/4.7.3/mno-hw-mul/libgcc.a(_lshrdi3.o)
 .debug_aranges
                0x00000848       0x20 /CMC/tools/altera/13.1/nios2eds/bin/gnu/H-i686-pc-linux-gnu/bin/../lib/gcc/nios2-elf/4.7.3/mno-hw-mul/libgcc.a(_ashldi3.o)
 .debug_aranges
                0x00000868       0x20 ../ucosMon_bsp//libucosii_bsp.a(alt_close.o)
 .debug_aranges
                0x00000888       0x20 ../ucosMon_bsp//libucosii_bsp.a(alt_dev.o)
 .debug_aranges
                0x000008a8       0x20 ../ucosMon_bsp//libucosii_bsp.a(alt_dma_rxchan_open.o)
 .debug_aranges
                0x000008c8       0x20 ../ucosMon_bsp//libucosii_bsp.a(alt_dma_txchan_open.o)
 .debug_aranges
                0x000008e8       0x18 ../ucosMon_bsp//libucosii_bsp.a(alt_errno.o)
 .debug_aranges
                0x00000900       0x20 ../ucosMon_bsp//libucosii_bsp.a(alt_exit.o)
 .debug_aranges
                0x00000920       0x20 ../ucosMon_bsp//libucosii_bsp.a(alt_find_dev.o)
 .debug_aranges
                0x00000940       0x20 ../ucosMon_bsp//libucosii_bsp.a(alt_fstat.o)
 .debug_aranges
                0x00000960       0x20 ../ucosMon_bsp//libucosii_bsp.a(alt_iic.o)
 .debug_aranges
                0x00000980       0x20 ../ucosMon_bsp//libucosii_bsp.a(alt_iic_isr_register.o)
 .debug_aranges
                0x000009a0       0x30 ../ucosMon_bsp//libucosii_bsp.a(alt_irq_entry.o)
 .debug_aranges
                0x000009d0       0x20 ../ucosMon_bsp//libucosii_bsp.a(alt_irq_handler.o)
 .debug_aranges
                0x000009f0       0x18 ../ucosMon_bsp//libucosii_bsp.a(alt_irq_vars.o)
 .debug_aranges
                0x00000a08       0x20 ../ucosMon_bsp//libucosii_bsp.a(alt_isatty.o)
 .debug_aranges
                0x00000a28       0x20 ../ucosMon_bsp//libucosii_bsp.a(alt_load.o)
 .debug_aranges
                0x00000a48       0x20 ../ucosMon_bsp//libucosii_bsp.a(alt_lseek.o)
 .debug_aranges
                0x00000a68       0x20 ../ucosMon_bsp//libucosii_bsp.a(alt_main.o)
 .debug_aranges
                0x00000a88       0x20 ../ucosMon_bsp//libucosii_bsp.a(alt_read.o)
 .debug_aranges
                0x00000aa8       0x20 ../ucosMon_bsp//libucosii_bsp.a(alt_release_fd.o)
 .debug_aranges
                0x00000ac8       0x20 ../ucosMon_bsp//libucosii_bsp.a(alt_sbrk.o)
 .debug_aranges
                0x00000ae8       0x20 ../ucosMon_bsp//libucosii_bsp.a(alt_times.o)
 .debug_aranges
                0x00000b08       0x20 ../ucosMon_bsp//libucosii_bsp.a(alt_write.o)
 .debug_aranges
                0x00000b28       0x20 ../ucosMon_bsp//libucosii_bsp.a(alt_env_lock.o)
 .debug_aranges
                0x00000b48       0x20 ../ucosMon_bsp//libucosii_bsp.a(alt_malloc_lock.o)
 .debug_aranges
                0x00000b68       0x20 ../ucosMon_bsp//libucosii_bsp.a(os_core.o)
 .debug_aranges
                0x00000b88       0x20 ../ucosMon_bsp//libucosii_bsp.a(os_dbg.o)
 .debug_aranges
                0x00000ba8       0x20 ../ucosMon_bsp//libucosii_bsp.a(os_flag.o)
 .debug_aranges
                0x00000bc8       0x20 ../ucosMon_bsp//libucosii_bsp.a(os_mem.o)
 .debug_aranges
                0x00000be8       0x20 ../ucosMon_bsp//libucosii_bsp.a(os_q.o)
 .debug_aranges
                0x00000c08       0x20 ../ucosMon_bsp//libucosii_bsp.a(os_sem.o)
 .debug_aranges
                0x00000c28       0x20 ../ucosMon_bsp//libucosii_bsp.a(os_task.o)
 .debug_aranges
                0x00000c48       0x20 ../ucosMon_bsp//libucosii_bsp.a(os_time.o)
 .debug_aranges
                0x00000c68       0x20 ../ucosMon_bsp//libucosii_bsp.a(alt_sys_init.o)
 .debug_aranges
                0x00000c88       0x20 ../ucosMon_bsp//libucosii_bsp.a(altera_avalon_dma.o)
 .debug_aranges
                0x00000ca8       0x20 ../ucosMon_bsp//libucosii_bsp.a(altera_avalon_jtag_uart_fd.o)
 .debug_aranges
                0x00000cc8       0x20 ../ucosMon_bsp//libucosii_bsp.a(altera_avalon_jtag_uart_init.o)
 .debug_aranges
                0x00000ce8       0x20 ../ucosMon_bsp//libucosii_bsp.a(altera_avalon_jtag_uart_ioctl.o)
 .debug_aranges
                0x00000d08       0x20 ../ucosMon_bsp//libucosii_bsp.a(altera_avalon_jtag_uart_read.o)
 .debug_aranges
                0x00000d28       0x20 ../ucosMon_bsp//libucosii_bsp.a(altera_avalon_jtag_uart_write.o)
 .debug_aranges
                0x00000d48       0x20 ../ucosMon_bsp//libucosii_bsp.a(altera_avalon_mutex.o)
 .debug_aranges
                0x00000d68       0x20 ../ucosMon_bsp//libucosii_bsp.a(altera_avalon_timer_sc.o)
 .debug_aranges
                0x00000d88       0x18 ../ucosMon_bsp//libucosii_bsp.a(altera_avalon_timer_vars.o)
 .debug_aranges
                0x00000da0       0x20 ../ucosMon_bsp//libucosii_bsp.a(altera_ro_zipfs.o)
 .debug_aranges
                0x00000dc0       0x20 ../ucosMon_bsp//libucosii_bsp.a(alt_alarm_start.o)
 .debug_aranges
                0x00000de0       0x20 ../ucosMon_bsp//libucosii_bsp.a(alt_dcache_flush_all.o)
 .debug_aranges
                0x00000e00       0x20 ../ucosMon_bsp//libucosii_bsp.a(alt_dev_llist_insert.o)
 .debug_aranges
                0x00000e20       0x20 ../ucosMon_bsp//libucosii_bsp.a(alt_do_ctors.o)
 .debug_aranges
                0x00000e40       0x20 ../ucosMon_bsp//libucosii_bsp.a(alt_do_dtors.o)
 .debug_aranges
                0x00000e60       0x38 ../ucosMon_bsp//libucosii_bsp.a(alt_exception_entry.o)
 .debug_aranges
                0x00000e98       0x20 ../ucosMon_bsp//libucosii_bsp.a(alt_fs_reg.o)
 .debug_aranges
                0x00000eb8       0x20 ../ucosMon_bsp//libucosii_bsp.a(alt_icache_flush_all.o)
 .debug_aranges
                0x00000ed8       0x20 ../ucosMon_bsp//libucosii_bsp.a(alt_io_redirect.o)
 .debug_aranges
                0x00000ef8       0x20 ../ucosMon_bsp//libucosii_bsp.a(alt_open.o)
 .debug_aranges
                0x00000f18       0x20 ../ucosMon_bsp//libucosii_bsp.a(alt_tick.o)
 .debug_aranges
                0x00000f38       0x20 ../ucosMon_bsp//libucosii_bsp.a(altera_nios2_qsys_irq.o)
 .debug_aranges
                0x00000f58       0x20 ../ucosMon_bsp//libucosii_bsp.a(os_cpu_a.o)
 .debug_aranges
                0x00000f78       0x20 ../ucosMon_bsp//libucosii_bsp.a(os_cpu_c.o)
 .debug_aranges
                0x00000f98       0x20 ../ucosMon_bsp//libucosii_bsp.a(alt_find_file.o)
 .debug_aranges
                0x00000fb8       0x20 ../ucosMon_bsp//libucosii_bsp.a(alt_get_fd.o)
 .debug_aranges
                0x00000fd8       0x20 ../ucosMon_bsp//libucosii_bsp.a(alt_icache_flush.o)
 .debug_aranges
                0x00000ff8       0x20 /CMC/tools/altera/13.1/nios2eds/bin/gnu/H-i686-pc-linux-gnu/bin/../lib/gcc/nios2-elf/4.7.3/../../../../../H-i686-pc-linux-gnu/nios2-elf/lib/mno-hw-mul/libc.a(lib_a-atexit.o)
 .debug_aranges
                0x00001018       0x20 /CMC/tools/altera/13.1/nios2eds/bin/gnu/H-i686-pc-linux-gnu/bin/../lib/gcc/nios2-elf/4.7.3/../../../../../H-i686-pc-linux-gnu/nios2-elf/lib/mno-hw-mul/libc.a(lib_a-memcmp.o)
 .debug_aranges
                0x00001038       0x20 /CMC/tools/altera/13.1/nios2eds/bin/gnu/H-i686-pc-linux-gnu/bin/../lib/gcc/nios2-elf/4.7.3/../../../../../H-i686-pc-linux-gnu/nios2-elf/lib/mno-hw-mul/libc.a(lib_a-strncmp.o)
 .debug_aranges
                0x00001058       0x20 /CMC/tools/altera/13.1/nios2eds/bin/gnu/H-i686-pc-linux-gnu/bin/../lib/gcc/nios2-elf/4.7.3/../../../../../H-i686-pc-linux-gnu/nios2-elf/lib/mno-hw-mul/libc.a(lib_a-__atexit.o)
 .debug_aranges
                0x00001078       0x20 /CMC/tools/altera/13.1/nios2eds/bin/gnu/H-i686-pc-linux-gnu/bin/../lib/gcc/nios2-elf/4.7.3/mno-hw-mul/libgcc.a(_fixunsdfsi.o)

.debug_pubnames
 *(.debug_pubnames)

.debug_info     0x00000000    0x32785
 *(.debug_info .gnu.linkonce.wi.*)
 .debug_info    0x00000000       0x84 ../ucosMon_bsp//obj/HAL/src/crt0.o
 .debug_info    0x00000084      0xb83 obj/default/Monitor.o
 .debug_info    0x00000c07       0x7a obj/default/gp.o
 .debug_info    0x00000c81      0x10a ../critical_library/libcritical_library.a(critical.o)
 .debug_info    0x00000d8b      0x357 ../critical_library/libcritical_library.a(fingerprint.o)
 .debug_info    0x000010e2       0xb8 /CMC/tools/altera/13.1/nios2eds/bin/gnu/H-i686-pc-linux-gnu/bin/../lib/gcc/nios2-elf/4.7.3/mno-hw-mul/libgcc.a(lib2-mul.o)
 .debug_info    0x0000119a      0x9d1 /CMC/tools/altera/13.1/nios2eds/bin/gnu/H-i686-pc-linux-gnu/bin/../lib/gcc/nios2-elf/4.7.3/../../../../../H-i686-pc-linux-gnu/nios2-elf/lib/mno-hw-mul/libc.a(lib_a-clock.o)
 .debug_info    0x00001b6b      0x993 /CMC/tools/altera/13.1/nios2eds/bin/gnu/H-i686-pc-linux-gnu/bin/../lib/gcc/nios2-elf/4.7.3/../../../../../H-i686-pc-linux-gnu/nios2-elf/lib/mno-hw-mul/libc.a(lib_a-exit.o)
 .debug_info    0x000024fe      0x938 /CMC/tools/altera/13.1/nios2eds/bin/gnu/H-i686-pc-linux-gnu/bin/../lib/gcc/nios2-elf/4.7.3/../../../../../H-i686-pc-linux-gnu/nios2-elf/lib/mno-hw-mul/libc.a(lib_a-impure.o)
 .debug_info    0x00002e36      0x10f /CMC/tools/altera/13.1/nios2eds/bin/gnu/H-i686-pc-linux-gnu/bin/../lib/gcc/nios2-elf/4.7.3/../../../../../H-i686-pc-linux-gnu/nios2-elf/lib/mno-hw-mul/libc.a(lib_a-memcpy.o)
 .debug_info    0x00002f45      0xa6c /CMC/tools/altera/13.1/nios2eds/bin/gnu/H-i686-pc-linux-gnu/bin/../lib/gcc/nios2-elf/4.7.3/../../../../../H-i686-pc-linux-gnu/nios2-elf/lib/mno-hw-mul/libc.a(lib_a-printf.o)
 .debug_info    0x000039b1      0xab7 /CMC/tools/altera/13.1/nios2eds/bin/gnu/H-i686-pc-linux-gnu/bin/../lib/gcc/nios2-elf/4.7.3/../../../../../H-i686-pc-linux-gnu/nios2-elf/lib/mno-hw-mul/libc.a(lib_a-puts.o)
 .debug_info    0x00004468       0xdf /CMC/tools/altera/13.1/nios2eds/bin/gnu/H-i686-pc-linux-gnu/bin/../lib/gcc/nios2-elf/4.7.3/../../../../../H-i686-pc-linux-gnu/nios2-elf/lib/mno-hw-mul/libc.a(lib_a-strlen.o)
 .debug_info    0x00004547      0x9c7 /CMC/tools/altera/13.1/nios2eds/bin/gnu/H-i686-pc-linux-gnu/bin/../lib/gcc/nios2-elf/4.7.3/../../../../../H-i686-pc-linux-gnu/nios2-elf/lib/mno-hw-mul/libc.a(lib_a-timesr.o)
 .debug_info    0x00004f0e     0x195a /CMC/tools/altera/13.1/nios2eds/bin/gnu/H-i686-pc-linux-gnu/bin/../lib/gcc/nios2-elf/4.7.3/../../../../../H-i686-pc-linux-gnu/nios2-elf/lib/mno-hw-mul/libc.a(lib_a-vfprintf.o)
 .debug_info    0x00006868      0x9d4 /CMC/tools/altera/13.1/nios2eds/bin/gnu/H-i686-pc-linux-gnu/bin/../lib/gcc/nios2-elf/4.7.3/../../../../../H-i686-pc-linux-gnu/nios2-elf/lib/mno-hw-mul/libc.a(lib_a-wsetup.o)
 .debug_info    0x0000723c      0xa07 /CMC/tools/altera/13.1/nios2eds/bin/gnu/H-i686-pc-linux-gnu/bin/../lib/gcc/nios2-elf/4.7.3/../../../../../H-i686-pc-linux-gnu/nios2-elf/lib/mno-hw-mul/libc.a(lib_a-__call_atexit.o)
 .debug_info    0x00007c43     0x1409 /CMC/tools/altera/13.1/nios2eds/bin/gnu/H-i686-pc-linux-gnu/bin/../lib/gcc/nios2-elf/4.7.3/../../../../../H-i686-pc-linux-gnu/nios2-elf/lib/mno-hw-mul/libc.a(lib_a-dtoa.o)
 .debug_info    0x0000904c      0xad0 /CMC/tools/altera/13.1/nios2eds/bin/gnu/H-i686-pc-linux-gnu/bin/../lib/gcc/nios2-elf/4.7.3/../../../../../H-i686-pc-linux-gnu/nios2-elf/lib/mno-hw-mul/libc.a(lib_a-fflush.o)
 .debug_info    0x00009b1c      0xd6e /CMC/tools/altera/13.1/nios2eds/bin/gnu/H-i686-pc-linux-gnu/bin/../lib/gcc/nios2-elf/4.7.3/../../../../../H-i686-pc-linux-gnu/nios2-elf/lib/mno-hw-mul/libc.a(lib_a-findfp.o)
 .debug_info    0x0000a88a      0xcf9 /CMC/tools/altera/13.1/nios2eds/bin/gnu/H-i686-pc-linux-gnu/bin/../lib/gcc/nios2-elf/4.7.3/../../../../../H-i686-pc-linux-gnu/nios2-elf/lib/mno-hw-mul/libc.a(lib_a-freer.o)
 .debug_info    0x0000b583      0xd05 /CMC/tools/altera/13.1/nios2eds/bin/gnu/H-i686-pc-linux-gnu/bin/../lib/gcc/nios2-elf/4.7.3/../../../../../H-i686-pc-linux-gnu/nios2-elf/lib/mno-hw-mul/libc.a(lib_a-fvwrite.o)
 .debug_info    0x0000c288      0xb72 /CMC/tools/altera/13.1/nios2eds/bin/gnu/H-i686-pc-linux-gnu/bin/../lib/gcc/nios2-elf/4.7.3/../../../../../H-i686-pc-linux-gnu/nios2-elf/lib/mno-hw-mul/libc.a(lib_a-fwalk.o)
 .debug_info    0x0000cdfa      0xc10 /CMC/tools/altera/13.1/nios2eds/bin/gnu/H-i686-pc-linux-gnu/bin/../lib/gcc/nios2-elf/4.7.3/../../../../../H-i686-pc-linux-gnu/nios2-elf/lib/mno-hw-mul/libc.a(lib_a-locale.o)
 .debug_info    0x0000da0a      0xbc2 /CMC/tools/altera/13.1/nios2eds/bin/gnu/H-i686-pc-linux-gnu/bin/../lib/gcc/nios2-elf/4.7.3/../../../../../H-i686-pc-linux-gnu/nios2-elf/lib/mno-hw-mul/libc.a(lib_a-makebuf.o)
 .debug_info    0x0000e5cc      0xe44 /CMC/tools/altera/13.1/nios2eds/bin/gnu/H-i686-pc-linux-gnu/bin/../lib/gcc/nios2-elf/4.7.3/../../../../../H-i686-pc-linux-gnu/nios2-elf/lib/mno-hw-mul/libc.a(lib_a-mallocr.o)
 .debug_info    0x0000f410      0x13e /CMC/tools/altera/13.1/nios2eds/bin/gnu/H-i686-pc-linux-gnu/bin/../lib/gcc/nios2-elf/4.7.3/../../../../../H-i686-pc-linux-gnu/nios2-elf/lib/mno-hw-mul/libc.a(lib_a-memchr.o)
 .debug_info    0x0000f54e      0x147 /CMC/tools/altera/13.1/nios2eds/bin/gnu/H-i686-pc-linux-gnu/bin/../lib/gcc/nios2-elf/4.7.3/../../../../../H-i686-pc-linux-gnu/nios2-elf/lib/mno-hw-mul/libc.a(lib_a-memmove.o)
 .debug_info    0x0000f695      0x117 /CMC/tools/altera/13.1/nios2eds/bin/gnu/H-i686-pc-linux-gnu/bin/../lib/gcc/nios2-elf/4.7.3/../../../../../H-i686-pc-linux-gnu/nios2-elf/lib/mno-hw-mul/libc.a(lib_a-memset.o)
 .debug_info    0x0000f7ac     0x1734 /CMC/tools/altera/13.1/nios2eds/bin/gnu/H-i686-pc-linux-gnu/bin/../lib/gcc/nios2-elf/4.7.3/../../../../../H-i686-pc-linux-gnu/nios2-elf/lib/mno-hw-mul/libc.a(lib_a-mprec.o)
 .debug_info    0x00010ee0      0xd8e /CMC/tools/altera/13.1/nios2eds/bin/gnu/H-i686-pc-linux-gnu/bin/../lib/gcc/nios2-elf/4.7.3/../../../../../H-i686-pc-linux-gnu/nios2-elf/lib/mno-hw-mul/libc.a(lib_a-reallocr.o)
 .debug_info    0x00011c6e       0xe8 /CMC/tools/altera/13.1/nios2eds/bin/gnu/H-i686-pc-linux-gnu/bin/../lib/gcc/nios2-elf/4.7.3/../../../../../H-i686-pc-linux-gnu/nios2-elf/lib/mno-hw-mul/libc.a(lib_a-s_isinfd.o)
 .debug_info    0x00011d56       0xe8 /CMC/tools/altera/13.1/nios2eds/bin/gnu/H-i686-pc-linux-gnu/bin/../lib/gcc/nios2-elf/4.7.3/../../../../../H-i686-pc-linux-gnu/nios2-elf/lib/mno-hw-mul/libc.a(lib_a-s_isnand.o)
 .debug_info    0x00011e3e      0x9a3 /CMC/tools/altera/13.1/nios2eds/bin/gnu/H-i686-pc-linux-gnu/bin/../lib/gcc/nios2-elf/4.7.3/../../../../../H-i686-pc-linux-gnu/nios2-elf/lib/mno-hw-mul/libc.a(lib_a-sbrkr.o)
 .debug_info    0x000127e1      0xbfd /CMC/tools/altera/13.1/nios2eds/bin/gnu/H-i686-pc-linux-gnu/bin/../lib/gcc/nios2-elf/4.7.3/../../../../../H-i686-pc-linux-gnu/nios2-elf/lib/mno-hw-mul/libc.a(lib_a-stdio.o)
 .debug_info    0x000133de       0xe1 /CMC/tools/altera/13.1/nios2eds/bin/gnu/H-i686-pc-linux-gnu/bin/../lib/gcc/nios2-elf/4.7.3/../../../../../H-i686-pc-linux-gnu/nios2-elf/lib/mno-hw-mul/libc.a(lib_a-strcmp.o)
 .debug_info    0x000134bf      0x9d2 /CMC/tools/altera/13.1/nios2eds/bin/gnu/H-i686-pc-linux-gnu/bin/../lib/gcc/nios2-elf/4.7.3/../../../../../H-i686-pc-linux-gnu/nios2-elf/lib/mno-hw-mul/libc.a(lib_a-writer.o)
 .debug_info    0x00013e91      0xa8b /CMC/tools/altera/13.1/nios2eds/bin/gnu/H-i686-pc-linux-gnu/bin/../lib/gcc/nios2-elf/4.7.3/../../../../../H-i686-pc-linux-gnu/nios2-elf/lib/mno-hw-mul/libc.a(lib_a-callocr.o)
 .debug_info    0x0001491c      0x97f /CMC/tools/altera/13.1/nios2eds/bin/gnu/H-i686-pc-linux-gnu/bin/../lib/gcc/nios2-elf/4.7.3/../../../../../H-i686-pc-linux-gnu/nios2-elf/lib/mno-hw-mul/libc.a(lib_a-closer.o)
 .debug_info    0x0001529b      0xa97 /CMC/tools/altera/13.1/nios2eds/bin/gnu/H-i686-pc-linux-gnu/bin/../lib/gcc/nios2-elf/4.7.3/../../../../../H-i686-pc-linux-gnu/nios2-elf/lib/mno-hw-mul/libc.a(lib_a-fclose.o)
 .debug_info    0x00015d32      0xb2f /CMC/tools/altera/13.1/nios2eds/bin/gnu/H-i686-pc-linux-gnu/bin/../lib/gcc/nios2-elf/4.7.3/../../../../../H-i686-pc-linux-gnu/nios2-elf/lib/mno-hw-mul/libc.a(lib_a-fstatr.o)
 .debug_info    0x00016861       0x84 /CMC/tools/altera/13.1/nios2eds/bin/gnu/H-i686-pc-linux-gnu/bin/../lib/gcc/nios2-elf/4.7.3/../../../../../H-i686-pc-linux-gnu/nios2-elf/lib/mno-hw-mul/libc.a(lib_a-int_errno.o)
 .debug_info    0x000168e5      0x97f /CMC/tools/altera/13.1/nios2eds/bin/gnu/H-i686-pc-linux-gnu/bin/../lib/gcc/nios2-elf/4.7.3/../../../../../H-i686-pc-linux-gnu/nios2-elf/lib/mno-hw-mul/libc.a(lib_a-isattyr.o)
 .debug_info    0x00017264      0x9cb /CMC/tools/altera/13.1/nios2eds/bin/gnu/H-i686-pc-linux-gnu/bin/../lib/gcc/nios2-elf/4.7.3/../../../../../H-i686-pc-linux-gnu/nios2-elf/lib/mno-hw-mul/libc.a(lib_a-lseekr.o)
 .debug_info    0x00017c2f      0x9cb /CMC/tools/altera/13.1/nios2eds/bin/gnu/H-i686-pc-linux-gnu/bin/../lib/gcc/nios2-elf/4.7.3/../../../../../H-i686-pc-linux-gnu/nios2-elf/lib/mno-hw-mul/libc.a(lib_a-readr.o)
 .debug_info    0x000185fa      0x71c /CMC/tools/altera/13.1/nios2eds/bin/gnu/H-i686-pc-linux-gnu/bin/../lib/gcc/nios2-elf/4.7.3/mno-hw-mul/libgcc.a(_udivdi3.o)
 .debug_info    0x00018d16      0x773 /CMC/tools/altera/13.1/nios2eds/bin/gnu/H-i686-pc-linux-gnu/bin/../lib/gcc/nios2-elf/4.7.3/mno-hw-mul/libgcc.a(_umoddi3.o)
 .debug_info    0x00019489      0x588 /CMC/tools/altera/13.1/nios2eds/bin/gnu/H-i686-pc-linux-gnu/bin/../lib/gcc/nios2-elf/4.7.3/mno-hw-mul/libgcc.a(_addsub_df.o)
 .debug_info    0x00019a11      0x519 /CMC/tools/altera/13.1/nios2eds/bin/gnu/H-i686-pc-linux-gnu/bin/../lib/gcc/nios2-elf/4.7.3/mno-hw-mul/libgcc.a(_mul_df.o)
 .debug_info    0x00019f2a      0x443 /CMC/tools/altera/13.1/nios2eds/bin/gnu/H-i686-pc-linux-gnu/bin/../lib/gcc/nios2-elf/4.7.3/mno-hw-mul/libgcc.a(_div_df.o)
 .debug_info    0x0001a36d      0x320 /CMC/tools/altera/13.1/nios2eds/bin/gnu/H-i686-pc-linux-gnu/bin/../lib/gcc/nios2-elf/4.7.3/mno-hw-mul/libgcc.a(_eq_df.o)
 .debug_info    0x0001a68d      0x320 /CMC/tools/altera/13.1/nios2eds/bin/gnu/H-i686-pc-linux-gnu/bin/../lib/gcc/nios2-elf/4.7.3/mno-hw-mul/libgcc.a(_ne_df.o)
 .debug_info    0x0001a9ad      0x320 /CMC/tools/altera/13.1/nios2eds/bin/gnu/H-i686-pc-linux-gnu/bin/../lib/gcc/nios2-elf/4.7.3/mno-hw-mul/libgcc.a(_gt_df.o)
 .debug_info    0x0001accd      0x320 /CMC/tools/altera/13.1/nios2eds/bin/gnu/H-i686-pc-linux-gnu/bin/../lib/gcc/nios2-elf/4.7.3/mno-hw-mul/libgcc.a(_ge_df.o)
 .debug_info    0x0001afed      0x320 /CMC/tools/altera/13.1/nios2eds/bin/gnu/H-i686-pc-linux-gnu/bin/../lib/gcc/nios2-elf/4.7.3/mno-hw-mul/libgcc.a(_lt_df.o)
 .debug_info    0x0001b30d      0x261 /CMC/tools/altera/13.1/nios2eds/bin/gnu/H-i686-pc-linux-gnu/bin/../lib/gcc/nios2-elf/4.7.3/mno-hw-mul/libgcc.a(_si_to_df.o)
 .debug_info    0x0001b56e      0x30b /CMC/tools/altera/13.1/nios2eds/bin/gnu/H-i686-pc-linux-gnu/bin/../lib/gcc/nios2-elf/4.7.3/mno-hw-mul/libgcc.a(_df_to_si.o)
 .debug_info    0x0001b879      0x155 /CMC/tools/altera/13.1/nios2eds/bin/gnu/H-i686-pc-linux-gnu/bin/../lib/gcc/nios2-elf/4.7.3/mno-hw-mul/libgcc.a(_thenan_df.o)
 .debug_info    0x0001b9ce      0x284 /CMC/tools/altera/13.1/nios2eds/bin/gnu/H-i686-pc-linux-gnu/bin/../lib/gcc/nios2-elf/4.7.3/mno-hw-mul/libgcc.a(_usi_to_df.o)
 .debug_info    0x0001bc52      0x289 /CMC/tools/altera/13.1/nios2eds/bin/gnu/H-i686-pc-linux-gnu/bin/../lib/gcc/nios2-elf/4.7.3/mno-hw-mul/libgcc.a(lib2-divmod.o)
 .debug_info    0x0001bedb      0x1eb /CMC/tools/altera/13.1/nios2eds/bin/gnu/H-i686-pc-linux-gnu/bin/../lib/gcc/nios2-elf/4.7.3/mno-hw-mul/libgcc.a(_muldi3.o)
 .debug_info    0x0001c0c6       0xac /CMC/tools/altera/13.1/nios2eds/bin/gnu/H-i686-pc-linux-gnu/bin/../lib/gcc/nios2-elf/4.7.3/mno-hw-mul/libgcc.a(_clz.o)
 .debug_info    0x0001c172      0x123 /CMC/tools/altera/13.1/nios2eds/bin/gnu/H-i686-pc-linux-gnu/bin/../lib/gcc/nios2-elf/4.7.3/mno-hw-mul/libgcc.a(_clzsi2.o)
 .debug_info    0x0001c295      0x2f7 /CMC/tools/altera/13.1/nios2eds/bin/gnu/H-i686-pc-linux-gnu/bin/../lib/gcc/nios2-elf/4.7.3/mno-hw-mul/libgcc.a(_pack_df.o)
 .debug_info    0x0001c58c      0x265 /CMC/tools/altera/13.1/nios2eds/bin/gnu/H-i686-pc-linux-gnu/bin/../lib/gcc/nios2-elf/4.7.3/mno-hw-mul/libgcc.a(_unpack_df.o)
 .debug_info    0x0001c7f1      0x226 /CMC/tools/altera/13.1/nios2eds/bin/gnu/H-i686-pc-linux-gnu/bin/../lib/gcc/nios2-elf/4.7.3/mno-hw-mul/libgcc.a(_fpcmp_parts_df.o)
 .debug_info    0x0001ca17      0x185 /CMC/tools/altera/13.1/nios2eds/bin/gnu/H-i686-pc-linux-gnu/bin/../lib/gcc/nios2-elf/4.7.3/mno-hw-mul/libgcc.a(_lshrdi3.o)
 .debug_info    0x0001cb9c      0x185 /CMC/tools/altera/13.1/nios2eds/bin/gnu/H-i686-pc-linux-gnu/bin/../lib/gcc/nios2-elf/4.7.3/mno-hw-mul/libgcc.a(_ashldi3.o)
 .debug_info    0x0001cd21      0x388 ../ucosMon_bsp//libucosii_bsp.a(alt_close.o)
 .debug_info    0x0001d0a9      0x5dd ../ucosMon_bsp//libucosii_bsp.a(alt_dev.o)
 .debug_info    0x0001d686      0x280 ../ucosMon_bsp//libucosii_bsp.a(alt_dma_rxchan_open.o)
 .debug_info    0x0001d906      0x298 ../ucosMon_bsp//libucosii_bsp.a(alt_dma_txchan_open.o)
 .debug_info    0x0001db9e       0xa3 ../ucosMon_bsp//libucosii_bsp.a(alt_errno.o)
 .debug_info    0x0001dc41      0x141 ../ucosMon_bsp//libucosii_bsp.a(alt_exit.o)
 .debug_info    0x0001dd82      0x345 ../ucosMon_bsp//libucosii_bsp.a(alt_find_dev.o)
 .debug_info    0x0001e0c7      0x510 ../ucosMon_bsp//libucosii_bsp.a(alt_fstat.o)
 .debug_info    0x0001e5d7      0x393 ../ucosMon_bsp//libucosii_bsp.a(alt_iic.o)
 .debug_info    0x0001e96a      0x213 ../ucosMon_bsp//libucosii_bsp.a(alt_iic_isr_register.o)
 .debug_info    0x0001eb7d       0x8d ../ucosMon_bsp//libucosii_bsp.a(alt_irq_entry.o)
 .debug_info    0x0001ec0a      0x1bd ../ucosMon_bsp//libucosii_bsp.a(alt_irq_handler.o)
 .debug_info    0x0001edc7       0x8a ../ucosMon_bsp//libucosii_bsp.a(alt_irq_vars.o)
 .debug_info    0x0001ee51      0x513 ../ucosMon_bsp//libucosii_bsp.a(alt_isatty.o)
 .debug_info    0x0001f364      0x135 ../ucosMon_bsp//libucosii_bsp.a(alt_load.o)
 .debug_info    0x0001f499      0x3b9 ../ucosMon_bsp//libucosii_bsp.a(alt_lseek.o)
 .debug_info    0x0001f852      0x28b ../ucosMon_bsp//libucosii_bsp.a(alt_main.o)
 .debug_info    0x0001fadd      0x538 ../ucosMon_bsp//libucosii_bsp.a(alt_read.o)
 .debug_info    0x00020015      0x323 ../ucosMon_bsp//libucosii_bsp.a(alt_release_fd.o)
 .debug_info    0x00020338      0x1e1 ../ucosMon_bsp//libucosii_bsp.a(alt_sbrk.o)
 .debug_info    0x00020519      0x1b2 ../ucosMon_bsp//libucosii_bsp.a(alt_times.o)
 .debug_info    0x000206cb      0x53f ../ucosMon_bsp//libucosii_bsp.a(alt_write.o)
 .debug_info    0x00020c0a      0xd5c ../ucosMon_bsp//libucosii_bsp.a(alt_env_lock.o)
 .debug_info    0x00021966      0xf0d ../ucosMon_bsp//libucosii_bsp.a(alt_malloc_lock.o)
 .debug_info    0x00022873     0x191e ../ucosMon_bsp//libucosii_bsp.a(os_core.o)
 .debug_info    0x00024191      0xb93 ../ucosMon_bsp//libucosii_bsp.a(os_dbg.o)
 .debug_info    0x00024d24     0x12c6 ../ucosMon_bsp//libucosii_bsp.a(os_flag.o)
 .debug_info    0x00025fea      0x767 ../ucosMon_bsp//libucosii_bsp.a(os_mem.o)
 .debug_info    0x00026751     0x100a ../ucosMon_bsp//libucosii_bsp.a(os_q.o)
 .debug_info    0x0002775b      0xbb5 ../ucosMon_bsp//libucosii_bsp.a(os_sem.o)
 .debug_info    0x00028310     0x14da ../ucosMon_bsp//libucosii_bsp.a(os_task.o)
 .debug_info    0x000297ea      0x7f8 ../ucosMon_bsp//libucosii_bsp.a(os_time.o)
 .debug_info    0x00029fe2      0xc6c ../ucosMon_bsp//libucosii_bsp.a(alt_sys_init.o)
 .debug_info    0x0002ac4e      0xafe ../ucosMon_bsp//libucosii_bsp.a(altera_avalon_dma.o)
 .debug_info    0x0002b74c      0x6f3 ../ucosMon_bsp//libucosii_bsp.a(altera_avalon_jtag_uart_fd.o)
 .debug_info    0x0002be3f      0x709 ../ucosMon_bsp//libucosii_bsp.a(altera_avalon_jtag_uart_init.o)
 .debug_info    0x0002c548      0x412 ../ucosMon_bsp//libucosii_bsp.a(altera_avalon_jtag_uart_ioctl.o)
 .debug_info    0x0002c95a      0x5e2 ../ucosMon_bsp//libucosii_bsp.a(altera_avalon_jtag_uart_read.o)
 .debug_info    0x0002cf3c      0x5e0 ../ucosMon_bsp//libucosii_bsp.a(altera_avalon_jtag_uart_write.o)
 .debug_info    0x0002d51c      0x54b ../ucosMon_bsp//libucosii_bsp.a(altera_avalon_mutex.o)
 .debug_info    0x0002da67      0x252 ../ucosMon_bsp//libucosii_bsp.a(altera_avalon_timer_sc.o)
 .debug_info    0x0002dcb9       0xea ../ucosMon_bsp//libucosii_bsp.a(altera_avalon_timer_vars.o)
 .debug_info    0x0002dda3      0xc66 ../ucosMon_bsp//libucosii_bsp.a(altera_ro_zipfs.o)
 .debug_info    0x0002ea09      0x301 ../ucosMon_bsp//libucosii_bsp.a(alt_alarm_start.o)
 .debug_info    0x0002ed0a       0x90 ../ucosMon_bsp//libucosii_bsp.a(alt_dcache_flush_all.o)
 .debug_info    0x0002ed9a      0x1b9 ../ucosMon_bsp//libucosii_bsp.a(alt_dev_llist_insert.o)
 .debug_info    0x0002ef53       0x8d ../ucosMon_bsp//libucosii_bsp.a(alt_do_ctors.o)
 .debug_info    0x0002efe0       0x8d ../ucosMon_bsp//libucosii_bsp.a(alt_do_dtors.o)
 .debug_info    0x0002f06d       0x93 ../ucosMon_bsp//libucosii_bsp.a(alt_exception_entry.o)
 .debug_info    0x0002f100      0x361 ../ucosMon_bsp//libucosii_bsp.a(alt_fs_reg.o)
 .debug_info    0x0002f461       0x90 ../ucosMon_bsp//libucosii_bsp.a(alt_icache_flush_all.o)
 .debug_info    0x0002f4f1      0x528 ../ucosMon_bsp//libucosii_bsp.a(alt_io_redirect.o)
 .debug_info    0x0002fa19      0x41d ../ucosMon_bsp//libucosii_bsp.a(alt_open.o)
 .debug_info    0x0002fe36      0x2dc ../ucosMon_bsp//libucosii_bsp.a(alt_tick.o)
 .debug_info    0x00030112       0x90 ../ucosMon_bsp//libucosii_bsp.a(altera_nios2_qsys_irq.o)
 .debug_info    0x000301a2       0x8c ../ucosMon_bsp//libucosii_bsp.a(os_cpu_a.o)
 .debug_info    0x0003022e      0xdff ../ucosMon_bsp//libucosii_bsp.a(os_cpu_c.o)
 .debug_info    0x0003102d      0x344 ../ucosMon_bsp//libucosii_bsp.a(alt_find_file.o)
 .debug_info    0x00031371      0x486 ../ucosMon_bsp//libucosii_bsp.a(alt_get_fd.o)
 .debug_info    0x000317f7       0xda ../ucosMon_bsp//libucosii_bsp.a(alt_icache_flush.o)
 .debug_info    0x000318d1      0x1e6 /CMC/tools/altera/13.1/nios2eds/bin/gnu/H-i686-pc-linux-gnu/bin/../lib/gcc/nios2-elf/4.7.3/../../../../../H-i686-pc-linux-gnu/nios2-elf/lib/mno-hw-mul/libc.a(lib_a-atexit.o)
 .debug_info    0x00031ab7      0x117 /CMC/tools/altera/13.1/nios2eds/bin/gnu/H-i686-pc-linux-gnu/bin/../lib/gcc/nios2-elf/4.7.3/../../../../../H-i686-pc-linux-gnu/nios2-elf/lib/mno-hw-mul/libc.a(lib_a-memcmp.o)
 .debug_info    0x00031bce       0xf9 /CMC/tools/altera/13.1/nios2eds/bin/gnu/H-i686-pc-linux-gnu/bin/../lib/gcc/nios2-elf/4.7.3/../../../../../H-i686-pc-linux-gnu/nios2-elf/lib/mno-hw-mul/libc.a(lib_a-strncmp.o)
 .debug_info    0x00031cc7      0x9f9 /CMC/tools/altera/13.1/nios2eds/bin/gnu/H-i686-pc-linux-gnu/bin/../lib/gcc/nios2-elf/4.7.3/../../../../../H-i686-pc-linux-gnu/nios2-elf/lib/mno-hw-mul/libc.a(lib_a-__atexit.o)
 .debug_info    0x000326c0       0xc5 /CMC/tools/altera/13.1/nios2eds/bin/gnu/H-i686-pc-linux-gnu/bin/../lib/gcc/nios2-elf/4.7.3/mno-hw-mul/libgcc.a(_fixunsdfsi.o)

.debug_abbrev   0x00000000     0xbc86
 *(.debug_abbrev)
 .debug_abbrev  0x00000000       0x12 ../ucosMon_bsp//obj/HAL/src/crt0.o
 .debug_abbrev  0x00000012      0x244 obj/default/Monitor.o
 .debug_abbrev  0x00000256       0x14 obj/default/gp.o
 .debug_abbrev  0x0000026a       0x92 ../critical_library/libcritical_library.a(critical.o)
 .debug_abbrev  0x000002fc      0x114 ../critical_library/libcritical_library.a(fingerprint.o)
 .debug_abbrev  0x00000410       0x6f /CMC/tools/altera/13.1/nios2eds/bin/gnu/H-i686-pc-linux-gnu/bin/../lib/gcc/nios2-elf/4.7.3/mno-hw-mul/libgcc.a(lib2-mul.o)
 .debug_abbrev  0x0000047f      0x1cc /CMC/tools/altera/13.1/nios2eds/bin/gnu/H-i686-pc-linux-gnu/bin/../lib/gcc/nios2-elf/4.7.3/../../../../../H-i686-pc-linux-gnu/nios2-elf/lib/mno-hw-mul/libc.a(lib_a-clock.o)
 .debug_abbrev  0x0000064b      0x1c8 /CMC/tools/altera/13.1/nios2eds/bin/gnu/H-i686-pc-linux-gnu/bin/../lib/gcc/nios2-elf/4.7.3/../../../../../H-i686-pc-linux-gnu/nios2-elf/lib/mno-hw-mul/libc.a(lib_a-exit.o)
 .debug_abbrev  0x00000813      0x162 /CMC/tools/altera/13.1/nios2eds/bin/gnu/H-i686-pc-linux-gnu/bin/../lib/gcc/nios2-elf/4.7.3/../../../../../H-i686-pc-linux-gnu/nios2-elf/lib/mno-hw-mul/libc.a(lib_a-impure.o)
 .debug_abbrev  0x00000975       0x9c /CMC/tools/altera/13.1/nios2eds/bin/gnu/H-i686-pc-linux-gnu/bin/../lib/gcc/nios2-elf/4.7.3/../../../../../H-i686-pc-linux-gnu/nios2-elf/lib/mno-hw-mul/libc.a(lib_a-memcpy.o)
 .debug_abbrev  0x00000a11      0x209 /CMC/tools/altera/13.1/nios2eds/bin/gnu/H-i686-pc-linux-gnu/bin/../lib/gcc/nios2-elf/4.7.3/../../../../../H-i686-pc-linux-gnu/nios2-elf/lib/mno-hw-mul/libc.a(lib_a-printf.o)
 .debug_abbrev  0x00000c1a      0x208 /CMC/tools/altera/13.1/nios2eds/bin/gnu/H-i686-pc-linux-gnu/bin/../lib/gcc/nios2-elf/4.7.3/../../../../../H-i686-pc-linux-gnu/nios2-elf/lib/mno-hw-mul/libc.a(lib_a-puts.o)
 .debug_abbrev  0x00000e22       0x90 /CMC/tools/altera/13.1/nios2eds/bin/gnu/H-i686-pc-linux-gnu/bin/../lib/gcc/nios2-elf/4.7.3/../../../../../H-i686-pc-linux-gnu/nios2-elf/lib/mno-hw-mul/libc.a(lib_a-strlen.o)
 .debug_abbrev  0x00000eb2      0x1c9 /CMC/tools/altera/13.1/nios2eds/bin/gnu/H-i686-pc-linux-gnu/bin/../lib/gcc/nios2-elf/4.7.3/../../../../../H-i686-pc-linux-gnu/nios2-elf/lib/mno-hw-mul/libc.a(lib_a-timesr.o)
 .debug_abbrev  0x0000107b      0x3d9 /CMC/tools/altera/13.1/nios2eds/bin/gnu/H-i686-pc-linux-gnu/bin/../lib/gcc/nios2-elf/4.7.3/../../../../../H-i686-pc-linux-gnu/nios2-elf/lib/mno-hw-mul/libc.a(lib_a-vfprintf.o)
 .debug_abbrev  0x00001454      0x1d5 /CMC/tools/altera/13.1/nios2eds/bin/gnu/H-i686-pc-linux-gnu/bin/../lib/gcc/nios2-elf/4.7.3/../../../../../H-i686-pc-linux-gnu/nios2-elf/lib/mno-hw-mul/libc.a(lib_a-wsetup.o)
 .debug_abbrev  0x00001629      0x203 /CMC/tools/altera/13.1/nios2eds/bin/gnu/H-i686-pc-linux-gnu/bin/../lib/gcc/nios2-elf/4.7.3/../../../../../H-i686-pc-linux-gnu/nios2-elf/lib/mno-hw-mul/libc.a(lib_a-__call_atexit.o)
 .debug_abbrev  0x0000182c      0x2ab /CMC/tools/altera/13.1/nios2eds/bin/gnu/H-i686-pc-linux-gnu/bin/../lib/gcc/nios2-elf/4.7.3/../../../../../H-i686-pc-linux-gnu/nios2-elf/lib/mno-hw-mul/libc.a(lib_a-dtoa.o)
 .debug_abbrev  0x00001ad7      0x259 /CMC/tools/altera/13.1/nios2eds/bin/gnu/H-i686-pc-linux-gnu/bin/../lib/gcc/nios2-elf/4.7.3/../../../../../H-i686-pc-linux-gnu/nios2-elf/lib/mno-hw-mul/libc.a(lib_a-fflush.o)
 .debug_abbrev  0x00001d30      0x333 /CMC/tools/altera/13.1/nios2eds/bin/gnu/H-i686-pc-linux-gnu/bin/../lib/gcc/nios2-elf/4.7.3/../../../../../H-i686-pc-linux-gnu/nios2-elf/lib/mno-hw-mul/libc.a(lib_a-findfp.o)
 .debug_abbrev  0x00002063      0x25d /CMC/tools/altera/13.1/nios2eds/bin/gnu/H-i686-pc-linux-gnu/bin/../lib/gcc/nios2-elf/4.7.3/../../../../../H-i686-pc-linux-gnu/nios2-elf/lib/mno-hw-mul/libc.a(lib_a-freer.o)
 .debug_abbrev  0x000022c0      0x234 /CMC/tools/altera/13.1/nios2eds/bin/gnu/H-i686-pc-linux-gnu/bin/../lib/gcc/nios2-elf/4.7.3/../../../../../H-i686-pc-linux-gnu/nios2-elf/lib/mno-hw-mul/libc.a(lib_a-fvwrite.o)
 .debug_abbrev  0x000024f4      0x224 /CMC/tools/altera/13.1/nios2eds/bin/gnu/H-i686-pc-linux-gnu/bin/../lib/gcc/nios2-elf/4.7.3/../../../../../H-i686-pc-linux-gnu/nios2-elf/lib/mno-hw-mul/libc.a(lib_a-fwalk.o)
 .debug_abbrev  0x00002718      0x29f /CMC/tools/altera/13.1/nios2eds/bin/gnu/H-i686-pc-linux-gnu/bin/../lib/gcc/nios2-elf/4.7.3/../../../../../H-i686-pc-linux-gnu/nios2-elf/lib/mno-hw-mul/libc.a(lib_a-locale.o)
 .debug_abbrev  0x000029b7      0x1e8 /CMC/tools/altera/13.1/nios2eds/bin/gnu/H-i686-pc-linux-gnu/bin/../lib/gcc/nios2-elf/4.7.3/../../../../../H-i686-pc-linux-gnu/nios2-elf/lib/mno-hw-mul/libc.a(lib_a-makebuf.o)
 .debug_abbrev  0x00002b9f      0x284 /CMC/tools/altera/13.1/nios2eds/bin/gnu/H-i686-pc-linux-gnu/bin/../lib/gcc/nios2-elf/4.7.3/../../../../../H-i686-pc-linux-gnu/nios2-elf/lib/mno-hw-mul/libc.a(lib_a-mallocr.o)
 .debug_abbrev  0x00002e23       0xab /CMC/tools/altera/13.1/nios2eds/bin/gnu/H-i686-pc-linux-gnu/bin/../lib/gcc/nios2-elf/4.7.3/../../../../../H-i686-pc-linux-gnu/nios2-elf/lib/mno-hw-mul/libc.a(lib_a-memchr.o)
 .debug_abbrev  0x00002ece       0x9c /CMC/tools/altera/13.1/nios2eds/bin/gnu/H-i686-pc-linux-gnu/bin/../lib/gcc/nios2-elf/4.7.3/../../../../../H-i686-pc-linux-gnu/nios2-elf/lib/mno-hw-mul/libc.a(lib_a-memmove.o)
 .debug_abbrev  0x00002f6a       0xac /CMC/tools/altera/13.1/nios2eds/bin/gnu/H-i686-pc-linux-gnu/bin/../lib/gcc/nios2-elf/4.7.3/../../../../../H-i686-pc-linux-gnu/nios2-elf/lib/mno-hw-mul/libc.a(lib_a-memset.o)
 .debug_abbrev  0x00003016      0x394 /CMC/tools/altera/13.1/nios2eds/bin/gnu/H-i686-pc-linux-gnu/bin/../lib/gcc/nios2-elf/4.7.3/../../../../../H-i686-pc-linux-gnu/nios2-elf/lib/mno-hw-mul/libc.a(lib_a-mprec.o)
 .debug_abbrev  0x000033aa      0x242 /CMC/tools/altera/13.1/nios2eds/bin/gnu/H-i686-pc-linux-gnu/bin/../lib/gcc/nios2-elf/4.7.3/../../../../../H-i686-pc-linux-gnu/nios2-elf/lib/mno-hw-mul/libc.a(lib_a-reallocr.o)
 .debug_abbrev  0x000035ec       0x6f /CMC/tools/altera/13.1/nios2eds/bin/gnu/H-i686-pc-linux-gnu/bin/../lib/gcc/nios2-elf/4.7.3/../../../../../H-i686-pc-linux-gnu/nios2-elf/lib/mno-hw-mul/libc.a(lib_a-s_isinfd.o)
 .debug_abbrev  0x0000365b       0x6f /CMC/tools/altera/13.1/nios2eds/bin/gnu/H-i686-pc-linux-gnu/bin/../lib/gcc/nios2-elf/4.7.3/../../../../../H-i686-pc-linux-gnu/nios2-elf/lib/mno-hw-mul/libc.a(lib_a-s_isnand.o)
 .debug_abbrev  0x000036ca      0x1df /CMC/tools/altera/13.1/nios2eds/bin/gnu/H-i686-pc-linux-gnu/bin/../lib/gcc/nios2-elf/4.7.3/../../../../../H-i686-pc-linux-gnu/nios2-elf/lib/mno-hw-mul/libc.a(lib_a-sbrkr.o)
 .debug_abbrev  0x000038a9      0x226 /CMC/tools/altera/13.1/nios2eds/bin/gnu/H-i686-pc-linux-gnu/bin/../lib/gcc/nios2-elf/4.7.3/../../../../../H-i686-pc-linux-gnu/nios2-elf/lib/mno-hw-mul/libc.a(lib_a-stdio.o)
 .debug_abbrev  0x00003acf       0x74 /CMC/tools/altera/13.1/nios2eds/bin/gnu/H-i686-pc-linux-gnu/bin/../lib/gcc/nios2-elf/4.7.3/../../../../../H-i686-pc-linux-gnu/nios2-elf/lib/mno-hw-mul/libc.a(lib_a-strcmp.o)
 .debug_abbrev  0x00003b43      0x1c0 /CMC/tools/altera/13.1/nios2eds/bin/gnu/H-i686-pc-linux-gnu/bin/../lib/gcc/nios2-elf/4.7.3/../../../../../H-i686-pc-linux-gnu/nios2-elf/lib/mno-hw-mul/libc.a(lib_a-writer.o)
 .debug_abbrev  0x00003d03      0x202 /CMC/tools/altera/13.1/nios2eds/bin/gnu/H-i686-pc-linux-gnu/bin/../lib/gcc/nios2-elf/4.7.3/../../../../../H-i686-pc-linux-gnu/nios2-elf/lib/mno-hw-mul/libc.a(lib_a-callocr.o)
 .debug_abbrev  0x00003f05      0x1bb /CMC/tools/altera/13.1/nios2eds/bin/gnu/H-i686-pc-linux-gnu/bin/../lib/gcc/nios2-elf/4.7.3/../../../../../H-i686-pc-linux-gnu/nios2-elf/lib/mno-hw-mul/libc.a(lib_a-closer.o)
 .debug_abbrev  0x000040c0      0x24e /CMC/tools/altera/13.1/nios2eds/bin/gnu/H-i686-pc-linux-gnu/bin/../lib/gcc/nios2-elf/4.7.3/../../../../../H-i686-pc-linux-gnu/nios2-elf/lib/mno-hw-mul/libc.a(lib_a-fclose.o)
 .debug_abbrev  0x0000430e      0x1ca /CMC/tools/altera/13.1/nios2eds/bin/gnu/H-i686-pc-linux-gnu/bin/../lib/gcc/nios2-elf/4.7.3/../../../../../H-i686-pc-linux-gnu/nios2-elf/lib/mno-hw-mul/libc.a(lib_a-fstatr.o)
 .debug_abbrev  0x000044d8       0x37 /CMC/tools/altera/13.1/nios2eds/bin/gnu/H-i686-pc-linux-gnu/bin/../lib/gcc/nios2-elf/4.7.3/../../../../../H-i686-pc-linux-gnu/nios2-elf/lib/mno-hw-mul/libc.a(lib_a-int_errno.o)
 .debug_abbrev  0x0000450f      0x1bb /CMC/tools/altera/13.1/nios2eds/bin/gnu/H-i686-pc-linux-gnu/bin/../lib/gcc/nios2-elf/4.7.3/../../../../../H-i686-pc-linux-gnu/nios2-elf/lib/mno-hw-mul/libc.a(lib_a-isattyr.o)
 .debug_abbrev  0x000046ca      0x1ca /CMC/tools/altera/13.1/nios2eds/bin/gnu/H-i686-pc-linux-gnu/bin/../lib/gcc/nios2-elf/4.7.3/../../../../../H-i686-pc-linux-gnu/nios2-elf/lib/mno-hw-mul/libc.a(lib_a-lseekr.o)
 .debug_abbrev  0x00004894      0x1bb /CMC/tools/altera/13.1/nios2eds/bin/gnu/H-i686-pc-linux-gnu/bin/../lib/gcc/nios2-elf/4.7.3/../../../../../H-i686-pc-linux-gnu/nios2-elf/lib/mno-hw-mul/libc.a(lib_a-readr.o)
 .debug_abbrev  0x00004a4f      0x170 /CMC/tools/altera/13.1/nios2eds/bin/gnu/H-i686-pc-linux-gnu/bin/../lib/gcc/nios2-elf/4.7.3/mno-hw-mul/libgcc.a(_udivdi3.o)
 .debug_abbrev  0x00004bbf      0x19c /CMC/tools/altera/13.1/nios2eds/bin/gnu/H-i686-pc-linux-gnu/bin/../lib/gcc/nios2-elf/4.7.3/mno-hw-mul/libgcc.a(_umoddi3.o)
 .debug_abbrev  0x00004d5b      0x22d /CMC/tools/altera/13.1/nios2eds/bin/gnu/H-i686-pc-linux-gnu/bin/../lib/gcc/nios2-elf/4.7.3/mno-hw-mul/libgcc.a(_addsub_df.o)
 .debug_abbrev  0x00004f88      0x240 /CMC/tools/altera/13.1/nios2eds/bin/gnu/H-i686-pc-linux-gnu/bin/../lib/gcc/nios2-elf/4.7.3/mno-hw-mul/libgcc.a(_mul_df.o)
 .debug_abbrev  0x000051c8      0x245 /CMC/tools/altera/13.1/nios2eds/bin/gnu/H-i686-pc-linux-gnu/bin/../lib/gcc/nios2-elf/4.7.3/mno-hw-mul/libgcc.a(_div_df.o)
 .debug_abbrev  0x0000540d      0x1a5 /CMC/tools/altera/13.1/nios2eds/bin/gnu/H-i686-pc-linux-gnu/bin/../lib/gcc/nios2-elf/4.7.3/mno-hw-mul/libgcc.a(_eq_df.o)
 .debug_abbrev  0x000055b2      0x1a5 /CMC/tools/altera/13.1/nios2eds/bin/gnu/H-i686-pc-linux-gnu/bin/../lib/gcc/nios2-elf/4.7.3/mno-hw-mul/libgcc.a(_ne_df.o)
 .debug_abbrev  0x00005757      0x1a5 /CMC/tools/altera/13.1/nios2eds/bin/gnu/H-i686-pc-linux-gnu/bin/../lib/gcc/nios2-elf/4.7.3/mno-hw-mul/libgcc.a(_gt_df.o)
 .debug_abbrev  0x000058fc      0x1a5 /CMC/tools/altera/13.1/nios2eds/bin/gnu/H-i686-pc-linux-gnu/bin/../lib/gcc/nios2-elf/4.7.3/mno-hw-mul/libgcc.a(_ge_df.o)
 .debug_abbrev  0x00005aa1      0x1a5 /CMC/tools/altera/13.1/nios2eds/bin/gnu/H-i686-pc-linux-gnu/bin/../lib/gcc/nios2-elf/4.7.3/mno-hw-mul/libgcc.a(_lt_df.o)
 .debug_abbrev  0x00005c46      0x19c /CMC/tools/altera/13.1/nios2eds/bin/gnu/H-i686-pc-linux-gnu/bin/../lib/gcc/nios2-elf/4.7.3/mno-hw-mul/libgcc.a(_si_to_df.o)
 .debug_abbrev  0x00005de2      0x1ae /CMC/tools/altera/13.1/nios2eds/bin/gnu/H-i686-pc-linux-gnu/bin/../lib/gcc/nios2-elf/4.7.3/mno-hw-mul/libgcc.a(_df_to_si.o)
 .debug_abbrev  0x00005f90       0xb6 /CMC/tools/altera/13.1/nios2eds/bin/gnu/H-i686-pc-linux-gnu/bin/../lib/gcc/nios2-elf/4.7.3/mno-hw-mul/libgcc.a(_thenan_df.o)
 .debug_abbrev  0x00006046      0x1bf /CMC/tools/altera/13.1/nios2eds/bin/gnu/H-i686-pc-linux-gnu/bin/../lib/gcc/nios2-elf/4.7.3/mno-hw-mul/libgcc.a(_usi_to_df.o)
 .debug_abbrev  0x00006205      0x112 /CMC/tools/altera/13.1/nios2eds/bin/gnu/H-i686-pc-linux-gnu/bin/../lib/gcc/nios2-elf/4.7.3/mno-hw-mul/libgcc.a(lib2-divmod.o)
 .debug_abbrev  0x00006317       0xe0 /CMC/tools/altera/13.1/nios2eds/bin/gnu/H-i686-pc-linux-gnu/bin/../lib/gcc/nios2-elf/4.7.3/mno-hw-mul/libgcc.a(_muldi3.o)
 .debug_abbrev  0x000063f7       0x5d /CMC/tools/altera/13.1/nios2eds/bin/gnu/H-i686-pc-linux-gnu/bin/../lib/gcc/nios2-elf/4.7.3/mno-hw-mul/libgcc.a(_clz.o)
 .debug_abbrev  0x00006454       0xbe /CMC/tools/altera/13.1/nios2eds/bin/gnu/H-i686-pc-linux-gnu/bin/../lib/gcc/nios2-elf/4.7.3/mno-hw-mul/libgcc.a(_clzsi2.o)
 .debug_abbrev  0x00006512      0x1b6 /CMC/tools/altera/13.1/nios2eds/bin/gnu/H-i686-pc-linux-gnu/bin/../lib/gcc/nios2-elf/4.7.3/mno-hw-mul/libgcc.a(_pack_df.o)
 .debug_abbrev  0x000066c8      0x15d /CMC/tools/altera/13.1/nios2eds/bin/gnu/H-i686-pc-linux-gnu/bin/../lib/gcc/nios2-elf/4.7.3/mno-hw-mul/libgcc.a(_unpack_df.o)
 .debug_abbrev  0x00006825      0x146 /CMC/tools/altera/13.1/nios2eds/bin/gnu/H-i686-pc-linux-gnu/bin/../lib/gcc/nios2-elf/4.7.3/mno-hw-mul/libgcc.a(_fpcmp_parts_df.o)
 .debug_abbrev  0x0000696b       0xf1 /CMC/tools/altera/13.1/nios2eds/bin/gnu/H-i686-pc-linux-gnu/bin/../lib/gcc/nios2-elf/4.7.3/mno-hw-mul/libgcc.a(_lshrdi3.o)
 .debug_abbrev  0x00006a5c       0xf1 /CMC/tools/altera/13.1/nios2eds/bin/gnu/H-i686-pc-linux-gnu/bin/../lib/gcc/nios2-elf/4.7.3/mno-hw-mul/libgcc.a(_ashldi3.o)
 .debug_abbrev  0x00006b4d      0x126 ../ucosMon_bsp//libucosii_bsp.a(alt_close.o)
 .debug_abbrev  0x00006c73      0x11c ../ucosMon_bsp//libucosii_bsp.a(alt_dev.o)
 .debug_abbrev  0x00006d8f      0x10b ../ucosMon_bsp//libucosii_bsp.a(alt_dma_rxchan_open.o)
 .debug_abbrev  0x00006e9a      0x110 ../ucosMon_bsp//libucosii_bsp.a(alt_dma_txchan_open.o)
 .debug_abbrev  0x00006faa       0x5a ../ucosMon_bsp//libucosii_bsp.a(alt_errno.o)
 .debug_abbrev  0x00007004       0xde ../ucosMon_bsp//libucosii_bsp.a(alt_exit.o)
 .debug_abbrev  0x000070e2       0xf7 ../ucosMon_bsp//libucosii_bsp.a(alt_find_dev.o)
 .debug_abbrev  0x000071d9      0x126 ../ucosMon_bsp//libucosii_bsp.a(alt_fstat.o)
 .debug_abbrev  0x000072ff      0x16a ../ucosMon_bsp//libucosii_bsp.a(alt_iic.o)
 .debug_abbrev  0x00007469      0x169 ../ucosMon_bsp//libucosii_bsp.a(alt_iic_isr_register.o)
 .debug_abbrev  0x000075d2       0x12 ../ucosMon_bsp//libucosii_bsp.a(alt_irq_entry.o)
 .debug_abbrev  0x000075e4      0x13c ../ucosMon_bsp//libucosii_bsp.a(alt_irq_handler.o)
 .debug_abbrev  0x00007720       0x40 ../ucosMon_bsp//libucosii_bsp.a(alt_irq_vars.o)
 .debug_abbrev  0x00007760      0x126 ../ucosMon_bsp//libucosii_bsp.a(alt_isatty.o)
 .debug_abbrev  0x00007886       0x9d ../ucosMon_bsp//libucosii_bsp.a(alt_load.o)
 .debug_abbrev  0x00007923      0x126 ../ucosMon_bsp//libucosii_bsp.a(alt_lseek.o)
 .debug_abbrev  0x00007a49      0x139 ../ucosMon_bsp//libucosii_bsp.a(alt_main.o)
 .debug_abbrev  0x00007b82      0x135 ../ucosMon_bsp//libucosii_bsp.a(alt_read.o)
 .debug_abbrev  0x00007cb7       0xe5 ../ucosMon_bsp//libucosii_bsp.a(alt_release_fd.o)
 .debug_abbrev  0x00007d9c      0x112 ../ucosMon_bsp//libucosii_bsp.a(alt_sbrk.o)
 .debug_abbrev  0x00007eae       0xf1 ../ucosMon_bsp//libucosii_bsp.a(alt_times.o)
 .debug_abbrev  0x00007f9f      0x13a ../ucosMon_bsp//libucosii_bsp.a(alt_write.o)
 .debug_abbrev  0x000080d9      0x1b6 ../ucosMon_bsp//libucosii_bsp.a(alt_env_lock.o)
 .debug_abbrev  0x0000828f      0x240 ../ucosMon_bsp//libucosii_bsp.a(alt_malloc_lock.o)
 .debug_abbrev  0x000084cf      0x302 ../ucosMon_bsp//libucosii_bsp.a(os_core.o)
 .debug_abbrev  0x000087d1       0xf7 ../ucosMon_bsp//libucosii_bsp.a(os_dbg.o)
 .debug_abbrev  0x000088c8      0x25a ../ucosMon_bsp//libucosii_bsp.a(os_flag.o)
 .debug_abbrev  0x00008b22      0x228 ../ucosMon_bsp//libucosii_bsp.a(os_mem.o)
 .debug_abbrev  0x00008d4a      0x248 ../ucosMon_bsp//libucosii_bsp.a(os_q.o)
 .debug_abbrev  0x00008f92      0x262 ../ucosMon_bsp//libucosii_bsp.a(os_sem.o)
 .debug_abbrev  0x000091f4      0x247 ../ucosMon_bsp//libucosii_bsp.a(os_task.o)
 .debug_abbrev  0x0000943b      0x20c ../ucosMon_bsp//libucosii_bsp.a(os_time.o)
 .debug_abbrev  0x00009647      0x22a ../ucosMon_bsp//libucosii_bsp.a(alt_sys_init.o)
 .debug_abbrev  0x00009871      0x284 ../ucosMon_bsp//libucosii_bsp.a(altera_avalon_dma.o)
 .debug_abbrev  0x00009af5      0x15d ../ucosMon_bsp//libucosii_bsp.a(altera_avalon_jtag_uart_fd.o)
 .debug_abbrev  0x00009c52      0x240 ../ucosMon_bsp//libucosii_bsp.a(altera_avalon_jtag_uart_init.o)
 .debug_abbrev  0x00009e92      0x147 ../ucosMon_bsp//libucosii_bsp.a(altera_avalon_jtag_uart_ioctl.o)
 .debug_abbrev  0x00009fd9      0x1e9 ../ucosMon_bsp//libucosii_bsp.a(altera_avalon_jtag_uart_read.o)
 .debug_abbrev  0x0000a1c2      0x1e7 ../ucosMon_bsp//libucosii_bsp.a(altera_avalon_jtag_uart_write.o)
 .debug_abbrev  0x0000a3a9      0x219 ../ucosMon_bsp//libucosii_bsp.a(altera_avalon_mutex.o)
 .debug_abbrev  0x0000a5c2      0x155 ../ucosMon_bsp//libucosii_bsp.a(altera_avalon_timer_sc.o)
 .debug_abbrev  0x0000a717       0x83 ../ucosMon_bsp//libucosii_bsp.a(altera_avalon_timer_vars.o)
 .debug_abbrev  0x0000a79a      0x239 ../ucosMon_bsp//libucosii_bsp.a(altera_ro_zipfs.o)
 .debug_abbrev  0x0000a9d3      0x162 ../ucosMon_bsp//libucosii_bsp.a(alt_alarm_start.o)
 .debug_abbrev  0x0000ab35       0x42 ../ucosMon_bsp//libucosii_bsp.a(alt_dcache_flush_all.o)
 .debug_abbrev  0x0000ab77      0x114 ../ucosMon_bsp//libucosii_bsp.a(alt_dev_llist_insert.o)
 .debug_abbrev  0x0000ac8b       0x79 ../ucosMon_bsp//libucosii_bsp.a(alt_do_ctors.o)
 .debug_abbrev  0x0000ad04       0x79 ../ucosMon_bsp//libucosii_bsp.a(alt_do_dtors.o)
 .debug_abbrev  0x0000ad7d       0x12 ../ucosMon_bsp//libucosii_bsp.a(alt_exception_entry.o)
 .debug_abbrev  0x0000ad8f      0x10f ../ucosMon_bsp//libucosii_bsp.a(alt_fs_reg.o)
 .debug_abbrev  0x0000ae9e       0x42 ../ucosMon_bsp//libucosii_bsp.a(alt_icache_flush_all.o)
 .debug_abbrev  0x0000aee0      0x11b ../ucosMon_bsp//libucosii_bsp.a(alt_io_redirect.o)
 .debug_abbrev  0x0000affb      0x14f ../ucosMon_bsp//libucosii_bsp.a(alt_open.o)
 .debug_abbrev  0x0000b14a      0x15a ../ucosMon_bsp//libucosii_bsp.a(alt_tick.o)
 .debug_abbrev  0x0000b2a4       0x42 ../ucosMon_bsp//libucosii_bsp.a(altera_nios2_qsys_irq.o)
 .debug_abbrev  0x0000b2e6       0x14 ../ucosMon_bsp//libucosii_bsp.a(os_cpu_a.o)
 .debug_abbrev  0x0000b2fa      0x1f7 ../ucosMon_bsp//libucosii_bsp.a(os_cpu_c.o)
 .debug_abbrev  0x0000b4f1       0xf7 ../ucosMon_bsp//libucosii_bsp.a(alt_find_file.o)
 .debug_abbrev  0x0000b5e8      0x19b ../ucosMon_bsp//libucosii_bsp.a(alt_get_fd.o)
 .debug_abbrev  0x0000b783       0x8c ../ucosMon_bsp//libucosii_bsp.a(alt_icache_flush.o)
 .debug_abbrev  0x0000b80f      0x106 /CMC/tools/altera/13.1/nios2eds/bin/gnu/H-i686-pc-linux-gnu/bin/../lib/gcc/nios2-elf/4.7.3/../../../../../H-i686-pc-linux-gnu/nios2-elf/lib/mno-hw-mul/libc.a(lib_a-atexit.o)
 .debug_abbrev  0x0000b915       0x7f /CMC/tools/altera/13.1/nios2eds/bin/gnu/H-i686-pc-linux-gnu/bin/../lib/gcc/nios2-elf/4.7.3/../../../../../H-i686-pc-linux-gnu/nios2-elf/lib/mno-hw-mul/libc.a(lib_a-memcmp.o)
 .debug_abbrev  0x0000b994       0x81 /CMC/tools/altera/13.1/nios2eds/bin/gnu/H-i686-pc-linux-gnu/bin/../lib/gcc/nios2-elf/4.7.3/../../../../../H-i686-pc-linux-gnu/nios2-elf/lib/mno-hw-mul/libc.a(lib_a-strncmp.o)
 .debug_abbrev  0x0000ba15      0x211 /CMC/tools/altera/13.1/nios2eds/bin/gnu/H-i686-pc-linux-gnu/bin/../lib/gcc/nios2-elf/4.7.3/../../../../../H-i686-pc-linux-gnu/nios2-elf/lib/mno-hw-mul/libc.a(lib_a-__atexit.o)
 .debug_abbrev  0x0000bc26       0x60 /CMC/tools/altera/13.1/nios2eds/bin/gnu/H-i686-pc-linux-gnu/bin/../lib/gcc/nios2-elf/4.7.3/mno-hw-mul/libgcc.a(_fixunsdfsi.o)

.debug_line     0x00000000     0xe292
 *(.debug_line)
 .debug_line    0x00000000       0x6c ../ucosMon_bsp//obj/HAL/src/crt0.o
 .debug_line    0x0000006c      0x391 obj/default/Monitor.o
 .debug_line    0x000003fd       0x3a obj/default/gp.o
 .debug_line    0x00000437       0x6d ../critical_library/libcritical_library.a(critical.o)
 .debug_line    0x000004a4      0x124 ../critical_library/libcritical_library.a(fingerprint.o)
 .debug_line    0x000005c8       0x80 /CMC/tools/altera/13.1/nios2eds/bin/gnu/H-i686-pc-linux-gnu/bin/../lib/gcc/nios2-elf/4.7.3/mno-hw-mul/libgcc.a(lib2-mul.o)
 .debug_line    0x00000648      0x222 /CMC/tools/altera/13.1/nios2eds/bin/gnu/H-i686-pc-linux-gnu/bin/../lib/gcc/nios2-elf/4.7.3/../../../../../H-i686-pc-linux-gnu/nios2-elf/lib/mno-hw-mul/libc.a(lib_a-clock.o)
 .debug_line    0x0000086a      0x21c /CMC/tools/altera/13.1/nios2eds/bin/gnu/H-i686-pc-linux-gnu/bin/../lib/gcc/nios2-elf/4.7.3/../../../../../H-i686-pc-linux-gnu/nios2-elf/lib/mno-hw-mul/libc.a(lib_a-exit.o)
 .debug_line    0x00000a86      0x176 /CMC/tools/altera/13.1/nios2eds/bin/gnu/H-i686-pc-linux-gnu/bin/../lib/gcc/nios2-elf/4.7.3/../../../../../H-i686-pc-linux-gnu/nios2-elf/lib/mno-hw-mul/libc.a(lib_a-impure.o)
 .debug_line    0x00000bfc      0x144 /CMC/tools/altera/13.1/nios2eds/bin/gnu/H-i686-pc-linux-gnu/bin/../lib/gcc/nios2-elf/4.7.3/../../../../../H-i686-pc-linux-gnu/nios2-elf/lib/mno-hw-mul/libc.a(lib_a-memcpy.o)
 .debug_line    0x00000d40      0x21b /CMC/tools/altera/13.1/nios2eds/bin/gnu/H-i686-pc-linux-gnu/bin/../lib/gcc/nios2-elf/4.7.3/../../../../../H-i686-pc-linux-gnu/nios2-elf/lib/mno-hw-mul/libc.a(lib_a-printf.o)
 .debug_line    0x00000f5b      0x238 /CMC/tools/altera/13.1/nios2eds/bin/gnu/H-i686-pc-linux-gnu/bin/../lib/gcc/nios2-elf/4.7.3/../../../../../H-i686-pc-linux-gnu/nios2-elf/lib/mno-hw-mul/libc.a(lib_a-puts.o)
 .debug_line    0x00001193      0x185 /CMC/tools/altera/13.1/nios2eds/bin/gnu/H-i686-pc-linux-gnu/bin/../lib/gcc/nios2-elf/4.7.3/../../../../../H-i686-pc-linux-gnu/nios2-elf/lib/mno-hw-mul/libc.a(lib_a-strlen.o)
 .debug_line    0x00001318      0x215 /CMC/tools/altera/13.1/nios2eds/bin/gnu/H-i686-pc-linux-gnu/bin/../lib/gcc/nios2-elf/4.7.3/../../../../../H-i686-pc-linux-gnu/nios2-elf/lib/mno-hw-mul/libc.a(lib_a-timesr.o)
 .debug_line    0x0000152d      0xb06 /CMC/tools/altera/13.1/nios2eds/bin/gnu/H-i686-pc-linux-gnu/bin/../lib/gcc/nios2-elf/4.7.3/../../../../../H-i686-pc-linux-gnu/nios2-elf/lib/mno-hw-mul/libc.a(lib_a-vfprintf.o)
 .debug_line    0x00002033      0x26e /CMC/tools/altera/13.1/nios2eds/bin/gnu/H-i686-pc-linux-gnu/bin/../lib/gcc/nios2-elf/4.7.3/../../../../../H-i686-pc-linux-gnu/nios2-elf/lib/mno-hw-mul/libc.a(lib_a-wsetup.o)
 .debug_line    0x000022a1      0x267 /CMC/tools/altera/13.1/nios2eds/bin/gnu/H-i686-pc-linux-gnu/bin/../lib/gcc/nios2-elf/4.7.3/../../../../../H-i686-pc-linux-gnu/nios2-elf/lib/mno-hw-mul/libc.a(lib_a-__call_atexit.o)
 .debug_line    0x00002508      0x893 /CMC/tools/altera/13.1/nios2eds/bin/gnu/H-i686-pc-linux-gnu/bin/../lib/gcc/nios2-elf/4.7.3/../../../../../H-i686-pc-linux-gnu/nios2-elf/lib/mno-hw-mul/libc.a(lib_a-dtoa.o)
 .debug_line    0x00002d9b      0x29f /CMC/tools/altera/13.1/nios2eds/bin/gnu/H-i686-pc-linux-gnu/bin/../lib/gcc/nios2-elf/4.7.3/../../../../../H-i686-pc-linux-gnu/nios2-elf/lib/mno-hw-mul/libc.a(lib_a-fflush.o)
 .debug_line    0x0000303a      0x2ea /CMC/tools/altera/13.1/nios2eds/bin/gnu/H-i686-pc-linux-gnu/bin/../lib/gcc/nios2-elf/4.7.3/../../../../../H-i686-pc-linux-gnu/nios2-elf/lib/mno-hw-mul/libc.a(lib_a-findfp.o)
 .debug_line    0x00003324      0x314 /CMC/tools/altera/13.1/nios2eds/bin/gnu/H-i686-pc-linux-gnu/bin/../lib/gcc/nios2-elf/4.7.3/../../../../../H-i686-pc-linux-gnu/nios2-elf/lib/mno-hw-mul/libc.a(lib_a-freer.o)
 .debug_line    0x00003638      0x363 /CMC/tools/altera/13.1/nios2eds/bin/gnu/H-i686-pc-linux-gnu/bin/../lib/gcc/nios2-elf/4.7.3/../../../../../H-i686-pc-linux-gnu/nios2-elf/lib/mno-hw-mul/libc.a(lib_a-fvwrite.o)
 .debug_line    0x0000399b      0x25c /CMC/tools/altera/13.1/nios2eds/bin/gnu/H-i686-pc-linux-gnu/bin/../lib/gcc/nios2-elf/4.7.3/../../../../../H-i686-pc-linux-gnu/nios2-elf/lib/mno-hw-mul/libc.a(lib_a-fwalk.o)
 .debug_line    0x00003bf7      0x234 /CMC/tools/altera/13.1/nios2eds/bin/gnu/H-i686-pc-linux-gnu/bin/../lib/gcc/nios2-elf/4.7.3/../../../../../H-i686-pc-linux-gnu/nios2-elf/lib/mno-hw-mul/libc.a(lib_a-locale.o)
 .debug_line    0x00003e2b      0x296 /CMC/tools/altera/13.1/nios2eds/bin/gnu/H-i686-pc-linux-gnu/bin/../lib/gcc/nios2-elf/4.7.3/../../../../../H-i686-pc-linux-gnu/nios2-elf/lib/mno-hw-mul/libc.a(lib_a-makebuf.o)
 .debug_line    0x000040c1      0x424 /CMC/tools/altera/13.1/nios2eds/bin/gnu/H-i686-pc-linux-gnu/bin/../lib/gcc/nios2-elf/4.7.3/../../../../../H-i686-pc-linux-gnu/nios2-elf/lib/mno-hw-mul/libc.a(lib_a-mallocr.o)
 .debug_line    0x000044e5      0x1f4 /CMC/tools/altera/13.1/nios2eds/bin/gnu/H-i686-pc-linux-gnu/bin/../lib/gcc/nios2-elf/4.7.3/../../../../../H-i686-pc-linux-gnu/nios2-elf/lib/mno-hw-mul/libc.a(lib_a-memchr.o)
 .debug_line    0x000046d9      0x1f9 /CMC/tools/altera/13.1/nios2eds/bin/gnu/H-i686-pc-linux-gnu/bin/../lib/gcc/nios2-elf/4.7.3/../../../../../H-i686-pc-linux-gnu/nios2-elf/lib/mno-hw-mul/libc.a(lib_a-memmove.o)
 .debug_line    0x000048d2      0x1f4 /CMC/tools/altera/13.1/nios2eds/bin/gnu/H-i686-pc-linux-gnu/bin/../lib/gcc/nios2-elf/4.7.3/../../../../../H-i686-pc-linux-gnu/nios2-elf/lib/mno-hw-mul/libc.a(lib_a-memset.o)
 .debug_line    0x00004ac6      0x713 /CMC/tools/altera/13.1/nios2eds/bin/gnu/H-i686-pc-linux-gnu/bin/../lib/gcc/nios2-elf/4.7.3/../../../../../H-i686-pc-linux-gnu/nios2-elf/lib/mno-hw-mul/libc.a(lib_a-mprec.o)
 .debug_line    0x000051d9      0x333 /CMC/tools/altera/13.1/nios2eds/bin/gnu/H-i686-pc-linux-gnu/bin/../lib/gcc/nios2-elf/4.7.3/../../../../../H-i686-pc-linux-gnu/nios2-elf/lib/mno-hw-mul/libc.a(lib_a-reallocr.o)
 .debug_line    0x0000550c      0x173 /CMC/tools/altera/13.1/nios2eds/bin/gnu/H-i686-pc-linux-gnu/bin/../lib/gcc/nios2-elf/4.7.3/../../../../../H-i686-pc-linux-gnu/nios2-elf/lib/mno-hw-mul/libc.a(lib_a-s_isinfd.o)
 .debug_line    0x0000567f      0x173 /CMC/tools/altera/13.1/nios2eds/bin/gnu/H-i686-pc-linux-gnu/bin/../lib/gcc/nios2-elf/4.7.3/../../../../../H-i686-pc-linux-gnu/nios2-elf/lib/mno-hw-mul/libc.a(lib_a-s_isnand.o)
 .debug_line    0x000057f2      0x215 /CMC/tools/altera/13.1/nios2eds/bin/gnu/H-i686-pc-linux-gnu/bin/../lib/gcc/nios2-elf/4.7.3/../../../../../H-i686-pc-linux-gnu/nios2-elf/lib/mno-hw-mul/libc.a(lib_a-sbrkr.o)
 .debug_line    0x00005a07      0x248 /CMC/tools/altera/13.1/nios2eds/bin/gnu/H-i686-pc-linux-gnu/bin/../lib/gcc/nios2-elf/4.7.3/../../../../../H-i686-pc-linux-gnu/nios2-elf/lib/mno-hw-mul/libc.a(lib_a-stdio.o)
 .debug_line    0x00005c4f      0x113 /CMC/tools/altera/13.1/nios2eds/bin/gnu/H-i686-pc-linux-gnu/bin/../lib/gcc/nios2-elf/4.7.3/../../../../../H-i686-pc-linux-gnu/nios2-elf/lib/mno-hw-mul/libc.a(lib_a-strcmp.o)
 .debug_line    0x00005d62      0x216 /CMC/tools/altera/13.1/nios2eds/bin/gnu/H-i686-pc-linux-gnu/bin/../lib/gcc/nios2-elf/4.7.3/../../../../../H-i686-pc-linux-gnu/nios2-elf/lib/mno-hw-mul/libc.a(lib_a-writer.o)
 .debug_line    0x00005f78      0x1c9 /CMC/tools/altera/13.1/nios2eds/bin/gnu/H-i686-pc-linux-gnu/bin/../lib/gcc/nios2-elf/4.7.3/../../../../../H-i686-pc-linux-gnu/nios2-elf/lib/mno-hw-mul/libc.a(lib_a-callocr.o)
 .debug_line    0x00006141      0x216 /CMC/tools/altera/13.1/nios2eds/bin/gnu/H-i686-pc-linux-gnu/bin/../lib/gcc/nios2-elf/4.7.3/../../../../../H-i686-pc-linux-gnu/nios2-elf/lib/mno-hw-mul/libc.a(lib_a-closer.o)
 .debug_line    0x00006357      0x269 /CMC/tools/altera/13.1/nios2eds/bin/gnu/H-i686-pc-linux-gnu/bin/../lib/gcc/nios2-elf/4.7.3/../../../../../H-i686-pc-linux-gnu/nios2-elf/lib/mno-hw-mul/libc.a(lib_a-fclose.o)
 .debug_line    0x000065c0      0x21f /CMC/tools/altera/13.1/nios2eds/bin/gnu/H-i686-pc-linux-gnu/bin/../lib/gcc/nios2-elf/4.7.3/../../../../../H-i686-pc-linux-gnu/nios2-elf/lib/mno-hw-mul/libc.a(lib_a-fstatr.o)
 .debug_line    0x000067df       0x60 /CMC/tools/altera/13.1/nios2eds/bin/gnu/H-i686-pc-linux-gnu/bin/../lib/gcc/nios2-elf/4.7.3/../../../../../H-i686-pc-linux-gnu/nios2-elf/lib/mno-hw-mul/libc.a(lib_a-int_errno.o)
 .debug_line    0x0000683f      0x217 /CMC/tools/altera/13.1/nios2eds/bin/gnu/H-i686-pc-linux-gnu/bin/../lib/gcc/nios2-elf/4.7.3/../../../../../H-i686-pc-linux-gnu/nios2-elf/lib/mno-hw-mul/libc.a(lib_a-isattyr.o)
 .debug_line    0x00006a56      0x221 /CMC/tools/altera/13.1/nios2eds/bin/gnu/H-i686-pc-linux-gnu/bin/../lib/gcc/nios2-elf/4.7.3/../../../../../H-i686-pc-linux-gnu/nios2-elf/lib/mno-hw-mul/libc.a(lib_a-lseekr.o)
 .debug_line    0x00006c77      0x215 /CMC/tools/altera/13.1/nios2eds/bin/gnu/H-i686-pc-linux-gnu/bin/../lib/gcc/nios2-elf/4.7.3/../../../../../H-i686-pc-linux-gnu/nios2-elf/lib/mno-hw-mul/libc.a(lib_a-readr.o)
 .debug_line    0x00006e8c      0x11c /CMC/tools/altera/13.1/nios2eds/bin/gnu/H-i686-pc-linux-gnu/bin/../lib/gcc/nios2-elf/4.7.3/mno-hw-mul/libgcc.a(_udivdi3.o)
 .debug_line    0x00006fa8      0x124 /CMC/tools/altera/13.1/nios2eds/bin/gnu/H-i686-pc-linux-gnu/bin/../lib/gcc/nios2-elf/4.7.3/mno-hw-mul/libgcc.a(_umoddi3.o)
 .debug_line    0x000070cc      0x134 /CMC/tools/altera/13.1/nios2eds/bin/gnu/H-i686-pc-linux-gnu/bin/../lib/gcc/nios2-elf/4.7.3/mno-hw-mul/libgcc.a(_addsub_df.o)
 .debug_line    0x00007200      0x117 /CMC/tools/altera/13.1/nios2eds/bin/gnu/H-i686-pc-linux-gnu/bin/../lib/gcc/nios2-elf/4.7.3/mno-hw-mul/libgcc.a(_mul_df.o)
 .debug_line    0x00007317       0xd1 /CMC/tools/altera/13.1/nios2eds/bin/gnu/H-i686-pc-linux-gnu/bin/../lib/gcc/nios2-elf/4.7.3/mno-hw-mul/libgcc.a(_div_df.o)
 .debug_line    0x000073e8       0x70 /CMC/tools/altera/13.1/nios2eds/bin/gnu/H-i686-pc-linux-gnu/bin/../lib/gcc/nios2-elf/4.7.3/mno-hw-mul/libgcc.a(_eq_df.o)
 .debug_line    0x00007458       0x70 /CMC/tools/altera/13.1/nios2eds/bin/gnu/H-i686-pc-linux-gnu/bin/../lib/gcc/nios2-elf/4.7.3/mno-hw-mul/libgcc.a(_ne_df.o)
 .debug_line    0x000074c8       0x71 /CMC/tools/altera/13.1/nios2eds/bin/gnu/H-i686-pc-linux-gnu/bin/../lib/gcc/nios2-elf/4.7.3/mno-hw-mul/libgcc.a(_gt_df.o)
 .debug_line    0x00007539       0x71 /CMC/tools/altera/13.1/nios2eds/bin/gnu/H-i686-pc-linux-gnu/bin/../lib/gcc/nios2-elf/4.7.3/mno-hw-mul/libgcc.a(_ge_df.o)
 .debug_line    0x000075aa       0x70 /CMC/tools/altera/13.1/nios2eds/bin/gnu/H-i686-pc-linux-gnu/bin/../lib/gcc/nios2-elf/4.7.3/mno-hw-mul/libgcc.a(_lt_df.o)
 .debug_line    0x0000761a       0x97 /CMC/tools/altera/13.1/nios2eds/bin/gnu/H-i686-pc-linux-gnu/bin/../lib/gcc/nios2-elf/4.7.3/mno-hw-mul/libgcc.a(_si_to_df.o)
 .debug_line    0x000076b1       0x90 /CMC/tools/altera/13.1/nios2eds/bin/gnu/H-i686-pc-linux-gnu/bin/../lib/gcc/nios2-elf/4.7.3/mno-hw-mul/libgcc.a(_df_to_si.o)
 .debug_line    0x00007741       0x54 /CMC/tools/altera/13.1/nios2eds/bin/gnu/H-i686-pc-linux-gnu/bin/../lib/gcc/nios2-elf/4.7.3/mno-hw-mul/libgcc.a(_thenan_df.o)
 .debug_line    0x00007795       0xa1 /CMC/tools/altera/13.1/nios2eds/bin/gnu/H-i686-pc-linux-gnu/bin/../lib/gcc/nios2-elf/4.7.3/mno-hw-mul/libgcc.a(_usi_to_df.o)
 .debug_line    0x00007836       0xd6 /CMC/tools/altera/13.1/nios2eds/bin/gnu/H-i686-pc-linux-gnu/bin/../lib/gcc/nios2-elf/4.7.3/mno-hw-mul/libgcc.a(lib2-divmod.o)
 .debug_line    0x0000790c       0xa2 /CMC/tools/altera/13.1/nios2eds/bin/gnu/H-i686-pc-linux-gnu/bin/../lib/gcc/nios2-elf/4.7.3/mno-hw-mul/libgcc.a(_muldi3.o)
 .debug_line    0x000079ae       0x56 /CMC/tools/altera/13.1/nios2eds/bin/gnu/H-i686-pc-linux-gnu/bin/../lib/gcc/nios2-elf/4.7.3/mno-hw-mul/libgcc.a(_clz.o)
 .debug_line    0x00007a04       0x8f /CMC/tools/altera/13.1/nios2eds/bin/gnu/H-i686-pc-linux-gnu/bin/../lib/gcc/nios2-elf/4.7.3/mno-hw-mul/libgcc.a(_clzsi2.o)
 .debug_line    0x00007a93       0xca /CMC/tools/altera/13.1/nios2eds/bin/gnu/H-i686-pc-linux-gnu/bin/../lib/gcc/nios2-elf/4.7.3/mno-hw-mul/libgcc.a(_pack_df.o)
 .debug_line    0x00007b5d       0xa5 /CMC/tools/altera/13.1/nios2eds/bin/gnu/H-i686-pc-linux-gnu/bin/../lib/gcc/nios2-elf/4.7.3/mno-hw-mul/libgcc.a(_unpack_df.o)
 .debug_line    0x00007c02       0x99 /CMC/tools/altera/13.1/nios2eds/bin/gnu/H-i686-pc-linux-gnu/bin/../lib/gcc/nios2-elf/4.7.3/mno-hw-mul/libgcc.a(_fpcmp_parts_df.o)
 .debug_line    0x00007c9b       0x7a /CMC/tools/altera/13.1/nios2eds/bin/gnu/H-i686-pc-linux-gnu/bin/../lib/gcc/nios2-elf/4.7.3/mno-hw-mul/libgcc.a(_lshrdi3.o)
 .debug_line    0x00007d15       0x78 /CMC/tools/altera/13.1/nios2eds/bin/gnu/H-i686-pc-linux-gnu/bin/../lib/gcc/nios2-elf/4.7.3/mno-hw-mul/libgcc.a(_ashldi3.o)
 .debug_line    0x00007d8d      0x1a2 ../ucosMon_bsp//libucosii_bsp.a(alt_close.o)
 .debug_line    0x00007f2f      0x16a ../ucosMon_bsp//libucosii_bsp.a(alt_dev.o)
 .debug_line    0x00008099       0xef ../ucosMon_bsp//libucosii_bsp.a(alt_dma_rxchan_open.o)
 .debug_line    0x00008188       0xef ../ucosMon_bsp//libucosii_bsp.a(alt_dma_txchan_open.o)
 .debug_line    0x00008277       0x51 ../ucosMon_bsp//libucosii_bsp.a(alt_errno.o)
 .debug_line    0x000082c8       0xcf ../ucosMon_bsp//libucosii_bsp.a(alt_exit.o)
 .debug_line    0x00008397       0xc8 ../ucosMon_bsp//libucosii_bsp.a(alt_find_dev.o)
 .debug_line    0x0000845f      0x19c ../ucosMon_bsp//libucosii_bsp.a(alt_fstat.o)
 .debug_line    0x000085fb       0xf5 ../ucosMon_bsp//libucosii_bsp.a(alt_iic.o)
 .debug_line    0x000086f0       0xeb ../ucosMon_bsp//libucosii_bsp.a(alt_iic_isr_register.o)
 .debug_line    0x000087db       0x6b ../ucosMon_bsp//libucosii_bsp.a(alt_irq_entry.o)
 .debug_line    0x00008846       0xcc ../ucosMon_bsp//libucosii_bsp.a(alt_irq_handler.o)
 .debug_line    0x00008912       0x50 ../ucosMon_bsp//libucosii_bsp.a(alt_irq_vars.o)
 .debug_line    0x00008962      0x19c ../ucosMon_bsp//libucosii_bsp.a(alt_isatty.o)
 .debug_line    0x00008afe       0x92 ../ucosMon_bsp//libucosii_bsp.a(alt_load.o)
 .debug_line    0x00008b90      0x1a0 ../ucosMon_bsp//libucosii_bsp.a(alt_lseek.o)
 .debug_line    0x00008d30      0x130 ../ucosMon_bsp//libucosii_bsp.a(alt_main.o)
 .debug_line    0x00008e60      0x222 ../ucosMon_bsp//libucosii_bsp.a(alt_read.o)
 .debug_line    0x00009082       0xbf ../ucosMon_bsp//libucosii_bsp.a(alt_release_fd.o)
 .debug_line    0x00009141      0x128 ../ucosMon_bsp//libucosii_bsp.a(alt_sbrk.o)
 .debug_line    0x00009269      0x165 ../ucosMon_bsp//libucosii_bsp.a(alt_times.o)
 .debug_line    0x000093ce      0x221 ../ucosMon_bsp//libucosii_bsp.a(alt_write.o)
 .debug_line    0x000095ef      0x1d8 ../ucosMon_bsp//libucosii_bsp.a(alt_env_lock.o)
 .debug_line    0x000097c7      0x251 ../ucosMon_bsp//libucosii_bsp.a(alt_malloc_lock.o)
 .debug_line    0x00009a18      0x729 ../ucosMon_bsp//libucosii_bsp.a(os_core.o)
 .debug_line    0x0000a141       0xd2 ../ucosMon_bsp//libucosii_bsp.a(os_dbg.o)
 .debug_line    0x0000a213      0x5a1 ../ucosMon_bsp//libucosii_bsp.a(os_flag.o)
 .debug_line    0x0000a7b4      0x26a ../ucosMon_bsp//libucosii_bsp.a(os_mem.o)
 .debug_line    0x0000aa1e      0x486 ../ucosMon_bsp//libucosii_bsp.a(os_q.o)
 .debug_line    0x0000aea4      0x33d ../ucosMon_bsp//libucosii_bsp.a(os_sem.o)
 .debug_line    0x0000b1e1      0x604 ../ucosMon_bsp//libucosii_bsp.a(os_task.o)
 .debug_line    0x0000b7e5      0x1d5 ../ucosMon_bsp//libucosii_bsp.a(os_time.o)
 .debug_line    0x0000b9ba      0x247 ../ucosMon_bsp//libucosii_bsp.a(alt_sys_init.o)
 .debug_line    0x0000bc01      0x28e ../ucosMon_bsp//libucosii_bsp.a(altera_avalon_dma.o)
 .debug_line    0x0000be8f      0x157 ../ucosMon_bsp//libucosii_bsp.a(altera_avalon_jtag_uart_fd.o)
 .debug_line    0x0000bfe6      0x23c ../ucosMon_bsp//libucosii_bsp.a(altera_avalon_jtag_uart_init.o)
 .debug_line    0x0000c222      0x14f ../ucosMon_bsp//libucosii_bsp.a(altera_avalon_jtag_uart_ioctl.o)
 .debug_line    0x0000c371      0x1e4 ../ucosMon_bsp//libucosii_bsp.a(altera_avalon_jtag_uart_read.o)
 .debug_line    0x0000c555      0x1e5 ../ucosMon_bsp//libucosii_bsp.a(altera_avalon_jtag_uart_write.o)
 .debug_line    0x0000c73a      0x1b5 ../ucosMon_bsp//libucosii_bsp.a(altera_avalon_mutex.o)
 .debug_line    0x0000c8ef      0x101 ../ucosMon_bsp//libucosii_bsp.a(altera_avalon_timer_sc.o)
 .debug_line    0x0000c9f0       0x8a ../ucosMon_bsp//libucosii_bsp.a(altera_avalon_timer_vars.o)
 .debug_line    0x0000ca7a      0x305 ../ucosMon_bsp//libucosii_bsp.a(altera_ro_zipfs.o)
 .debug_line    0x0000cd7f       0xfe ../ucosMon_bsp//libucosii_bsp.a(alt_alarm_start.o)
 .debug_line    0x0000ce7d       0x51 ../ucosMon_bsp//libucosii_bsp.a(alt_dcache_flush_all.o)
 .debug_line    0x0000cece       0xd0 ../ucosMon_bsp//libucosii_bsp.a(alt_dev_llist_insert.o)
 .debug_line    0x0000cf9e       0x59 ../ucosMon_bsp//libucosii_bsp.a(alt_do_ctors.o)
 .debug_line    0x0000cff7       0x59 ../ucosMon_bsp//libucosii_bsp.a(alt_do_dtors.o)
 .debug_line    0x0000d050       0xab ../ucosMon_bsp//libucosii_bsp.a(alt_exception_entry.o)
 .debug_line    0x0000d0fb       0xc5 ../ucosMon_bsp//libucosii_bsp.a(alt_fs_reg.o)
 .debug_line    0x0000d1c0       0x50 ../ucosMon_bsp//libucosii_bsp.a(alt_icache_flush_all.o)
 .debug_line    0x0000d210      0x172 ../ucosMon_bsp//libucosii_bsp.a(alt_io_redirect.o)
 .debug_line    0x0000d382      0x137 ../ucosMon_bsp//libucosii_bsp.a(alt_open.o)
 .debug_line    0x0000d4b9      0x106 ../ucosMon_bsp//libucosii_bsp.a(alt_tick.o)
 .debug_line    0x0000d5bf       0x51 ../ucosMon_bsp//libucosii_bsp.a(altera_nios2_qsys_irq.o)
 .debug_line    0x0000d610       0x86 ../ucosMon_bsp//libucosii_bsp.a(os_cpu_a.o)
 .debug_line    0x0000d696      0x1e1 ../ucosMon_bsp//libucosii_bsp.a(os_cpu_c.o)
 .debug_line    0x0000d877       0xe4 ../ucosMon_bsp//libucosii_bsp.a(alt_find_file.o)
 .debug_line    0x0000d95b      0x127 ../ucosMon_bsp//libucosii_bsp.a(alt_get_fd.o)
 .debug_line    0x0000da82       0x81 ../ucosMon_bsp//libucosii_bsp.a(alt_icache_flush.o)
 .debug_line    0x0000db03      0x170 /CMC/tools/altera/13.1/nios2eds/bin/gnu/H-i686-pc-linux-gnu/bin/../lib/gcc/nios2-elf/4.7.3/../../../../../H-i686-pc-linux-gnu/nios2-elf/lib/mno-hw-mul/libc.a(lib_a-atexit.o)
 .debug_line    0x0000dc73      0x190 /CMC/tools/altera/13.1/nios2eds/bin/gnu/H-i686-pc-linux-gnu/bin/../lib/gcc/nios2-elf/4.7.3/../../../../../H-i686-pc-linux-gnu/nios2-elf/lib/mno-hw-mul/libc.a(lib_a-memcmp.o)
 .debug_line    0x0000de03      0x1cb /CMC/tools/altera/13.1/nios2eds/bin/gnu/H-i686-pc-linux-gnu/bin/../lib/gcc/nios2-elf/4.7.3/../../../../../H-i686-pc-linux-gnu/nios2-elf/lib/mno-hw-mul/libc.a(lib_a-strncmp.o)
 .debug_line    0x0000dfce      0x253 /CMC/tools/altera/13.1/nios2eds/bin/gnu/H-i686-pc-linux-gnu/bin/../lib/gcc/nios2-elf/4.7.3/../../../../../H-i686-pc-linux-gnu/nios2-elf/lib/mno-hw-mul/libc.a(lib_a-__atexit.o)
 .debug_line    0x0000e221       0x71 /CMC/tools/altera/13.1/nios2eds/bin/gnu/H-i686-pc-linux-gnu/bin/../lib/gcc/nios2-elf/4.7.3/mno-hw-mul/libgcc.a(_fixunsdfsi.o)

.debug_frame    0x00000000     0x2c2c
 *(.debug_frame)
 .debug_frame   0x00000000      0x12c obj/default/Monitor.o
 .debug_frame   0x0000012c       0x54 ../critical_library/libcritical_library.a(critical.o)
 .debug_frame   0x00000180       0xb4 ../critical_library/libcritical_library.a(fingerprint.o)
 .debug_frame   0x00000234       0x20 /CMC/tools/altera/13.1/nios2eds/bin/gnu/H-i686-pc-linux-gnu/bin/../lib/gcc/nios2-elf/4.7.3/mno-hw-mul/libgcc.a(lib2-mul.o)
 .debug_frame   0x00000254       0x28 /CMC/tools/altera/13.1/nios2eds/bin/gnu/H-i686-pc-linux-gnu/bin/../lib/gcc/nios2-elf/4.7.3/../../../../../H-i686-pc-linux-gnu/nios2-elf/lib/mno-hw-mul/libc.a(lib_a-clock.o)
 .debug_frame   0x0000027c       0x28 /CMC/tools/altera/13.1/nios2eds/bin/gnu/H-i686-pc-linux-gnu/bin/../lib/gcc/nios2-elf/4.7.3/../../../../../H-i686-pc-linux-gnu/nios2-elf/lib/mno-hw-mul/libc.a(lib_a-exit.o)
 .debug_frame   0x000002a4       0x30 /CMC/tools/altera/13.1/nios2eds/bin/gnu/H-i686-pc-linux-gnu/bin/../lib/gcc/nios2-elf/4.7.3/../../../../../H-i686-pc-linux-gnu/nios2-elf/lib/mno-hw-mul/libc.a(lib_a-memcpy.o)
 .debug_frame   0x000002d4       0x40 /CMC/tools/altera/13.1/nios2eds/bin/gnu/H-i686-pc-linux-gnu/bin/../lib/gcc/nios2-elf/4.7.3/../../../../../H-i686-pc-linux-gnu/nios2-elf/lib/mno-hw-mul/libc.a(lib_a-printf.o)
 .debug_frame   0x00000314       0x3c /CMC/tools/altera/13.1/nios2eds/bin/gnu/H-i686-pc-linux-gnu/bin/../lib/gcc/nios2-elf/4.7.3/../../../../../H-i686-pc-linux-gnu/nios2-elf/lib/mno-hw-mul/libc.a(lib_a-puts.o)
 .debug_frame   0x00000350       0x20 /CMC/tools/altera/13.1/nios2eds/bin/gnu/H-i686-pc-linux-gnu/bin/../lib/gcc/nios2-elf/4.7.3/../../../../../H-i686-pc-linux-gnu/nios2-elf/lib/mno-hw-mul/libc.a(lib_a-strlen.o)
 .debug_frame   0x00000370       0x20 /CMC/tools/altera/13.1/nios2eds/bin/gnu/H-i686-pc-linux-gnu/bin/../lib/gcc/nios2-elf/4.7.3/../../../../../H-i686-pc-linux-gnu/nios2-elf/lib/mno-hw-mul/libc.a(lib_a-timesr.o)
 .debug_frame   0x00000390       0x64 /CMC/tools/altera/13.1/nios2eds/bin/gnu/H-i686-pc-linux-gnu/bin/../lib/gcc/nios2-elf/4.7.3/../../../../../H-i686-pc-linux-gnu/nios2-elf/lib/mno-hw-mul/libc.a(lib_a-vfprintf.o)
 .debug_frame   0x000003f4       0x2c /CMC/tools/altera/13.1/nios2eds/bin/gnu/H-i686-pc-linux-gnu/bin/../lib/gcc/nios2-elf/4.7.3/../../../../../H-i686-pc-linux-gnu/nios2-elf/lib/mno-hw-mul/libc.a(lib_a-wsetup.o)
 .debug_frame   0x00000420       0x38 /CMC/tools/altera/13.1/nios2eds/bin/gnu/H-i686-pc-linux-gnu/bin/../lib/gcc/nios2-elf/4.7.3/../../../../../H-i686-pc-linux-gnu/nios2-elf/lib/mno-hw-mul/libc.a(lib_a-__call_atexit.o)
 .debug_frame   0x00000458       0x68 /CMC/tools/altera/13.1/nios2eds/bin/gnu/H-i686-pc-linux-gnu/bin/../lib/gcc/nios2-elf/4.7.3/../../../../../H-i686-pc-linux-gnu/nios2-elf/lib/mno-hw-mul/libc.a(lib_a-dtoa.o)
 .debug_frame   0x000004c0       0x40 /CMC/tools/altera/13.1/nios2eds/bin/gnu/H-i686-pc-linux-gnu/bin/../lib/gcc/nios2-elf/4.7.3/../../../../../H-i686-pc-linux-gnu/nios2-elf/lib/mno-hw-mul/libc.a(lib_a-fflush.o)
 .debug_frame   0x00000500      0x100 /CMC/tools/altera/13.1/nios2eds/bin/gnu/H-i686-pc-linux-gnu/bin/../lib/gcc/nios2-elf/4.7.3/../../../../../H-i686-pc-linux-gnu/nios2-elf/lib/mno-hw-mul/libc.a(lib_a-findfp.o)
 .debug_frame   0x00000600       0x4c /CMC/tools/altera/13.1/nios2eds/bin/gnu/H-i686-pc-linux-gnu/bin/../lib/gcc/nios2-elf/4.7.3/../../../../../H-i686-pc-linux-gnu/nios2-elf/lib/mno-hw-mul/libc.a(lib_a-freer.o)
 .debug_frame   0x0000064c       0x38 /CMC/tools/altera/13.1/nios2eds/bin/gnu/H-i686-pc-linux-gnu/bin/../lib/gcc/nios2-elf/4.7.3/../../../../../H-i686-pc-linux-gnu/nios2-elf/lib/mno-hw-mul/libc.a(lib_a-fvwrite.o)
 .debug_frame   0x00000684       0x5c /CMC/tools/altera/13.1/nios2eds/bin/gnu/H-i686-pc-linux-gnu/bin/../lib/gcc/nios2-elf/4.7.3/../../../../../H-i686-pc-linux-gnu/nios2-elf/lib/mno-hw-mul/libc.a(lib_a-fwalk.o)
 .debug_frame   0x000006e0       0x6c /CMC/tools/altera/13.1/nios2eds/bin/gnu/H-i686-pc-linux-gnu/bin/../lib/gcc/nios2-elf/4.7.3/../../../../../H-i686-pc-linux-gnu/nios2-elf/lib/mno-hw-mul/libc.a(lib_a-locale.o)
 .debug_frame   0x0000074c       0x2c /CMC/tools/altera/13.1/nios2eds/bin/gnu/H-i686-pc-linux-gnu/bin/../lib/gcc/nios2-elf/4.7.3/../../../../../H-i686-pc-linux-gnu/nios2-elf/lib/mno-hw-mul/libc.a(lib_a-makebuf.o)
 .debug_frame   0x00000778       0x38 /CMC/tools/altera/13.1/nios2eds/bin/gnu/H-i686-pc-linux-gnu/bin/../lib/gcc/nios2-elf/4.7.3/../../../../../H-i686-pc-linux-gnu/nios2-elf/lib/mno-hw-mul/libc.a(lib_a-mallocr.o)
 .debug_frame   0x000007b0       0x20 /CMC/tools/altera/13.1/nios2eds/bin/gnu/H-i686-pc-linux-gnu/bin/../lib/gcc/nios2-elf/4.7.3/../../../../../H-i686-pc-linux-gnu/nios2-elf/lib/mno-hw-mul/libc.a(lib_a-memchr.o)
 .debug_frame   0x000007d0       0x30 /CMC/tools/altera/13.1/nios2eds/bin/gnu/H-i686-pc-linux-gnu/bin/../lib/gcc/nios2-elf/4.7.3/../../../../../H-i686-pc-linux-gnu/nios2-elf/lib/mno-hw-mul/libc.a(lib_a-memmove.o)
 .debug_frame   0x00000800       0x20 /CMC/tools/altera/13.1/nios2eds/bin/gnu/H-i686-pc-linux-gnu/bin/../lib/gcc/nios2-elf/4.7.3/../../../../../H-i686-pc-linux-gnu/nios2-elf/lib/mno-hw-mul/libc.a(lib_a-memset.o)
 .debug_frame   0x00000820      0x218 /CMC/tools/altera/13.1/nios2eds/bin/gnu/H-i686-pc-linux-gnu/bin/../lib/gcc/nios2-elf/4.7.3/../../../../../H-i686-pc-linux-gnu/nios2-elf/lib/mno-hw-mul/libc.a(lib_a-mprec.o)
 .debug_frame   0x00000a38       0x38 /CMC/tools/altera/13.1/nios2eds/bin/gnu/H-i686-pc-linux-gnu/bin/../lib/gcc/nios2-elf/4.7.3/../../../../../H-i686-pc-linux-gnu/nios2-elf/lib/mno-hw-mul/libc.a(lib_a-reallocr.o)
 .debug_frame   0x00000a70       0x20 /CMC/tools/altera/13.1/nios2eds/bin/gnu/H-i686-pc-linux-gnu/bin/../lib/gcc/nios2-elf/4.7.3/../../../../../H-i686-pc-linux-gnu/nios2-elf/lib/mno-hw-mul/libc.a(lib_a-s_isinfd.o)
 .debug_frame   0x00000a90       0x20 /CMC/tools/altera/13.1/nios2eds/bin/gnu/H-i686-pc-linux-gnu/bin/../lib/gcc/nios2-elf/4.7.3/../../../../../H-i686-pc-linux-gnu/nios2-elf/lib/mno-hw-mul/libc.a(lib_a-s_isnand.o)
 .debug_frame   0x00000ab0       0x2c /CMC/tools/altera/13.1/nios2eds/bin/gnu/H-i686-pc-linux-gnu/bin/../lib/gcc/nios2-elf/4.7.3/../../../../../H-i686-pc-linux-gnu/nios2-elf/lib/mno-hw-mul/libc.a(lib_a-sbrkr.o)
 .debug_frame   0x00000adc       0x78 /CMC/tools/altera/13.1/nios2eds/bin/gnu/H-i686-pc-linux-gnu/bin/../lib/gcc/nios2-elf/4.7.3/../../../../../H-i686-pc-linux-gnu/nios2-elf/lib/mno-hw-mul/libc.a(lib_a-stdio.o)
 .debug_frame   0x00000b54       0x20 /CMC/tools/altera/13.1/nios2eds/bin/gnu/H-i686-pc-linux-gnu/bin/../lib/gcc/nios2-elf/4.7.3/../../../../../H-i686-pc-linux-gnu/nios2-elf/lib/mno-hw-mul/libc.a(lib_a-strcmp.o)
 .debug_frame   0x00000b74       0x2c /CMC/tools/altera/13.1/nios2eds/bin/gnu/H-i686-pc-linux-gnu/bin/../lib/gcc/nios2-elf/4.7.3/../../../../../H-i686-pc-linux-gnu/nios2-elf/lib/mno-hw-mul/libc.a(lib_a-writer.o)
 .debug_frame   0x00000ba0       0x2c /CMC/tools/altera/13.1/nios2eds/bin/gnu/H-i686-pc-linux-gnu/bin/../lib/gcc/nios2-elf/4.7.3/../../../../../H-i686-pc-linux-gnu/nios2-elf/lib/mno-hw-mul/libc.a(lib_a-callocr.o)
 .debug_frame   0x00000bcc       0x2c /CMC/tools/altera/13.1/nios2eds/bin/gnu/H-i686-pc-linux-gnu/bin/../lib/gcc/nios2-elf/4.7.3/../../../../../H-i686-pc-linux-gnu/nios2-elf/lib/mno-hw-mul/libc.a(lib_a-closer.o)
 .debug_frame   0x00000bf8       0x3c /CMC/tools/altera/13.1/nios2eds/bin/gnu/H-i686-pc-linux-gnu/bin/../lib/gcc/nios2-elf/4.7.3/../../../../../H-i686-pc-linux-gnu/nios2-elf/lib/mno-hw-mul/libc.a(lib_a-fclose.o)
 .debug_frame   0x00000c34       0x2c /CMC/tools/altera/13.1/nios2eds/bin/gnu/H-i686-pc-linux-gnu/bin/../lib/gcc/nios2-elf/4.7.3/../../../../../H-i686-pc-linux-gnu/nios2-elf/lib/mno-hw-mul/libc.a(lib_a-fstatr.o)
 .debug_frame   0x00000c60       0x2c /CMC/tools/altera/13.1/nios2eds/bin/gnu/H-i686-pc-linux-gnu/bin/../lib/gcc/nios2-elf/4.7.3/../../../../../H-i686-pc-linux-gnu/nios2-elf/lib/mno-hw-mul/libc.a(lib_a-isattyr.o)
 .debug_frame   0x00000c8c       0x2c /CMC/tools/altera/13.1/nios2eds/bin/gnu/H-i686-pc-linux-gnu/bin/../lib/gcc/nios2-elf/4.7.3/../../../../../H-i686-pc-linux-gnu/nios2-elf/lib/mno-hw-mul/libc.a(lib_a-lseekr.o)
 .debug_frame   0x00000cb8       0x2c /CMC/tools/altera/13.1/nios2eds/bin/gnu/H-i686-pc-linux-gnu/bin/../lib/gcc/nios2-elf/4.7.3/../../../../../H-i686-pc-linux-gnu/nios2-elf/lib/mno-hw-mul/libc.a(lib_a-readr.o)
 .debug_frame   0x00000ce4       0x38 /CMC/tools/altera/13.1/nios2eds/bin/gnu/H-i686-pc-linux-gnu/bin/../lib/gcc/nios2-elf/4.7.3/mno-hw-mul/libgcc.a(_udivdi3.o)
 .debug_frame   0x00000d1c       0x38 /CMC/tools/altera/13.1/nios2eds/bin/gnu/H-i686-pc-linux-gnu/bin/../lib/gcc/nios2-elf/4.7.3/mno-hw-mul/libgcc.a(_umoddi3.o)
 .debug_frame   0x00000d54       0x50 /CMC/tools/altera/13.1/nios2eds/bin/gnu/H-i686-pc-linux-gnu/bin/../lib/gcc/nios2-elf/4.7.3/mno-hw-mul/libgcc.a(_addsub_df.o)
 .debug_frame   0x00000da4       0x38 /CMC/tools/altera/13.1/nios2eds/bin/gnu/H-i686-pc-linux-gnu/bin/../lib/gcc/nios2-elf/4.7.3/mno-hw-mul/libgcc.a(_mul_df.o)
 .debug_frame   0x00000ddc       0x28 /CMC/tools/altera/13.1/nios2eds/bin/gnu/H-i686-pc-linux-gnu/bin/../lib/gcc/nios2-elf/4.7.3/mno-hw-mul/libgcc.a(_div_df.o)
 .debug_frame   0x00000e04       0x28 /CMC/tools/altera/13.1/nios2eds/bin/gnu/H-i686-pc-linux-gnu/bin/../lib/gcc/nios2-elf/4.7.3/mno-hw-mul/libgcc.a(_eq_df.o)
 .debug_frame   0x00000e2c       0x28 /CMC/tools/altera/13.1/nios2eds/bin/gnu/H-i686-pc-linux-gnu/bin/../lib/gcc/nios2-elf/4.7.3/mno-hw-mul/libgcc.a(_ne_df.o)
 .debug_frame   0x00000e54       0x28 /CMC/tools/altera/13.1/nios2eds/bin/gnu/H-i686-pc-linux-gnu/bin/../lib/gcc/nios2-elf/4.7.3/mno-hw-mul/libgcc.a(_gt_df.o)
 .debug_frame   0x00000e7c       0x28 /CMC/tools/altera/13.1/nios2eds/bin/gnu/H-i686-pc-linux-gnu/bin/../lib/gcc/nios2-elf/4.7.3/mno-hw-mul/libgcc.a(_ge_df.o)
 .debug_frame   0x00000ea4       0x28 /CMC/tools/altera/13.1/nios2eds/bin/gnu/H-i686-pc-linux-gnu/bin/../lib/gcc/nios2-elf/4.7.3/mno-hw-mul/libgcc.a(_lt_df.o)
 .debug_frame   0x00000ecc       0x28 /CMC/tools/altera/13.1/nios2eds/bin/gnu/H-i686-pc-linux-gnu/bin/../lib/gcc/nios2-elf/4.7.3/mno-hw-mul/libgcc.a(_si_to_df.o)
 .debug_frame   0x00000ef4       0x28 /CMC/tools/altera/13.1/nios2eds/bin/gnu/H-i686-pc-linux-gnu/bin/../lib/gcc/nios2-elf/4.7.3/mno-hw-mul/libgcc.a(_df_to_si.o)
 .debug_frame   0x00000f1c       0x28 /CMC/tools/altera/13.1/nios2eds/bin/gnu/H-i686-pc-linux-gnu/bin/../lib/gcc/nios2-elf/4.7.3/mno-hw-mul/libgcc.a(_usi_to_df.o)
 .debug_frame   0x00000f44       0x70 /CMC/tools/altera/13.1/nios2eds/bin/gnu/H-i686-pc-linux-gnu/bin/../lib/gcc/nios2-elf/4.7.3/mno-hw-mul/libgcc.a(lib2-divmod.o)
 .debug_frame   0x00000fb4       0x3c /CMC/tools/altera/13.1/nios2eds/bin/gnu/H-i686-pc-linux-gnu/bin/../lib/gcc/nios2-elf/4.7.3/mno-hw-mul/libgcc.a(_muldi3.o)
 .debug_frame   0x00000ff0       0x20 /CMC/tools/altera/13.1/nios2eds/bin/gnu/H-i686-pc-linux-gnu/bin/../lib/gcc/nios2-elf/4.7.3/mno-hw-mul/libgcc.a(_clzsi2.o)
 .debug_frame   0x00001010       0x34 /CMC/tools/altera/13.1/nios2eds/bin/gnu/H-i686-pc-linux-gnu/bin/../lib/gcc/nios2-elf/4.7.3/mno-hw-mul/libgcc.a(_pack_df.o)
 .debug_frame   0x00001044       0x20 /CMC/tools/altera/13.1/nios2eds/bin/gnu/H-i686-pc-linux-gnu/bin/../lib/gcc/nios2-elf/4.7.3/mno-hw-mul/libgcc.a(_unpack_df.o)
 .debug_frame   0x00001064       0x20 /CMC/tools/altera/13.1/nios2eds/bin/gnu/H-i686-pc-linux-gnu/bin/../lib/gcc/nios2-elf/4.7.3/mno-hw-mul/libgcc.a(_fpcmp_parts_df.o)
 .debug_frame   0x00001084       0x20 /CMC/tools/altera/13.1/nios2eds/bin/gnu/H-i686-pc-linux-gnu/bin/../lib/gcc/nios2-elf/4.7.3/mno-hw-mul/libgcc.a(_lshrdi3.o)
 .debug_frame   0x000010a4       0x20 /CMC/tools/altera/13.1/nios2eds/bin/gnu/H-i686-pc-linux-gnu/bin/../lib/gcc/nios2-elf/4.7.3/mno-hw-mul/libgcc.a(_ashldi3.o)
 .debug_frame   0x000010c4       0x48 ../ucosMon_bsp//libucosii_bsp.a(alt_close.o)
 .debug_frame   0x0000110c       0x2c ../ucosMon_bsp//libucosii_bsp.a(alt_dev.o)
 .debug_frame   0x00001138       0x48 ../ucosMon_bsp//libucosii_bsp.a(alt_dma_rxchan_open.o)
 .debug_frame   0x00001180       0x48 ../ucosMon_bsp//libucosii_bsp.a(alt_dma_txchan_open.o)
 .debug_frame   0x000011c8       0x2c ../ucosMon_bsp//libucosii_bsp.a(alt_exit.o)
 .debug_frame   0x000011f4       0x2c ../ucosMon_bsp//libucosii_bsp.a(alt_find_dev.o)
 .debug_frame   0x00001220       0x48 ../ucosMon_bsp//libucosii_bsp.a(alt_fstat.o)
 .debug_frame   0x00001268       0x80 ../ucosMon_bsp//libucosii_bsp.a(alt_iic.o)
 .debug_frame   0x000012e8       0x2c ../ucosMon_bsp//libucosii_bsp.a(alt_iic_isr_register.o)
 .debug_frame   0x00001314       0x2c ../ucosMon_bsp//libucosii_bsp.a(alt_irq_handler.o)
 .debug_frame   0x00001340       0x48 ../ucosMon_bsp//libucosii_bsp.a(alt_isatty.o)
 .debug_frame   0x00001388       0x48 ../ucosMon_bsp//libucosii_bsp.a(alt_load.o)
 .debug_frame   0x000013d0       0x48 ../ucosMon_bsp//libucosii_bsp.a(alt_lseek.o)
 .debug_frame   0x00001418       0x2c ../ucosMon_bsp//libucosii_bsp.a(alt_main.o)
 .debug_frame   0x00001444       0x48 ../ucosMon_bsp//libucosii_bsp.a(alt_read.o)
 .debug_frame   0x0000148c       0x30 ../ucosMon_bsp//libucosii_bsp.a(alt_release_fd.o)
 .debug_frame   0x000014bc       0x2c ../ucosMon_bsp//libucosii_bsp.a(alt_sbrk.o)
 .debug_frame   0x000014e8       0x48 ../ucosMon_bsp//libucosii_bsp.a(alt_times.o)
 .debug_frame   0x00001530       0x48 ../ucosMon_bsp//libucosii_bsp.a(alt_write.o)
 .debug_frame   0x00001578       0x4c ../ucosMon_bsp//libucosii_bsp.a(alt_env_lock.o)
 .debug_frame   0x000015c4       0x4c ../ucosMon_bsp//libucosii_bsp.a(alt_malloc_lock.o)
 .debug_frame   0x00001610      0x3e4 ../ucosMon_bsp//libucosii_bsp.a(os_core.o)
 .debug_frame   0x000019f4       0x2c ../ucosMon_bsp//libucosii_bsp.a(os_dbg.o)
 .debug_frame   0x00001a20      0x180 ../ucosMon_bsp//libucosii_bsp.a(os_flag.o)
 .debug_frame   0x00001ba0       0xd4 ../ucosMon_bsp//libucosii_bsp.a(os_mem.o)
 .debug_frame   0x00001c74      0x144 ../ucosMon_bsp//libucosii_bsp.a(os_q.o)
 .debug_frame   0x00001db8       0xf0 ../ucosMon_bsp//libucosii_bsp.a(os_sem.o)
 .debug_frame   0x00001ea8      0x160 ../ucosMon_bsp//libucosii_bsp.a(os_task.o)
 .debug_frame   0x00002008       0xa0 ../ucosMon_bsp//libucosii_bsp.a(os_time.o)
 .debug_frame   0x000020a8       0x9c ../ucosMon_bsp//libucosii_bsp.a(alt_sys_init.o)
 .debug_frame   0x00002144      0x17c ../ucosMon_bsp//libucosii_bsp.a(altera_avalon_dma.o)
 .debug_frame   0x000022c0       0x80 ../ucosMon_bsp//libucosii_bsp.a(altera_avalon_jtag_uart_fd.o)
 .debug_frame   0x00002340       0x80 ../ucosMon_bsp//libucosii_bsp.a(altera_avalon_jtag_uart_init.o)
 .debug_frame   0x000023c0       0x2c ../ucosMon_bsp//libucosii_bsp.a(altera_avalon_jtag_uart_ioctl.o)
 .debug_frame   0x000023ec       0x2c ../ucosMon_bsp//libucosii_bsp.a(altera_avalon_jtag_uart_read.o)
 .debug_frame   0x00002418       0x2c ../ucosMon_bsp//libucosii_bsp.a(altera_avalon_jtag_uart_write.o)
 .debug_frame   0x00002444      0x10c ../ucosMon_bsp//libucosii_bsp.a(altera_avalon_mutex.o)
 .debug_frame   0x00002550       0x48 ../ucosMon_bsp//libucosii_bsp.a(altera_avalon_timer_sc.o)
 .debug_frame   0x00002598      0x1b4 ../ucosMon_bsp//libucosii_bsp.a(altera_ro_zipfs.o)
 .debug_frame   0x0000274c       0x2c ../ucosMon_bsp//libucosii_bsp.a(alt_alarm_start.o)
 .debug_frame   0x00002778       0x2c ../ucosMon_bsp//libucosii_bsp.a(alt_dcache_flush_all.o)
 .debug_frame   0x000027a4       0x48 ../ucosMon_bsp//libucosii_bsp.a(alt_dev_llist_insert.o)
 .debug_frame   0x000027ec       0x2c ../ucosMon_bsp//libucosii_bsp.a(alt_do_ctors.o)
 .debug_frame   0x00002818       0x2c ../ucosMon_bsp//libucosii_bsp.a(alt_do_dtors.o)
 .debug_frame   0x00002844       0x2c ../ucosMon_bsp//libucosii_bsp.a(alt_fs_reg.o)
 .debug_frame   0x00002870       0x2c ../ucosMon_bsp//libucosii_bsp.a(alt_icache_flush_all.o)
 .debug_frame   0x0000289c       0x4c ../ucosMon_bsp//libucosii_bsp.a(alt_io_redirect.o)
 .debug_frame   0x000028e8       0x68 ../ucosMon_bsp//libucosii_bsp.a(alt_open.o)
 .debug_frame   0x00002950       0x48 ../ucosMon_bsp//libucosii_bsp.a(alt_tick.o)
 .debug_frame   0x00002998       0x2c ../ucosMon_bsp//libucosii_bsp.a(altera_nios2_qsys_irq.o)
 .debug_frame   0x000029c4      0x128 ../ucosMon_bsp//libucosii_bsp.a(os_cpu_c.o)
 .debug_frame   0x00002aec       0x2c ../ucosMon_bsp//libucosii_bsp.a(alt_find_file.o)
 .debug_frame   0x00002b18       0x30 ../ucosMon_bsp//libucosii_bsp.a(alt_get_fd.o)
 .debug_frame   0x00002b48       0x2c ../ucosMon_bsp//libucosii_bsp.a(alt_icache_flush.o)
 .debug_frame   0x00002b74       0x20 /CMC/tools/altera/13.1/nios2eds/bin/gnu/H-i686-pc-linux-gnu/bin/../lib/gcc/nios2-elf/4.7.3/../../../../../H-i686-pc-linux-gnu/nios2-elf/lib/mno-hw-mul/libc.a(lib_a-atexit.o)
 .debug_frame   0x00002b94       0x20 /CMC/tools/altera/13.1/nios2eds/bin/gnu/H-i686-pc-linux-gnu/bin/../lib/gcc/nios2-elf/4.7.3/../../../../../H-i686-pc-linux-gnu/nios2-elf/lib/mno-hw-mul/libc.a(lib_a-memcmp.o)
 .debug_frame   0x00002bb4       0x20 /CMC/tools/altera/13.1/nios2eds/bin/gnu/H-i686-pc-linux-gnu/bin/../lib/gcc/nios2-elf/4.7.3/../../../../../H-i686-pc-linux-gnu/nios2-elf/lib/mno-hw-mul/libc.a(lib_a-strncmp.o)
 .debug_frame   0x00002bd4       0x2c /CMC/tools/altera/13.1/nios2eds/bin/gnu/H-i686-pc-linux-gnu/bin/../lib/gcc/nios2-elf/4.7.3/../../../../../H-i686-pc-linux-gnu/nios2-elf/lib/mno-hw-mul/libc.a(lib_a-__atexit.o)
 .debug_frame   0x00002c00       0x2c /CMC/tools/altera/13.1/nios2eds/bin/gnu/H-i686-pc-linux-gnu/bin/../lib/gcc/nios2-elf/4.7.3/mno-hw-mul/libgcc.a(_fixunsdfsi.o)

.debug_str      0x00000000     0x4bf4
 *(.debug_str)
 .debug_str     0x00000000      0x569 obj/default/Monitor.o
                                0x63b (size before relaxing)
 .debug_str     0x00000569       0x95 ../critical_library/libcritical_library.a(critical.o)
                                0x146 (size before relaxing)
 .debug_str     0x000005fe      0x10c ../critical_library/libcritical_library.a(fingerprint.o)
                                0x292 (size before relaxing)
 .debug_str     0x0000070a       0xd4 /CMC/tools/altera/13.1/nios2eds/bin/gnu/H-i686-pc-linux-gnu/bin/../lib/gcc/nios2-elf/4.7.3/mno-hw-mul/libgcc.a(lib2-mul.o)
                                0x12b (size before relaxing)
 .debug_str     0x000007de      0x43c /CMC/tools/altera/13.1/nios2eds/bin/gnu/H-i686-pc-linux-gnu/bin/../lib/gcc/nios2-elf/4.7.3/../../../../../H-i686-pc-linux-gnu/nios2-elf/lib/mno-hw-mul/libc.a(lib_a-clock.o)
                                0x55a (size before relaxing)
 .debug_str     0x00000c1a       0xfb /CMC/tools/altera/13.1/nios2eds/bin/gnu/H-i686-pc-linux-gnu/bin/../lib/gcc/nios2-elf/4.7.3/../../../../../H-i686-pc-linux-gnu/nios2-elf/lib/mno-hw-mul/libc.a(lib_a-exit.o)
                                0x53e (size before relaxing)
 .debug_str     0x00000d15       0xe3 /CMC/tools/altera/13.1/nios2eds/bin/gnu/H-i686-pc-linux-gnu/bin/../lib/gcc/nios2-elf/4.7.3/../../../../../H-i686-pc-linux-gnu/nios2-elf/lib/mno-hw-mul/libc.a(lib_a-impure.o)
                                0x535 (size before relaxing)
 .debug_str     0x00000df8      0x107 /CMC/tools/altera/13.1/nios2eds/bin/gnu/H-i686-pc-linux-gnu/bin/../lib/gcc/nios2-elf/4.7.3/../../../../../H-i686-pc-linux-gnu/nios2-elf/lib/mno-hw-mul/libc.a(lib_a-memcpy.o)
                                0x135 (size before relaxing)
 .debug_str     0x00000eff      0x12d /CMC/tools/altera/13.1/nios2eds/bin/gnu/H-i686-pc-linux-gnu/bin/../lib/gcc/nios2-elf/4.7.3/../../../../../H-i686-pc-linux-gnu/nios2-elf/lib/mno-hw-mul/libc.a(lib_a-printf.o)
                                0x580 (size before relaxing)
 .debug_str     0x0000102c       0x98 /CMC/tools/altera/13.1/nios2eds/bin/gnu/H-i686-pc-linux-gnu/bin/../lib/gcc/nios2-elf/4.7.3/../../../../../H-i686-pc-linux-gnu/nios2-elf/lib/mno-hw-mul/libc.a(lib_a-puts.o)
                                0x57d (size before relaxing)
 .debug_str     0x000010c4       0x4b /CMC/tools/altera/13.1/nios2eds/bin/gnu/H-i686-pc-linux-gnu/bin/../lib/gcc/nios2-elf/4.7.3/../../../../../H-i686-pc-linux-gnu/nios2-elf/lib/mno-hw-mul/libc.a(lib_a-strlen.o)
                                0x198 (size before relaxing)
 .debug_str     0x0000110f       0x42 /CMC/tools/altera/13.1/nios2eds/bin/gnu/H-i686-pc-linux-gnu/bin/../lib/gcc/nios2-elf/4.7.3/../../../../../H-i686-pc-linux-gnu/nios2-elf/lib/mno-hw-mul/libc.a(lib_a-timesr.o)
                                0x550 (size before relaxing)
 .debug_str     0x00001151      0x28c /CMC/tools/altera/13.1/nios2eds/bin/gnu/H-i686-pc-linux-gnu/bin/../lib/gcc/nios2-elf/4.7.3/../../../../../H-i686-pc-linux-gnu/nios2-elf/lib/mno-hw-mul/libc.a(lib_a-vfprintf.o)
                                0x897 (size before relaxing)
 .debug_str     0x000013dd       0x52 /CMC/tools/altera/13.1/nios2eds/bin/gnu/H-i686-pc-linux-gnu/bin/../lib/gcc/nios2-elf/4.7.3/../../../../../H-i686-pc-linux-gnu/nios2-elf/lib/mno-hw-mul/libc.a(lib_a-wsetup.o)
                                0x544 (size before relaxing)
 .debug_str     0x0000142f       0x5f /CMC/tools/altera/13.1/nios2eds/bin/gnu/H-i686-pc-linux-gnu/bin/../lib/gcc/nios2-elf/4.7.3/../../../../../H-i686-pc-linux-gnu/nios2-elf/lib/mno-hw-mul/libc.a(lib_a-__call_atexit.o)
                                0x560 (size before relaxing)
 .debug_str     0x0000148e      0x15a /CMC/tools/altera/13.1/nios2eds/bin/gnu/H-i686-pc-linux-gnu/bin/../lib/gcc/nios2-elf/4.7.3/../../../../../H-i686-pc-linux-gnu/nios2-elf/lib/mno-hw-mul/libc.a(lib_a-dtoa.o)
                                0x687 (size before relaxing)
 .debug_str     0x000015e8       0x4b /CMC/tools/altera/13.1/nios2eds/bin/gnu/H-i686-pc-linux-gnu/bin/../lib/gcc/nios2-elf/4.7.3/../../../../../H-i686-pc-linux-gnu/nios2-elf/lib/mno-hw-mul/libc.a(lib_a-fflush.o)
                                0x562 (size before relaxing)
 .debug_str     0x00001633      0x10e /CMC/tools/altera/13.1/nios2eds/bin/gnu/H-i686-pc-linux-gnu/bin/../lib/gcc/nios2-elf/4.7.3/../../../../../H-i686-pc-linux-gnu/nios2-elf/lib/mno-hw-mul/libc.a(lib_a-findfp.o)
                                0x62e (size before relaxing)
 .debug_str     0x00001741      0x186 /CMC/tools/altera/13.1/nios2eds/bin/gnu/H-i686-pc-linux-gnu/bin/../lib/gcc/nios2-elf/4.7.3/../../../../../H-i686-pc-linux-gnu/nios2-elf/lib/mno-hw-mul/libc.a(lib_a-freer.o)
                                0x68e (size before relaxing)
 .debug_str     0x000018c7       0x6f /CMC/tools/altera/13.1/nios2eds/bin/gnu/H-i686-pc-linux-gnu/bin/../lib/gcc/nios2-elf/4.7.3/../../../../../H-i686-pc-linux-gnu/nios2-elf/lib/mno-hw-mul/libc.a(lib_a-fvwrite.o)
                                0x5c7 (size before relaxing)
 .debug_str     0x00001936       0x61 /CMC/tools/altera/13.1/nios2eds/bin/gnu/H-i686-pc-linux-gnu/bin/../lib/gcc/nios2-elf/4.7.3/../../../../../H-i686-pc-linux-gnu/nios2-elf/lib/mno-hw-mul/libc.a(lib_a-fwalk.o)
                                0x576 (size before relaxing)
 .debug_str     0x00001997      0x15b /CMC/tools/altera/13.1/nios2eds/bin/gnu/H-i686-pc-linux-gnu/bin/../lib/gcc/nios2-elf/4.7.3/../../../../../H-i686-pc-linux-gnu/nios2-elf/lib/mno-hw-mul/libc.a(lib_a-locale.o)
                                0x6cb (size before relaxing)
 .debug_str     0x00001af2      0x12c /CMC/tools/altera/13.1/nios2eds/bin/gnu/H-i686-pc-linux-gnu/bin/../lib/gcc/nios2-elf/4.7.3/../../../../../H-i686-pc-linux-gnu/nios2-elf/lib/mno-hw-mul/libc.a(lib_a-makebuf.o)
                                0x63e (size before relaxing)
 .debug_str     0x00001c1e       0xe5 /CMC/tools/altera/13.1/nios2eds/bin/gnu/H-i686-pc-linux-gnu/bin/../lib/gcc/nios2-elf/4.7.3/../../../../../H-i686-pc-linux-gnu/nios2-elf/lib/mno-hw-mul/libc.a(lib_a-mallocr.o)
                                0x744 (size before relaxing)
 .debug_str     0x00001d03       0x4c /CMC/tools/altera/13.1/nios2eds/bin/gnu/H-i686-pc-linux-gnu/bin/../lib/gcc/nios2-elf/4.7.3/../../../../../H-i686-pc-linux-gnu/nios2-elf/lib/mno-hw-mul/libc.a(lib_a-memchr.o)
                                0x1a6 (size before relaxing)
 .debug_str     0x00001d4f       0x48 /CMC/tools/altera/13.1/nios2eds/bin/gnu/H-i686-pc-linux-gnu/bin/../lib/gcc/nios2-elf/4.7.3/../../../../../H-i686-pc-linux-gnu/nios2-elf/lib/mno-hw-mul/libc.a(lib_a-memmove.o)
                                0x1b8 (size before relaxing)
 .debug_str     0x00001d97       0x3e /CMC/tools/altera/13.1/nios2eds/bin/gnu/H-i686-pc-linux-gnu/bin/../lib/gcc/nios2-elf/4.7.3/../../../../../H-i686-pc-linux-gnu/nios2-elf/lib/mno-hw-mul/libc.a(lib_a-memset.o)
                                0x199 (size before relaxing)
 .debug_str     0x00001dd5       0xa8 /CMC/tools/altera/13.1/nios2eds/bin/gnu/H-i686-pc-linux-gnu/bin/../lib/gcc/nios2-elf/4.7.3/../../../../../H-i686-pc-linux-gnu/nios2-elf/lib/mno-hw-mul/libc.a(lib_a-mprec.o)
                                0x641 (size before relaxing)
 .debug_str     0x00001e7d       0x49 /CMC/tools/altera/13.1/nios2eds/bin/gnu/H-i686-pc-linux-gnu/bin/../lib/gcc/nios2-elf/4.7.3/../../../../../H-i686-pc-linux-gnu/nios2-elf/lib/mno-hw-mul/libc.a(lib_a-reallocr.o)
                                0x616 (size before relaxing)
 .debug_str     0x00001ec6       0xe5 /CMC/tools/altera/13.1/nios2eds/bin/gnu/H-i686-pc-linux-gnu/bin/../lib/gcc/nios2-elf/4.7.3/../../../../../H-i686-pc-linux-gnu/nios2-elf/lib/mno-hw-mul/libc.a(lib_a-s_isinfd.o)
                                0x1b0 (size before relaxing)
 .debug_str     0x00001fab       0x40 /CMC/tools/altera/13.1/nios2eds/bin/gnu/H-i686-pc-linux-gnu/bin/../lib/gcc/nios2-elf/4.7.3/../../../../../H-i686-pc-linux-gnu/nios2-elf/lib/mno-hw-mul/libc.a(lib_a-s_isnand.o)
                                0x1b0 (size before relaxing)
 .debug_str     0x00001feb       0x46 /CMC/tools/altera/13.1/nios2eds/bin/gnu/H-i686-pc-linux-gnu/bin/../lib/gcc/nios2-elf/4.7.3/../../../../../H-i686-pc-linux-gnu/nios2-elf/lib/mno-hw-mul/libc.a(lib_a-sbrkr.o)
                                0x52b (size before relaxing)
 .debug_str     0x00002031       0x91 /CMC/tools/altera/13.1/nios2eds/bin/gnu/H-i686-pc-linux-gnu/bin/../lib/gcc/nios2-elf/4.7.3/../../../../../H-i686-pc-linux-gnu/nios2-elf/lib/mno-hw-mul/libc.a(lib_a-stdio.o)
                                0x57f (size before relaxing)
 .debug_str     0x000020c2       0x3e /CMC/tools/altera/13.1/nios2eds/bin/gnu/H-i686-pc-linux-gnu/bin/../lib/gcc/nios2-elf/4.7.3/../../../../../H-i686-pc-linux-gnu/nios2-elf/lib/mno-hw-mul/libc.a(lib_a-strcmp.o)
                                0x17e (size before relaxing)
 .debug_str     0x00002100       0x3d /CMC/tools/altera/13.1/nios2eds/bin/gnu/H-i686-pc-linux-gnu/bin/../lib/gcc/nios2-elf/4.7.3/../../../../../H-i686-pc-linux-gnu/nios2-elf/lib/mno-hw-mul/libc.a(lib_a-writer.o)
                                0x52f (size before relaxing)
 .debug_str     0x0000213d        0xf /CMC/tools/altera/13.1/nios2eds/bin/gnu/H-i686-pc-linux-gnu/bin/../lib/gcc/nios2-elf/4.7.3/../../../../../H-i686-pc-linux-gnu/nios2-elf/lib/mno-hw-mul/libc.a(lib_a-callocr.o)
                                0x56e (size before relaxing)
 .debug_str     0x0000214c       0x3d /CMC/tools/altera/13.1/nios2eds/bin/gnu/H-i686-pc-linux-gnu/bin/../lib/gcc/nios2-elf/4.7.3/../../../../../H-i686-pc-linux-gnu/nios2-elf/lib/mno-hw-mul/libc.a(lib_a-closer.o)
                                0x51f (size before relaxing)
 .debug_str     0x00002189       0x4e /CMC/tools/altera/13.1/nios2eds/bin/gnu/H-i686-pc-linux-gnu/bin/../lib/gcc/nios2-elf/4.7.3/../../../../../H-i686-pc-linux-gnu/nios2-elf/lib/mno-hw-mul/libc.a(lib_a-fclose.o)
                                0x571 (size before relaxing)
 .debug_str     0x000021d7       0x43 /CMC/tools/altera/13.1/nios2eds/bin/gnu/H-i686-pc-linux-gnu/bin/../lib/gcc/nios2-elf/4.7.3/../../../../../H-i686-pc-linux-gnu/nios2-elf/lib/mno-hw-mul/libc.a(lib_a-fstatr.o)
                                0x612 (size before relaxing)
 .debug_str     0x0000221a       0x40 /CMC/tools/altera/13.1/nios2eds/bin/gnu/H-i686-pc-linux-gnu/bin/../lib/gcc/nios2-elf/4.7.3/../../../../../H-i686-pc-linux-gnu/nios2-elf/lib/mno-hw-mul/libc.a(lib_a-int_errno.o)
                                0x17e (size before relaxing)
 .debug_str     0x0000225a       0x45 /CMC/tools/altera/13.1/nios2eds/bin/gnu/H-i686-pc-linux-gnu/bin/../lib/gcc/nios2-elf/4.7.3/../../../../../H-i686-pc-linux-gnu/nios2-elf/lib/mno-hw-mul/libc.a(lib_a-isattyr.o)
                                0x522 (size before relaxing)
 .debug_str     0x0000229f       0x43 /CMC/tools/altera/13.1/nios2eds/bin/gnu/H-i686-pc-linux-gnu/bin/../lib/gcc/nios2-elf/4.7.3/../../../../../H-i686-pc-linux-gnu/nios2-elf/lib/mno-hw-mul/libc.a(lib_a-lseekr.o)
                                0x533 (size before relaxing)
 .debug_str     0x000022e2       0x3c /CMC/tools/altera/13.1/nios2eds/bin/gnu/H-i686-pc-linux-gnu/bin/../lib/gcc/nios2-elf/4.7.3/../../../../../H-i686-pc-linux-gnu/nios2-elf/lib/mno-hw-mul/libc.a(lib_a-readr.o)
                                0x52c (size before relaxing)
 .debug_str     0x0000231e       0xd8 /CMC/tools/altera/13.1/nios2eds/bin/gnu/H-i686-pc-linux-gnu/bin/../lib/gcc/nios2-elf/4.7.3/mno-hw-mul/libgcc.a(_udivdi3.o)
                                0x205 (size before relaxing)
 .debug_str     0x000023f6        0xa /CMC/tools/altera/13.1/nios2eds/bin/gnu/H-i686-pc-linux-gnu/bin/../lib/gcc/nios2-elf/4.7.3/mno-hw-mul/libgcc.a(_umoddi3.o)
                                0x205 (size before relaxing)
 .debug_str     0x00002400      0x172 /CMC/tools/altera/13.1/nios2eds/bin/gnu/H-i686-pc-linux-gnu/bin/../lib/gcc/nios2-elf/4.7.3/mno-hw-mul/libgcc.a(_addsub_df.o)
                                0x2b8 (size before relaxing)
 .debug_str     0x00002572       0x40 /CMC/tools/altera/13.1/nios2eds/bin/gnu/H-i686-pc-linux-gnu/bin/../lib/gcc/nios2-elf/4.7.3/mno-hw-mul/libgcc.a(_mul_df.o)
                                0x28a (size before relaxing)
 .debug_str     0x000025b2       0x35 /CMC/tools/altera/13.1/nios2eds/bin/gnu/H-i686-pc-linux-gnu/bin/../lib/gcc/nios2-elf/4.7.3/mno-hw-mul/libgcc.a(_div_df.o)
                                0x27a (size before relaxing)
 .debug_str     0x000025e7       0x20 /CMC/tools/altera/13.1/nios2eds/bin/gnu/H-i686-pc-linux-gnu/bin/../lib/gcc/nios2-elf/4.7.3/mno-hw-mul/libgcc.a(_eq_df.o)
                                0x247 (size before relaxing)
 .debug_str     0x00002607        0x8 /CMC/tools/altera/13.1/nios2eds/bin/gnu/H-i686-pc-linux-gnu/bin/../lib/gcc/nios2-elf/4.7.3/mno-hw-mul/libgcc.a(_ne_df.o)
                                0x247 (size before relaxing)
 .debug_str     0x0000260f        0x8 /CMC/tools/altera/13.1/nios2eds/bin/gnu/H-i686-pc-linux-gnu/bin/../lib/gcc/nios2-elf/4.7.3/mno-hw-mul/libgcc.a(_gt_df.o)
                                0x247 (size before relaxing)
 .debug_str     0x00002617        0x8 /CMC/tools/altera/13.1/nios2eds/bin/gnu/H-i686-pc-linux-gnu/bin/../lib/gcc/nios2-elf/4.7.3/mno-hw-mul/libgcc.a(_ge_df.o)
                                0x247 (size before relaxing)
 .debug_str     0x0000261f        0x8 /CMC/tools/altera/13.1/nios2eds/bin/gnu/H-i686-pc-linux-gnu/bin/../lib/gcc/nios2-elf/4.7.3/mno-hw-mul/libgcc.a(_lt_df.o)
                                0x247 (size before relaxing)
 .debug_str     0x00002627       0x21 /CMC/tools/altera/13.1/nios2eds/bin/gnu/H-i686-pc-linux-gnu/bin/../lib/gcc/nios2-elf/4.7.3/mno-hw-mul/libgcc.a(_si_to_df.o)
                                0x21d (size before relaxing)
 .debug_str     0x00002648        0xa /CMC/tools/altera/13.1/nios2eds/bin/gnu/H-i686-pc-linux-gnu/bin/../lib/gcc/nios2-elf/4.7.3/mno-hw-mul/libgcc.a(_df_to_si.o)
                                0x23f (size before relaxing)
 .debug_str     0x00000000      0x1d0 /CMC/tools/altera/13.1/nios2eds/bin/gnu/H-i686-pc-linux-gnu/bin/../lib/gcc/nios2-elf/4.7.3/mno-hw-mul/libgcc.a(_thenan_df.o)
 .debug_str     0x00002652       0x14 /CMC/tools/altera/13.1/nios2eds/bin/gnu/H-i686-pc-linux-gnu/bin/../lib/gcc/nios2-elf/4.7.3/mno-hw-mul/libgcc.a(_usi_to_df.o)
                                0x219 (size before relaxing)
 .debug_str     0x00002666       0x7f /CMC/tools/altera/13.1/nios2eds/bin/gnu/H-i686-pc-linux-gnu/bin/../lib/gcc/nios2-elf/4.7.3/mno-hw-mul/libgcc.a(lib2-divmod.o)
                                0x16a (size before relaxing)
 .debug_str     0x000026e5        0x9 /CMC/tools/altera/13.1/nios2eds/bin/gnu/H-i686-pc-linux-gnu/bin/../lib/gcc/nios2-elf/4.7.3/mno-hw-mul/libgcc.a(_muldi3.o)
                                0x1b1 (size before relaxing)
 .debug_str     0x00000000      0x16f /CMC/tools/altera/13.1/nios2eds/bin/gnu/H-i686-pc-linux-gnu/bin/../lib/gcc/nios2-elf/4.7.3/mno-hw-mul/libgcc.a(_clz.o)
 .debug_str     0x00000000      0x18c /CMC/tools/altera/13.1/nios2eds/bin/gnu/H-i686-pc-linux-gnu/bin/../lib/gcc/nios2-elf/4.7.3/mno-hw-mul/libgcc.a(_clzsi2.o)
 .debug_str     0x000026ee        0x7 /CMC/tools/altera/13.1/nios2eds/bin/gnu/H-i686-pc-linux-gnu/bin/../lib/gcc/nios2-elf/4.7.3/mno-hw-mul/libgcc.a(_pack_df.o)
                                0x233 (size before relaxing)
 .debug_str     0x00000000      0x215 /CMC/tools/altera/13.1/nios2eds/bin/gnu/H-i686-pc-linux-gnu/bin/../lib/gcc/nios2-elf/4.7.3/mno-hw-mul/libgcc.a(_unpack_df.o)
 .debug_str     0x00000000      0x1f3 /CMC/tools/altera/13.1/nios2eds/bin/gnu/H-i686-pc-linux-gnu/bin/../lib/gcc/nios2-elf/4.7.3/mno-hw-mul/libgcc.a(_fpcmp_parts_df.o)
 .debug_str     0x000026f5       0x23 /CMC/tools/altera/13.1/nios2eds/bin/gnu/H-i686-pc-linux-gnu/bin/../lib/gcc/nios2-elf/4.7.3/mno-hw-mul/libgcc.a(_lshrdi3.o)
                                0x1a3 (size before relaxing)
 .debug_str     0x00002718        0xa /CMC/tools/altera/13.1/nios2eds/bin/gnu/H-i686-pc-linux-gnu/bin/../lib/gcc/nios2-elf/4.7.3/mno-hw-mul/libgcc.a(_ashldi3.o)
                                0x1a3 (size before relaxing)
 .debug_str     0x00002722       0xb5 ../ucosMon_bsp//libucosii_bsp.a(alt_close.o)
                                0x208 (size before relaxing)
 .debug_str     0x000027d7       0x61 ../ucosMon_bsp//libucosii_bsp.a(alt_dev.o)
                                0x376 (size before relaxing)
 .debug_str     0x00002838       0x32 ../ucosMon_bsp//libucosii_bsp.a(alt_dma_rxchan_open.o)
                                0x22c (size before relaxing)
 .debug_str     0x0000286a       0x32 ../ucosMon_bsp//libucosii_bsp.a(alt_dma_txchan_open.o)
                                0x22e (size before relaxing)
 .debug_str     0x0000289c       0x14 ../ucosMon_bsp//libucosii_bsp.a(alt_errno.o)
                                0x112 (size before relaxing)
 .debug_str     0x000028b0       0x3c ../ucosMon_bsp//libucosii_bsp.a(alt_exit.o)
                                0x160 (size before relaxing)
 .debug_str     0x000028ec       0x24 ../ucosMon_bsp//libucosii_bsp.a(alt_find_dev.o)
                                0x1e9 (size before relaxing)
 .debug_str     0x00002910       0x14 ../ucosMon_bsp//libucosii_bsp.a(alt_fstat.o)
                                0x2e9 (size before relaxing)
 .debug_str     0x00002924       0xf4 ../ucosMon_bsp//libucosii_bsp.a(alt_iic.o)
                                0x20b (size before relaxing)
 .debug_str     0x00002a18       0x4c ../ucosMon_bsp//libucosii_bsp.a(alt_iic_isr_register.o)
                                0x1b5 (size before relaxing)
 .debug_str     0x00002a64       0x3a ../ucosMon_bsp//libucosii_bsp.a(alt_irq_handler.o)
                                0x18c (size before relaxing)
 .debug_str     0x00002a9e       0x17 ../ucosMon_bsp//libucosii_bsp.a(alt_irq_vars.o)
                                0x113 (size before relaxing)
 .debug_str     0x00002ab5       0x15 ../ucosMon_bsp//libucosii_bsp.a(alt_isatty.o)
                                0x2f1 (size before relaxing)
 .debug_str     0x00002aca       0xe4 ../ucosMon_bsp//libucosii_bsp.a(alt_load.o)
                                0x1df (size before relaxing)
 .debug_str     0x00002bae       0x14 ../ucosMon_bsp//libucosii_bsp.a(alt_lseek.o)
                                0x20e (size before relaxing)
 .debug_str     0x00002bc2       0x5d ../ucosMon_bsp//libucosii_bsp.a(alt_main.o)
                                0x22d (size before relaxing)
 .debug_str     0x00002c1f       0x13 ../ucosMon_bsp//libucosii_bsp.a(alt_read.o)
                                0x2f4 (size before relaxing)
 .debug_str     0x00002c32       0x28 ../ucosMon_bsp//libucosii_bsp.a(alt_release_fd.o)
                                0x1f2 (size before relaxing)
 .debug_str     0x00002c5a       0x61 ../ucosMon_bsp//libucosii_bsp.a(alt_sbrk.o)
                                0x1a8 (size before relaxing)
 .debug_str     0x00002cbb       0x29 ../ucosMon_bsp//libucosii_bsp.a(alt_times.o)
                                0x1a1 (size before relaxing)
 .debug_str     0x00002ce4       0x14 ../ucosMon_bsp//libucosii_bsp.a(alt_write.o)
                                0x2f5 (size before relaxing)
 .debug_str     0x00002cf8      0x246 ../ucosMon_bsp//libucosii_bsp.a(alt_env_lock.o)
                                0x774 (size before relaxing)
 .debug_str     0x00002f3e       0x24 ../ucosMon_bsp//libucosii_bsp.a(alt_malloc_lock.o)
                                0x7dd (size before relaxing)
 .debug_str     0x00002f62      0x536 ../ucosMon_bsp//libucosii_bsp.a(os_core.o)
                                0x92a (size before relaxing)
 .debug_str     0x00003498      0x2e5 ../ucosMon_bsp//libucosii_bsp.a(os_dbg.o)
                                0x892 (size before relaxing)
 .debug_str     0x0000377d      0x136 ../ucosMon_bsp//libucosii_bsp.a(os_flag.o)
                                0x5c6 (size before relaxing)
 .debug_str     0x000038b3       0xcf ../ucosMon_bsp//libucosii_bsp.a(os_mem.o)
                                0x2cf (size before relaxing)
 .debug_str     0x00003982       0xc0 ../ucosMon_bsp//libucosii_bsp.a(os_q.o)
                                0x549 (size before relaxing)
 .debug_str     0x00003a42       0x77 ../ucosMon_bsp//libucosii_bsp.a(os_sem.o)
                                0x4d2 (size before relaxing)
 .debug_str     0x00003ab9      0x113 ../ucosMon_bsp//libucosii_bsp.a(os_task.o)
                                0x5d5 (size before relaxing)
 .debug_str     0x00003bcc       0x6d ../ucosMon_bsp//libucosii_bsp.a(os_time.o)
                                0x475 (size before relaxing)
 .debug_str     0x00003c39      0x322 ../ucosMon_bsp//libucosii_bsp.a(alt_sys_init.o)
                                0x754 (size before relaxing)
 .debug_str     0x00003f5b      0x177 ../ucosMon_bsp//libucosii_bsp.a(altera_avalon_dma.o)
                                0x4ee (size before relaxing)
 .debug_str     0x000040d2       0xac ../ucosMon_bsp//libucosii_bsp.a(altera_avalon_jtag_uart_fd.o)
                                0x461 (size before relaxing)
 .debug_str     0x0000417e       0xe1 ../ucosMon_bsp//libucosii_bsp.a(altera_avalon_jtag_uart_init.o)
                                0x428 (size before relaxing)
 .debug_str     0x0000425f       0x4a ../ucosMon_bsp//libucosii_bsp.a(altera_avalon_jtag_uart_ioctl.o)
                                0x350 (size before relaxing)
 .debug_str     0x000042a9       0x63 ../ucosMon_bsp//libucosii_bsp.a(altera_avalon_jtag_uart_read.o)
                                0x3ca (size before relaxing)
 .debug_str     0x0000430c       0x4a ../ucosMon_bsp//libucosii_bsp.a(altera_avalon_jtag_uart_write.o)
                                0x3cb (size before relaxing)
 .debug_str     0x00004356       0xf8 ../ucosMon_bsp//libucosii_bsp.a(altera_avalon_mutex.o)
                                0x336 (size before relaxing)
 .debug_str     0x0000444e       0x66 ../ucosMon_bsp//libucosii_bsp.a(altera_avalon_timer_sc.o)
                                0x21f (size before relaxing)
 .debug_str     0x000044b4       0x27 ../ucosMon_bsp//libucosii_bsp.a(altera_avalon_timer_vars.o)
                                0x186 (size before relaxing)
 .debug_str     0x000044db      0x1ba ../ucosMon_bsp//libucosii_bsp.a(altera_ro_zipfs.o)
                                0x511 (size before relaxing)
 .debug_str     0x00004695       0x59 ../ucosMon_bsp//libucosii_bsp.a(alt_alarm_start.o)
                                0x252 (size before relaxing)
 .debug_str     0x000046ee       0x34 ../ucosMon_bsp//libucosii_bsp.a(alt_dcache_flush_all.o)
                                0x122 (size before relaxing)
 .debug_str     0x00004722       0x34 ../ucosMon_bsp//libucosii_bsp.a(alt_dev_llist_insert.o)
                                0x199 (size before relaxing)
 .debug_str     0x00004756       0x48 ../ucosMon_bsp//libucosii_bsp.a(alt_do_ctors.o)
                                 0xa9 (size before relaxing)
 .debug_str     0x0000479e       0x4c ../ucosMon_bsp//libucosii_bsp.a(alt_do_dtors.o)
                                 0xa8 (size before relaxing)
 .debug_str     0x000047ea       0x20 ../ucosMon_bsp//libucosii_bsp.a(alt_fs_reg.o)
                                0x206 (size before relaxing)
 .debug_str     0x0000480a       0x34 ../ucosMon_bsp//libucosii_bsp.a(alt_icache_flush_all.o)
                                0x122 (size before relaxing)
 .debug_str     0x0000483e       0x56 ../ucosMon_bsp//libucosii_bsp.a(alt_io_redirect.o)
                                0x313 (size before relaxing)
 .debug_str     0x00004894       0x29 ../ucosMon_bsp//libucosii_bsp.a(alt_open.o)
                                0x240 (size before relaxing)
 .debug_str     0x000048bd       0x4a ../ucosMon_bsp//libucosii_bsp.a(alt_tick.o)
                                0x233 (size before relaxing)
 .debug_str     0x00004907       0x3b ../ucosMon_bsp//libucosii_bsp.a(altera_nios2_qsys_irq.o)
                                0x129 (size before relaxing)
 .debug_str     0x00004942       0xd5 ../ucosMon_bsp//libucosii_bsp.a(os_cpu_c.o)
                                0x7e9 (size before relaxing)
 .debug_str     0x00004a17       0x26 ../ucosMon_bsp//libucosii_bsp.a(alt_find_file.o)
                                0x1f7 (size before relaxing)
 .debug_str     0x00004a3d       0x30 ../ucosMon_bsp//libucosii_bsp.a(alt_get_fd.o)
                                0x295 (size before relaxing)
 .debug_str     0x00004a6d       0x2c ../ucosMon_bsp//libucosii_bsp.a(alt_icache_flush.o)
                                0x128 (size before relaxing)
 .debug_str     0x00004a99       0x82 /CMC/tools/altera/13.1/nios2eds/bin/gnu/H-i686-pc-linux-gnu/bin/../lib/gcc/nios2-elf/4.7.3/../../../../../H-i686-pc-linux-gnu/nios2-elf/lib/mno-hw-mul/libc.a(lib_a-atexit.o)
                                0x21e (size before relaxing)
 .debug_str     0x00004b1b       0x45 /CMC/tools/altera/13.1/nios2eds/bin/gnu/H-i686-pc-linux-gnu/bin/../lib/gcc/nios2-elf/4.7.3/../../../../../H-i686-pc-linux-gnu/nios2-elf/lib/mno-hw-mul/libc.a(lib_a-memcmp.o)
                                0x185 (size before relaxing)
 .debug_str     0x00004b60       0x47 /CMC/tools/altera/13.1/nios2eds/bin/gnu/H-i686-pc-linux-gnu/bin/../lib/gcc/nios2-elf/4.7.3/../../../../../H-i686-pc-linux-gnu/nios2-elf/lib/mno-hw-mul/libc.a(lib_a-strncmp.o)
                                0x187 (size before relaxing)
 .debug_str     0x00004ba7       0x40 /CMC/tools/altera/13.1/nios2eds/bin/gnu/H-i686-pc-linux-gnu/bin/../lib/gcc/nios2-elf/4.7.3/../../../../../H-i686-pc-linux-gnu/nios2-elf/lib/mno-hw-mul/libc.a(lib_a-__atexit.o)
                                0x582 (size before relaxing)
 .debug_str     0x00004be7        0xd /CMC/tools/altera/13.1/nios2eds/bin/gnu/H-i686-pc-linux-gnu/bin/../lib/gcc/nios2-elf/4.7.3/mno-hw-mul/libgcc.a(_fixunsdfsi.o)
                                0x177 (size before relaxing)

.debug_loc      0x00000000    0x12b1b
 *(.debug_loc)
 .debug_loc     0x00000000      0x1b9 obj/default/Monitor.o
 .debug_loc     0x000001b9       0x60 ../critical_library/libcritical_library.a(critical.o)
 .debug_loc     0x00000219      0x100 ../critical_library/libcritical_library.a(fingerprint.o)
 .debug_loc     0x00000319       0x93 /CMC/tools/altera/13.1/nios2eds/bin/gnu/H-i686-pc-linux-gnu/bin/../lib/gcc/nios2-elf/4.7.3/mno-hw-mul/libgcc.a(lib2-mul.o)
 .debug_loc     0x000003ac       0x3e /CMC/tools/altera/13.1/nios2eds/bin/gnu/H-i686-pc-linux-gnu/bin/../lib/gcc/nios2-elf/4.7.3/../../../../../H-i686-pc-linux-gnu/nios2-elf/lib/mno-hw-mul/libc.a(lib_a-clock.o)
 .debug_loc     0x000003ea       0x3e /CMC/tools/altera/13.1/nios2eds/bin/gnu/H-i686-pc-linux-gnu/bin/../lib/gcc/nios2-elf/4.7.3/../../../../../H-i686-pc-linux-gnu/nios2-elf/lib/mno-hw-mul/libc.a(lib_a-exit.o)
 .debug_loc     0x00000428      0x29c /CMC/tools/altera/13.1/nios2eds/bin/gnu/H-i686-pc-linux-gnu/bin/../lib/gcc/nios2-elf/4.7.3/../../../../../H-i686-pc-linux-gnu/nios2-elf/lib/mno-hw-mul/libc.a(lib_a-memcpy.o)
 .debug_loc     0x000006c4      0x132 /CMC/tools/altera/13.1/nios2eds/bin/gnu/H-i686-pc-linux-gnu/bin/../lib/gcc/nios2-elf/4.7.3/../../../../../H-i686-pc-linux-gnu/nios2-elf/lib/mno-hw-mul/libc.a(lib_a-printf.o)
 .debug_loc     0x000007f6       0xd9 /CMC/tools/altera/13.1/nios2eds/bin/gnu/H-i686-pc-linux-gnu/bin/../lib/gcc/nios2-elf/4.7.3/../../../../../H-i686-pc-linux-gnu/nios2-elf/lib/mno-hw-mul/libc.a(lib_a-puts.o)
 .debug_loc     0x000008cf       0x52 /CMC/tools/altera/13.1/nios2eds/bin/gnu/H-i686-pc-linux-gnu/bin/../lib/gcc/nios2-elf/4.7.3/../../../../../H-i686-pc-linux-gnu/nios2-elf/lib/mno-hw-mul/libc.a(lib_a-strlen.o)
 .debug_loc     0x00000921       0x42 /CMC/tools/altera/13.1/nios2eds/bin/gnu/H-i686-pc-linux-gnu/bin/../lib/gcc/nios2-elf/4.7.3/../../../../../H-i686-pc-linux-gnu/nios2-elf/lib/mno-hw-mul/libc.a(lib_a-timesr.o)
 .debug_loc     0x00000963     0x2f0e /CMC/tools/altera/13.1/nios2eds/bin/gnu/H-i686-pc-linux-gnu/bin/../lib/gcc/nios2-elf/4.7.3/../../../../../H-i686-pc-linux-gnu/nios2-elf/lib/mno-hw-mul/libc.a(lib_a-vfprintf.o)
 .debug_loc     0x00003871       0xba /CMC/tools/altera/13.1/nios2eds/bin/gnu/H-i686-pc-linux-gnu/bin/../lib/gcc/nios2-elf/4.7.3/../../../../../H-i686-pc-linux-gnu/nios2-elf/lib/mno-hw-mul/libc.a(lib_a-wsetup.o)
 .debug_loc     0x0000392b      0x1e1 /CMC/tools/altera/13.1/nios2eds/bin/gnu/H-i686-pc-linux-gnu/bin/../lib/gcc/nios2-elf/4.7.3/../../../../../H-i686-pc-linux-gnu/nios2-elf/lib/mno-hw-mul/libc.a(lib_a-__call_atexit.o)
 .debug_loc     0x00003b0c     0x225e /CMC/tools/altera/13.1/nios2eds/bin/gnu/H-i686-pc-linux-gnu/bin/../lib/gcc/nios2-elf/4.7.3/../../../../../H-i686-pc-linux-gnu/nios2-elf/lib/mno-hw-mul/libc.a(lib_a-dtoa.o)
 .debug_loc     0x00005d6a      0x259 /CMC/tools/altera/13.1/nios2eds/bin/gnu/H-i686-pc-linux-gnu/bin/../lib/gcc/nios2-elf/4.7.3/../../../../../H-i686-pc-linux-gnu/nios2-elf/lib/mno-hw-mul/libc.a(lib_a-fflush.o)
 .debug_loc     0x00005fc3      0x2a7 /CMC/tools/altera/13.1/nios2eds/bin/gnu/H-i686-pc-linux-gnu/bin/../lib/gcc/nios2-elf/4.7.3/../../../../../H-i686-pc-linux-gnu/nios2-elf/lib/mno-hw-mul/libc.a(lib_a-findfp.o)
 .debug_loc     0x0000626a      0x668 /CMC/tools/altera/13.1/nios2eds/bin/gnu/H-i686-pc-linux-gnu/bin/../lib/gcc/nios2-elf/4.7.3/../../../../../H-i686-pc-linux-gnu/nios2-elf/lib/mno-hw-mul/libc.a(lib_a-freer.o)
 .debug_loc     0x000068d2      0x50c /CMC/tools/altera/13.1/nios2eds/bin/gnu/H-i686-pc-linux-gnu/bin/../lib/gcc/nios2-elf/4.7.3/../../../../../H-i686-pc-linux-gnu/nios2-elf/lib/mno-hw-mul/libc.a(lib_a-fvwrite.o)
 .debug_loc     0x00006dde      0x2ae /CMC/tools/altera/13.1/nios2eds/bin/gnu/H-i686-pc-linux-gnu/bin/../lib/gcc/nios2-elf/4.7.3/../../../../../H-i686-pc-linux-gnu/nios2-elf/lib/mno-hw-mul/libc.a(lib_a-fwalk.o)
 .debug_loc     0x0000708c      0x13e /CMC/tools/altera/13.1/nios2eds/bin/gnu/H-i686-pc-linux-gnu/bin/../lib/gcc/nios2-elf/4.7.3/../../../../../H-i686-pc-linux-gnu/nios2-elf/lib/mno-hw-mul/libc.a(lib_a-locale.o)
 .debug_loc     0x000071ca      0x16a /CMC/tools/altera/13.1/nios2eds/bin/gnu/H-i686-pc-linux-gnu/bin/../lib/gcc/nios2-elf/4.7.3/../../../../../H-i686-pc-linux-gnu/nios2-elf/lib/mno-hw-mul/libc.a(lib_a-makebuf.o)
 .debug_loc     0x00007334      0xb50 /CMC/tools/altera/13.1/nios2eds/bin/gnu/H-i686-pc-linux-gnu/bin/../lib/gcc/nios2-elf/4.7.3/../../../../../H-i686-pc-linux-gnu/nios2-elf/lib/mno-hw-mul/libc.a(lib_a-mallocr.o)
 .debug_loc     0x00007e84      0x239 /CMC/tools/altera/13.1/nios2eds/bin/gnu/H-i686-pc-linux-gnu/bin/../lib/gcc/nios2-elf/4.7.3/../../../../../H-i686-pc-linux-gnu/nios2-elf/lib/mno-hw-mul/libc.a(lib_a-memchr.o)
 .debug_loc     0x000080bd      0x301 /CMC/tools/altera/13.1/nios2eds/bin/gnu/H-i686-pc-linux-gnu/bin/../lib/gcc/nios2-elf/4.7.3/../../../../../H-i686-pc-linux-gnu/nios2-elf/lib/mno-hw-mul/libc.a(lib_a-memmove.o)
 .debug_loc     0x000083be      0x1b7 /CMC/tools/altera/13.1/nios2eds/bin/gnu/H-i686-pc-linux-gnu/bin/../lib/gcc/nios2-elf/4.7.3/../../../../../H-i686-pc-linux-gnu/nios2-elf/lib/mno-hw-mul/libc.a(lib_a-memset.o)
 .debug_loc     0x00008575     0x1b8a /CMC/tools/altera/13.1/nios2eds/bin/gnu/H-i686-pc-linux-gnu/bin/../lib/gcc/nios2-elf/4.7.3/../../../../../H-i686-pc-linux-gnu/nios2-elf/lib/mno-hw-mul/libc.a(lib_a-mprec.o)
 .debug_loc     0x0000a0ff     0x1136 /CMC/tools/altera/13.1/nios2eds/bin/gnu/H-i686-pc-linux-gnu/bin/../lib/gcc/nios2-elf/4.7.3/../../../../../H-i686-pc-linux-gnu/nios2-elf/lib/mno-hw-mul/libc.a(lib_a-reallocr.o)
 .debug_loc     0x0000b235       0x88 /CMC/tools/altera/13.1/nios2eds/bin/gnu/H-i686-pc-linux-gnu/bin/../lib/gcc/nios2-elf/4.7.3/../../../../../H-i686-pc-linux-gnu/nios2-elf/lib/mno-hw-mul/libc.a(lib_a-s_isinfd.o)
 .debug_loc     0x0000b2bd       0xa5 /CMC/tools/altera/13.1/nios2eds/bin/gnu/H-i686-pc-linux-gnu/bin/../lib/gcc/nios2-elf/4.7.3/../../../../../H-i686-pc-linux-gnu/nios2-elf/lib/mno-hw-mul/libc.a(lib_a-s_isnand.o)
 .debug_loc     0x0000b362       0x86 /CMC/tools/altera/13.1/nios2eds/bin/gnu/H-i686-pc-linux-gnu/bin/../lib/gcc/nios2-elf/4.7.3/../../../../../H-i686-pc-linux-gnu/nios2-elf/lib/mno-hw-mul/libc.a(lib_a-sbrkr.o)
 .debug_loc     0x0000b3e8      0x379 /CMC/tools/altera/13.1/nios2eds/bin/gnu/H-i686-pc-linux-gnu/bin/../lib/gcc/nios2-elf/4.7.3/../../../../../H-i686-pc-linux-gnu/nios2-elf/lib/mno-hw-mul/libc.a(lib_a-stdio.o)
 .debug_loc     0x0000b761       0xb0 /CMC/tools/altera/13.1/nios2eds/bin/gnu/H-i686-pc-linux-gnu/bin/../lib/gcc/nios2-elf/4.7.3/../../../../../H-i686-pc-linux-gnu/nios2-elf/lib/mno-hw-mul/libc.a(lib_a-strcmp.o)
 .debug_loc     0x0000b811       0xde /CMC/tools/altera/13.1/nios2eds/bin/gnu/H-i686-pc-linux-gnu/bin/../lib/gcc/nios2-elf/4.7.3/../../../../../H-i686-pc-linux-gnu/nios2-elf/lib/mno-hw-mul/libc.a(lib_a-writer.o)
 .debug_loc     0x0000b8ef      0x259 /CMC/tools/altera/13.1/nios2eds/bin/gnu/H-i686-pc-linux-gnu/bin/../lib/gcc/nios2-elf/4.7.3/../../../../../H-i686-pc-linux-gnu/nios2-elf/lib/mno-hw-mul/libc.a(lib_a-callocr.o)
 .debug_loc     0x0000bb48       0x86 /CMC/tools/altera/13.1/nios2eds/bin/gnu/H-i686-pc-linux-gnu/bin/../lib/gcc/nios2-elf/4.7.3/../../../../../H-i686-pc-linux-gnu/nios2-elf/lib/mno-hw-mul/libc.a(lib_a-closer.o)
 .debug_loc     0x0000bbce      0x136 /CMC/tools/altera/13.1/nios2eds/bin/gnu/H-i686-pc-linux-gnu/bin/../lib/gcc/nios2-elf/4.7.3/../../../../../H-i686-pc-linux-gnu/nios2-elf/lib/mno-hw-mul/libc.a(lib_a-fclose.o)
 .debug_loc     0x0000bd04       0xb2 /CMC/tools/altera/13.1/nios2eds/bin/gnu/H-i686-pc-linux-gnu/bin/../lib/gcc/nios2-elf/4.7.3/../../../../../H-i686-pc-linux-gnu/nios2-elf/lib/mno-hw-mul/libc.a(lib_a-fstatr.o)
 .debug_loc     0x0000bdb6       0x86 /CMC/tools/altera/13.1/nios2eds/bin/gnu/H-i686-pc-linux-gnu/bin/../lib/gcc/nios2-elf/4.7.3/../../../../../H-i686-pc-linux-gnu/nios2-elf/lib/mno-hw-mul/libc.a(lib_a-isattyr.o)
 .debug_loc     0x0000be3c       0xde /CMC/tools/altera/13.1/nios2eds/bin/gnu/H-i686-pc-linux-gnu/bin/../lib/gcc/nios2-elf/4.7.3/../../../../../H-i686-pc-linux-gnu/nios2-elf/lib/mno-hw-mul/libc.a(lib_a-lseekr.o)
 .debug_loc     0x0000bf1a       0xde /CMC/tools/altera/13.1/nios2eds/bin/gnu/H-i686-pc-linux-gnu/bin/../lib/gcc/nios2-elf/4.7.3/../../../../../H-i686-pc-linux-gnu/nios2-elf/lib/mno-hw-mul/libc.a(lib_a-readr.o)
 .debug_loc     0x0000bff8     0x1202 /CMC/tools/altera/13.1/nios2eds/bin/gnu/H-i686-pc-linux-gnu/bin/../lib/gcc/nios2-elf/4.7.3/mno-hw-mul/libgcc.a(_udivdi3.o)
 .debug_loc     0x0000d1fa     0x10d6 /CMC/tools/altera/13.1/nios2eds/bin/gnu/H-i686-pc-linux-gnu/bin/../lib/gcc/nios2-elf/4.7.3/mno-hw-mul/libgcc.a(_umoddi3.o)
 .debug_loc     0x0000e2d0      0x7a1 /CMC/tools/altera/13.1/nios2eds/bin/gnu/H-i686-pc-linux-gnu/bin/../lib/gcc/nios2-elf/4.7.3/mno-hw-mul/libgcc.a(_addsub_df.o)
 .debug_loc     0x0000ea71      0x3ba /CMC/tools/altera/13.1/nios2eds/bin/gnu/H-i686-pc-linux-gnu/bin/../lib/gcc/nios2-elf/4.7.3/mno-hw-mul/libgcc.a(_mul_df.o)
 .debug_loc     0x0000ee2b      0x25e /CMC/tools/altera/13.1/nios2eds/bin/gnu/H-i686-pc-linux-gnu/bin/../lib/gcc/nios2-elf/4.7.3/mno-hw-mul/libgcc.a(_div_df.o)
 .debug_loc     0x0000f089       0x70 /CMC/tools/altera/13.1/nios2eds/bin/gnu/H-i686-pc-linux-gnu/bin/../lib/gcc/nios2-elf/4.7.3/mno-hw-mul/libgcc.a(_eq_df.o)
 .debug_loc     0x0000f0f9       0x70 /CMC/tools/altera/13.1/nios2eds/bin/gnu/H-i686-pc-linux-gnu/bin/../lib/gcc/nios2-elf/4.7.3/mno-hw-mul/libgcc.a(_ne_df.o)
 .debug_loc     0x0000f169       0x70 /CMC/tools/altera/13.1/nios2eds/bin/gnu/H-i686-pc-linux-gnu/bin/../lib/gcc/nios2-elf/4.7.3/mno-hw-mul/libgcc.a(_gt_df.o)
 .debug_loc     0x0000f1d9       0x70 /CMC/tools/altera/13.1/nios2eds/bin/gnu/H-i686-pc-linux-gnu/bin/../lib/gcc/nios2-elf/4.7.3/mno-hw-mul/libgcc.a(_ge_df.o)
 .debug_loc     0x0000f249       0x70 /CMC/tools/altera/13.1/nios2eds/bin/gnu/H-i686-pc-linux-gnu/bin/../lib/gcc/nios2-elf/4.7.3/mno-hw-mul/libgcc.a(_lt_df.o)
 .debug_loc     0x0000f2b9       0xd3 /CMC/tools/altera/13.1/nios2eds/bin/gnu/H-i686-pc-linux-gnu/bin/../lib/gcc/nios2-elf/4.7.3/mno-hw-mul/libgcc.a(_si_to_df.o)
 .debug_loc     0x0000f38c       0xce /CMC/tools/altera/13.1/nios2eds/bin/gnu/H-i686-pc-linux-gnu/bin/../lib/gcc/nios2-elf/4.7.3/mno-hw-mul/libgcc.a(_df_to_si.o)
 .debug_loc     0x0000f45a      0x168 /CMC/tools/altera/13.1/nios2eds/bin/gnu/H-i686-pc-linux-gnu/bin/../lib/gcc/nios2-elf/4.7.3/mno-hw-mul/libgcc.a(_usi_to_df.o)
 .debug_loc     0x0000f5c2      0x338 /CMC/tools/altera/13.1/nios2eds/bin/gnu/H-i686-pc-linux-gnu/bin/../lib/gcc/nios2-elf/4.7.3/mno-hw-mul/libgcc.a(lib2-divmod.o)
 .debug_loc     0x0000f8fa      0x1a8 /CMC/tools/altera/13.1/nios2eds/bin/gnu/H-i686-pc-linux-gnu/bin/../lib/gcc/nios2-elf/4.7.3/mno-hw-mul/libgcc.a(_muldi3.o)
 .debug_loc     0x0000faa2      0x19a /CMC/tools/altera/13.1/nios2eds/bin/gnu/H-i686-pc-linux-gnu/bin/../lib/gcc/nios2-elf/4.7.3/mno-hw-mul/libgcc.a(_clzsi2.o)
 .debug_loc     0x0000fc3c      0x2ae /CMC/tools/altera/13.1/nios2eds/bin/gnu/H-i686-pc-linux-gnu/bin/../lib/gcc/nios2-elf/4.7.3/mno-hw-mul/libgcc.a(_pack_df.o)
 .debug_loc     0x0000feea      0x179 /CMC/tools/altera/13.1/nios2eds/bin/gnu/H-i686-pc-linux-gnu/bin/../lib/gcc/nios2-elf/4.7.3/mno-hw-mul/libgcc.a(_unpack_df.o)
 .debug_loc     0x00010063       0x7c /CMC/tools/altera/13.1/nios2eds/bin/gnu/H-i686-pc-linux-gnu/bin/../lib/gcc/nios2-elf/4.7.3/mno-hw-mul/libgcc.a(_fpcmp_parts_df.o)
 .debug_loc     0x000100df       0xc4 /CMC/tools/altera/13.1/nios2eds/bin/gnu/H-i686-pc-linux-gnu/bin/../lib/gcc/nios2-elf/4.7.3/mno-hw-mul/libgcc.a(_lshrdi3.o)
 .debug_loc     0x000101a3       0xc4 /CMC/tools/altera/13.1/nios2eds/bin/gnu/H-i686-pc-linux-gnu/bin/../lib/gcc/nios2-elf/4.7.3/mno-hw-mul/libgcc.a(_ashldi3.o)
 .debug_loc     0x00010267       0x58 ../ucosMon_bsp//libucosii_bsp.a(alt_close.o)
 .debug_loc     0x000102bf       0x2c ../ucosMon_bsp//libucosii_bsp.a(alt_dev.o)
 .debug_loc     0x000102eb       0x58 ../ucosMon_bsp//libucosii_bsp.a(alt_dma_rxchan_open.o)
 .debug_loc     0x00010343       0x58 ../ucosMon_bsp//libucosii_bsp.a(alt_dma_txchan_open.o)
 .debug_loc     0x0001039b       0x2c ../ucosMon_bsp//libucosii_bsp.a(alt_exit.o)
 .debug_loc     0x000103c7       0x2c ../ucosMon_bsp//libucosii_bsp.a(alt_find_dev.o)
 .debug_loc     0x000103f3       0x58 ../ucosMon_bsp//libucosii_bsp.a(alt_fstat.o)
 .debug_loc     0x0001044b       0xb0 ../ucosMon_bsp//libucosii_bsp.a(alt_iic.o)
 .debug_loc     0x000104fb       0x2c ../ucosMon_bsp//libucosii_bsp.a(alt_iic_isr_register.o)
 .debug_loc     0x00010527       0x2c ../ucosMon_bsp//libucosii_bsp.a(alt_irq_handler.o)
 .debug_loc     0x00010553       0x59 ../ucosMon_bsp//libucosii_bsp.a(alt_isatty.o)
 .debug_loc     0x000105ac       0x58 ../ucosMon_bsp//libucosii_bsp.a(alt_load.o)
 .debug_loc     0x00010604       0x58 ../ucosMon_bsp//libucosii_bsp.a(alt_lseek.o)
 .debug_loc     0x0001065c       0x2c ../ucosMon_bsp//libucosii_bsp.a(alt_main.o)
 .debug_loc     0x00010688       0x58 ../ucosMon_bsp//libucosii_bsp.a(alt_read.o)
 .debug_loc     0x000106e0       0x2c ../ucosMon_bsp//libucosii_bsp.a(alt_release_fd.o)
 .debug_loc     0x0001070c       0x2c ../ucosMon_bsp//libucosii_bsp.a(alt_sbrk.o)
 .debug_loc     0x00010738       0x58 ../ucosMon_bsp//libucosii_bsp.a(alt_times.o)
 .debug_loc     0x00010790       0x58 ../ucosMon_bsp//libucosii_bsp.a(alt_write.o)
 .debug_loc     0x000107e8       0x59 ../ucosMon_bsp//libucosii_bsp.a(alt_env_lock.o)
 .debug_loc     0x00010841       0x59 ../ucosMon_bsp//libucosii_bsp.a(alt_malloc_lock.o)
 .debug_loc     0x0001089a      0x606 ../ucosMon_bsp//libucosii_bsp.a(os_core.o)
 .debug_loc     0x00010ea0       0x2c ../ucosMon_bsp//libucosii_bsp.a(os_dbg.o)
 .debug_loc     0x00010ecc      0x240 ../ucosMon_bsp//libucosii_bsp.a(os_flag.o)
 .debug_loc     0x0001110c      0x134 ../ucosMon_bsp//libucosii_bsp.a(os_mem.o)
 .debug_loc     0x00011240      0x1e6 ../ucosMon_bsp//libucosii_bsp.a(os_q.o)
 .debug_loc     0x00011426      0x161 ../ucosMon_bsp//libucosii_bsp.a(os_sem.o)
 .debug_loc     0x00011587      0x217 ../ucosMon_bsp//libucosii_bsp.a(os_task.o)
 .debug_loc     0x0001179e       0xdd ../ucosMon_bsp//libucosii_bsp.a(os_time.o)
 .debug_loc     0x0001187b       0xdc ../ucosMon_bsp//libucosii_bsp.a(alt_sys_init.o)
 .debug_loc     0x00011957      0x23d ../ucosMon_bsp//libucosii_bsp.a(altera_avalon_dma.o)
 .debug_loc     0x00011b94       0xb0 ../ucosMon_bsp//libucosii_bsp.a(altera_avalon_jtag_uart_fd.o)
 .debug_loc     0x00011c44       0xb0 ../ucosMon_bsp//libucosii_bsp.a(altera_avalon_jtag_uart_init.o)
 .debug_loc     0x00011cf4       0x2c ../ucosMon_bsp//libucosii_bsp.a(altera_avalon_jtag_uart_ioctl.o)
 .debug_loc     0x00011d20       0x2d ../ucosMon_bsp//libucosii_bsp.a(altera_avalon_jtag_uart_read.o)
 .debug_loc     0x00011d4d       0x2d ../ucosMon_bsp//libucosii_bsp.a(altera_avalon_jtag_uart_write.o)
 .debug_loc     0x00011d7a      0x18c ../ucosMon_bsp//libucosii_bsp.a(altera_avalon_mutex.o)
 .debug_loc     0x00011f06       0x58 ../ucosMon_bsp//libucosii_bsp.a(altera_avalon_timer_sc.o)
 .debug_loc     0x00011f5e      0x294 ../ucosMon_bsp//libucosii_bsp.a(altera_ro_zipfs.o)
 .debug_loc     0x000121f2       0x2c ../ucosMon_bsp//libucosii_bsp.a(alt_alarm_start.o)
 .debug_loc     0x0001221e       0x2c ../ucosMon_bsp//libucosii_bsp.a(alt_dcache_flush_all.o)
 .debug_loc     0x0001224a       0x58 ../ucosMon_bsp//libucosii_bsp.a(alt_dev_llist_insert.o)
 .debug_loc     0x000122a2       0x2c ../ucosMon_bsp//libucosii_bsp.a(alt_do_ctors.o)
 .debug_loc     0x000122ce       0x2c ../ucosMon_bsp//libucosii_bsp.a(alt_do_dtors.o)
 .debug_loc     0x000122fa       0x2c ../ucosMon_bsp//libucosii_bsp.a(alt_fs_reg.o)
 .debug_loc     0x00012326       0x2c ../ucosMon_bsp//libucosii_bsp.a(alt_icache_flush_all.o)
 .debug_loc     0x00012352       0x58 ../ucosMon_bsp//libucosii_bsp.a(alt_io_redirect.o)
 .debug_loc     0x000123aa       0x84 ../ucosMon_bsp//libucosii_bsp.a(alt_open.o)
 .debug_loc     0x0001242e       0x58 ../ucosMon_bsp//libucosii_bsp.a(alt_tick.o)
 .debug_loc     0x00012486       0x2c ../ucosMon_bsp//libucosii_bsp.a(altera_nios2_qsys_irq.o)
 .debug_loc     0x000124b2      0x1b8 ../ucosMon_bsp//libucosii_bsp.a(os_cpu_c.o)
 .debug_loc     0x0001266a       0x2c ../ucosMon_bsp//libucosii_bsp.a(alt_find_file.o)
 .debug_loc     0x00012696       0x2c ../ucosMon_bsp//libucosii_bsp.a(alt_get_fd.o)
 .debug_loc     0x000126c2       0x2c ../ucosMon_bsp//libucosii_bsp.a(alt_icache_flush.o)
 .debug_loc     0x000126ee       0x2c /CMC/tools/altera/13.1/nios2eds/bin/gnu/H-i686-pc-linux-gnu/bin/../lib/gcc/nios2-elf/4.7.3/../../../../../H-i686-pc-linux-gnu/nios2-elf/lib/mno-hw-mul/libc.a(lib_a-atexit.o)
 .debug_loc     0x0001271a      0x103 /CMC/tools/altera/13.1/nios2eds/bin/gnu/H-i686-pc-linux-gnu/bin/../lib/gcc/nios2-elf/4.7.3/../../../../../H-i686-pc-linux-gnu/nios2-elf/lib/mno-hw-mul/libc.a(lib_a-memcmp.o)
 .debug_loc     0x0001281d      0x122 /CMC/tools/altera/13.1/nios2eds/bin/gnu/H-i686-pc-linux-gnu/bin/../lib/gcc/nios2-elf/4.7.3/../../../../../H-i686-pc-linux-gnu/nios2-elf/lib/mno-hw-mul/libc.a(lib_a-strncmp.o)
 .debug_loc     0x0001293f      0x194 /CMC/tools/altera/13.1/nios2eds/bin/gnu/H-i686-pc-linux-gnu/bin/../lib/gcc/nios2-elf/4.7.3/../../../../../H-i686-pc-linux-gnu/nios2-elf/lib/mno-hw-mul/libc.a(lib_a-__atexit.o)
 .debug_loc     0x00012ad3       0x48 /CMC/tools/altera/13.1/nios2eds/bin/gnu/H-i686-pc-linux-gnu/bin/../lib/gcc/nios2-elf/4.7.3/mno-hw-mul/libgcc.a(_fixunsdfsi.o)

.debug_macinfo
 *(.debug_macinfo)

.debug_weaknames
 *(.debug_weaknames)

.debug_funcnames
 *(.debug_funcnames)

.debug_typenames
 *(.debug_typenames)

.debug_varnames
 *(.debug_varnames)

.debug_alt_sim_info
                0x00000000       0x20
 *(.debug_alt_sim_info)
 .debug_alt_sim_info
                0x00000000       0x20 ../ucosMon_bsp//obj/HAL/src/crt0.o
                0x00431000                __alt_data_end = 0x431000
                0x00431000                PROVIDE (__alt_stack_pointer, __alt_data_end)
                0x00420ba0                PROVIDE (__alt_stack_limit, __alt_stack_base)
                0x00420ba0                PROVIDE (__alt_heap_start, end)
                0x00431000                PROVIDE (__alt_heap_limit, 0x431000)
OUTPUT(ucosMon.elf elf32-littlenios2)

.debug_ranges   0x00000000      0xa98
 .debug_ranges  0x00000000       0x20 ../ucosMon_bsp//obj/HAL/src/crt0.o
 .debug_ranges  0x00000020      0x150 /CMC/tools/altera/13.1/nios2eds/bin/gnu/H-i686-pc-linux-gnu/bin/../lib/gcc/nios2-elf/4.7.3/../../../../../H-i686-pc-linux-gnu/nios2-elf/lib/mno-hw-mul/libc.a(lib_a-vfprintf.o)
 .debug_ranges  0x00000170       0x18 /CMC/tools/altera/13.1/nios2eds/bin/gnu/H-i686-pc-linux-gnu/bin/../lib/gcc/nios2-elf/4.7.3/../../../../../H-i686-pc-linux-gnu/nios2-elf/lib/mno-hw-mul/libc.a(lib_a-__call_atexit.o)
 .debug_ranges  0x00000188       0x20 /CMC/tools/altera/13.1/nios2eds/bin/gnu/H-i686-pc-linux-gnu/bin/../lib/gcc/nios2-elf/4.7.3/../../../../../H-i686-pc-linux-gnu/nios2-elf/lib/mno-hw-mul/libc.a(lib_a-fflush.o)
 .debug_ranges  0x000001a8       0x18 /CMC/tools/altera/13.1/nios2eds/bin/gnu/H-i686-pc-linux-gnu/bin/../lib/gcc/nios2-elf/4.7.3/../../../../../H-i686-pc-linux-gnu/nios2-elf/lib/mno-hw-mul/libc.a(lib_a-fvwrite.o)
 .debug_ranges  0x000001c0       0x80 /CMC/tools/altera/13.1/nios2eds/bin/gnu/H-i686-pc-linux-gnu/bin/../lib/gcc/nios2-elf/4.7.3/../../../../../H-i686-pc-linux-gnu/nios2-elf/lib/mno-hw-mul/libc.a(lib_a-fwalk.o)
 .debug_ranges  0x00000240       0x70 /CMC/tools/altera/13.1/nios2eds/bin/gnu/H-i686-pc-linux-gnu/bin/../lib/gcc/nios2-elf/4.7.3/../../../../../H-i686-pc-linux-gnu/nios2-elf/lib/mno-hw-mul/libc.a(lib_a-mallocr.o)
 .debug_ranges  0x000002b0       0x40 /CMC/tools/altera/13.1/nios2eds/bin/gnu/H-i686-pc-linux-gnu/bin/../lib/gcc/nios2-elf/4.7.3/../../../../../H-i686-pc-linux-gnu/nios2-elf/lib/mno-hw-mul/libc.a(lib_a-mprec.o)
 .debug_ranges  0x000002f0      0x158 /CMC/tools/altera/13.1/nios2eds/bin/gnu/H-i686-pc-linux-gnu/bin/../lib/gcc/nios2-elf/4.7.3/../../../../../H-i686-pc-linux-gnu/nios2-elf/lib/mno-hw-mul/libc.a(lib_a-reallocr.o)
 .debug_ranges  0x00000448       0x48 /CMC/tools/altera/13.1/nios2eds/bin/gnu/H-i686-pc-linux-gnu/bin/../lib/gcc/nios2-elf/4.7.3/../../../../../H-i686-pc-linux-gnu/nios2-elf/lib/mno-hw-mul/libc.a(lib_a-callocr.o)
 .debug_ranges  0x00000490      0x1a0 /CMC/tools/altera/13.1/nios2eds/bin/gnu/H-i686-pc-linux-gnu/bin/../lib/gcc/nios2-elf/4.7.3/mno-hw-mul/libgcc.a(_udivdi3.o)
 .debug_ranges  0x00000630      0x160 /CMC/tools/altera/13.1/nios2eds/bin/gnu/H-i686-pc-linux-gnu/bin/../lib/gcc/nios2-elf/4.7.3/mno-hw-mul/libgcc.a(_umoddi3.o)
 .debug_ranges  0x00000790       0x38 /CMC/tools/altera/13.1/nios2eds/bin/gnu/H-i686-pc-linux-gnu/bin/../lib/gcc/nios2-elf/4.7.3/mno-hw-mul/libgcc.a(_addsub_df.o)
 .debug_ranges  0x000007c8       0x78 /CMC/tools/altera/13.1/nios2eds/bin/gnu/H-i686-pc-linux-gnu/bin/../lib/gcc/nios2-elf/4.7.3/mno-hw-mul/libgcc.a(_mul_df.o)
 .debug_ranges  0x00000840       0x50 /CMC/tools/altera/13.1/nios2eds/bin/gnu/H-i686-pc-linux-gnu/bin/../lib/gcc/nios2-elf/4.7.3/mno-hw-mul/libgcc.a(_div_df.o)
 .debug_ranges  0x00000890       0x30 /CMC/tools/altera/13.1/nios2eds/bin/gnu/H-i686-pc-linux-gnu/bin/../lib/gcc/nios2-elf/4.7.3/mno-hw-mul/libgcc.a(_si_to_df.o)
 .debug_ranges  0x000008c0       0x48 /CMC/tools/altera/13.1/nios2eds/bin/gnu/H-i686-pc-linux-gnu/bin/../lib/gcc/nios2-elf/4.7.3/mno-hw-mul/libgcc.a(_usi_to_df.o)
 .debug_ranges  0x00000908       0x70 /CMC/tools/altera/13.1/nios2eds/bin/gnu/H-i686-pc-linux-gnu/bin/../lib/gcc/nios2-elf/4.7.3/mno-hw-mul/libgcc.a(_muldi3.o)
 .debug_ranges  0x00000978       0x28 /CMC/tools/altera/13.1/nios2eds/bin/gnu/H-i686-pc-linux-gnu/bin/../lib/gcc/nios2-elf/4.7.3/mno-hw-mul/libgcc.a(_clzsi2.o)
 .debug_ranges  0x000009a0       0x18 /CMC/tools/altera/13.1/nios2eds/bin/gnu/H-i686-pc-linux-gnu/bin/../lib/gcc/nios2-elf/4.7.3/mno-hw-mul/libgcc.a(_pack_df.o)
 .debug_ranges  0x000009b8       0x30 ../ucosMon_bsp//libucosii_bsp.a(alt_iic.o)
 .debug_ranges  0x000009e8       0x28 ../ucosMon_bsp//libucosii_bsp.a(alt_irq_entry.o)
 .debug_ranges  0x00000a10       0x10 ../ucosMon_bsp//libucosii_bsp.a(alt_irq_handler.o)
 .debug_ranges  0x00000a20       0x30 ../ucosMon_bsp//libucosii_bsp.a(altera_avalon_jtag_uart_init.o)
 .debug_ranges  0x00000a50       0x18 ../ucosMon_bsp//libucosii_bsp.a(altera_avalon_jtag_uart_read.o)
 .debug_ranges  0x00000a68       0x30 ../ucosMon_bsp//libucosii_bsp.a(alt_exception_entry.o)
